
Dump of file .\inspect_unroll_O2_U16.exe

File Type: EXECUTABLE IMAGE

  0000000140001000: 55                 push        rbp
  0000000140001001: 48 83 EC 50        sub         rsp,50h
  0000000140001005: 48 8D 6C 24 20     lea         rbp,[rsp+20h]
  000000014000100A: 33 D2              xor         edx,edx
  000000014000100C: 48 89 5D 08        mov         qword ptr [rbp+8],rbx
  0000000140001010: 89 CB              mov         ebx,ecx
  0000000140001012: 33 C9              xor         ecx,ecx
  0000000140001014: 4C 89 75 10        mov         qword ptr [rbp+10h],r14
  0000000140001018: 4C 89 6D 18        mov         qword ptr [rbp+18h],r13
  000000014000101C: E8 9F 02 00 00     call        00000001400012C0
  0000000140001021: 48 C7 45 00 FE FF  mov         qword ptr [rbp],0FFFFFFFFFFFFFFFEh
                    FF FF
  0000000140001029: C7 45 28 00 00 00  mov         dword ptr [rbp+28h],0
                    00
  0000000140001030: B9 A0 0F 00 00     mov         ecx,0FA0h
  0000000140001035: E8 66 57 00 00     call        00000001400067A0
  000000014000103A: 48 89 45 20        mov         qword ptr [rbp+20h],rax
  000000014000103E: 48 85 C0           test        rax,rax
  0000000140001041: 74 27              je          000000014000106A
  0000000140001043: 48 89 C1           mov         rcx,rax
  0000000140001046: 33 D2              xor         edx,edx
  0000000140001048: 41 B8 A0 0F 00 00  mov         r8d,0FA0h
  000000014000104E: C7 45 28 01 00 00  mov         dword ptr [rbp+28h],1
                    00
  0000000140001055: E8 36 07 00 00     call        0000000140001790
  000000014000105A: 4C 8B 75 20        mov         r14,qword ptr [rbp+20h]
  000000014000105E: C7 45 28 00 00 00  mov         dword ptr [rbp+28h],0
                    00
  0000000140001065: 41 89 1E           mov         dword ptr [r14],ebx
  0000000140001068: EB 03              jmp         000000014000106D
  000000014000106A: 45 33 F6           xor         r14d,r14d
  000000014000106D: B9 A0 0F 00 00     mov         ecx,0FA0h
  0000000140001072: C7 45 28 00 00 00  mov         dword ptr [rbp+28h],0
                    00
  0000000140001079: E8 22 57 00 00     call        00000001400067A0
  000000014000107E: 48 89 45 20        mov         qword ptr [rbp+20h],rax
  0000000140001082: 48 85 C0           test        rax,rax
  0000000140001085: 74 28              je          00000001400010AF
  0000000140001087: 48 89 C1           mov         rcx,rax
  000000014000108A: 33 D2              xor         edx,edx
  000000014000108C: 41 B8 A0 0F 00 00  mov         r8d,0FA0h
  0000000140001092: C7 45 28 01 00 00  mov         dword ptr [rbp+28h],1
                    00
  0000000140001099: E8 F2 06 00 00     call        0000000140001790
  000000014000109E: 4C 8B 6D 20        mov         r13,qword ptr [rbp+20h]
  00000001400010A2: C7 45 28 00 00 00  mov         dword ptr [rbp+28h],0
                    00
  00000001400010A9: 41 89 5D 00        mov         dword ptr [r13],ebx
  00000001400010AD: EB 03              jmp         00000001400010B2
  00000001400010AF: 45 33 ED           xor         r13d,r13d
  00000001400010B2: 90                 nop
  00000001400010B3: 90                 nop
  00000001400010B4: 48 3B C3           cmp         rax,rbx
  00000001400010B7: 48 3B CA           cmp         rcx,rdx
  00000001400010BA: 90                 nop
  00000001400010BB: 90                 nop
  00000001400010BC: 32 D2              xor         dl,dl
  00000001400010BE: 33 C0              xor         eax,eax
  00000001400010C0: 42 8B 5C 30 04     mov         ebx,dword ptr [rax+r14+4]
  00000001400010C5: FE C2              inc         dl
  00000001400010C7: FF C3              inc         ebx
  00000001400010C9: 42 89 5C 28 04     mov         dword ptr [rax+r13+4],ebx
  00000001400010CE: 42 8B 5C 30 18     mov         ebx,dword ptr [rax+r14+18h]
  00000001400010D3: FF C3              inc         ebx
  00000001400010D5: 42 89 5C 28 18     mov         dword ptr [rax+r13+18h],ebx
  00000001400010DA: 42 8B 5C 30 1C     mov         ebx,dword ptr [rax+r14+1Ch]
  00000001400010DF: FF C3              inc         ebx
  00000001400010E1: 42 89 5C 28 1C     mov         dword ptr [rax+r13+1Ch],ebx
  00000001400010E6: 42 8B 5C 30 20     mov         ebx,dword ptr [rax+r14+20h]
  00000001400010EB: FF C3              inc         ebx
  00000001400010ED: 42 89 5C 28 20     mov         dword ptr [rax+r13+20h],ebx
  00000001400010F2: 42 8B 5C 30 24     mov         ebx,dword ptr [rax+r14+24h]
  00000001400010F7: FF C3              inc         ebx
  00000001400010F9: 42 89 5C 28 24     mov         dword ptr [rax+r13+24h],ebx
  00000001400010FE: 42 8B 5C 30 28     mov         ebx,dword ptr [rax+r14+28h]
  0000000140001103: FF C3              inc         ebx
  0000000140001105: 42 89 5C 28 28     mov         dword ptr [rax+r13+28h],ebx
  000000014000110A: 42 8B 5C 30 2C     mov         ebx,dword ptr [rax+r14+2Ch]
  000000014000110F: FF C3              inc         ebx
  0000000140001111: 42 89 5C 28 2C     mov         dword ptr [rax+r13+2Ch],ebx
  0000000140001116: 42 8B 5C 30 30     mov         ebx,dword ptr [rax+r14+30h]
  000000014000111B: FF C3              inc         ebx
  000000014000111D: 42 89 5C 28 30     mov         dword ptr [rax+r13+30h],ebx
  0000000140001122: 42 8B 5C 30 34     mov         ebx,dword ptr [rax+r14+34h]
  0000000140001127: FF C3              inc         ebx
  0000000140001129: 42 89 5C 28 34     mov         dword ptr [rax+r13+34h],ebx
  000000014000112E: 42 8B 5C 30 38     mov         ebx,dword ptr [rax+r14+38h]
  0000000140001133: FF C3              inc         ebx
  0000000140001135: 42 89 5C 28 38     mov         dword ptr [rax+r13+38h],ebx
  000000014000113A: 42 8B 5C 30 3C     mov         ebx,dword ptr [rax+r14+3Ch]
  000000014000113F: FF C3              inc         ebx
  0000000140001141: 42 89 5C 28 3C     mov         dword ptr [rax+r13+3Ch],ebx
  0000000140001146: 46 8B 44 30 08     mov         r8d,dword ptr [rax+r14+8]
  000000014000114B: 46 8B 4C 30 0C     mov         r9d,dword ptr [rax+r14+0Ch]
  0000000140001150: 41 FF C0           inc         r8d
  0000000140001153: 46 8B 54 30 10     mov         r10d,dword ptr [rax+r14+10h]
  0000000140001158: 41 FF C1           inc         r9d
  000000014000115B: 46 8B 5C 30 14     mov         r11d,dword ptr [rax+r14+14h]
  0000000140001160: 41 FF C2           inc         r10d
  0000000140001163: 42 8B 5C 30 40     mov         ebx,dword ptr [rax+r14+40h]
  0000000140001168: 41 FF C3           inc         r11d
  000000014000116B: FF C3              inc         ebx
  000000014000116D: 46 89 44 28 08     mov         dword ptr [rax+r13+8],r8d
  0000000140001172: 46 89 4C 28 0C     mov         dword ptr [rax+r13+0Ch],r9d
  0000000140001177: 46 89 54 28 10     mov         dword ptr [rax+r13+10h],r10d
  000000014000117C: 46 89 5C 28 14     mov         dword ptr [rax+r13+14h],r11d
  0000000140001181: 42 89 5C 28 40     mov         dword ptr [rax+r13+40h],ebx
  0000000140001186: 48 83 C0 40        add         rax,40h
  000000014000118A: 80 FA 3E           cmp         dl,3Eh
  000000014000118D: 0F 82 2D FF FF FF  jb          00000001400010C0
  0000000140001193: B8 E0 03 00 00     mov         eax,3E0h
  0000000140001198: 41 8B 54 86 04     mov         edx,dword ptr [r14+rax*4+4]
  000000014000119D: FF C2              inc         edx
  000000014000119F: 41 89 54 85 04     mov         dword ptr [r13+rax*4+4],edx
  00000001400011A4: 48 FF C0           inc         rax
  00000001400011A7: 48 3D E7 03 00 00  cmp         rax,3E7h
  00000001400011AD: 72 E9              jb          0000000140001198
  00000001400011AF: 90                 nop
  00000001400011B0: 90                 nop
  00000001400011B1: 3B C3              cmp         eax,ebx
  00000001400011B3: 3B CA              cmp         ecx,edx
  00000001400011B5: 90                 nop
  00000001400011B6: 90                 nop
  00000001400011B7: 48 8D 0D 02 81 00  lea         rcx,[00000001400092C0h]
                    00
  00000001400011BE: 41 8B 56 20        mov         edx,dword ptr [r14+20h]
  00000001400011C2: 45 8B 45 40        mov         r8d,dword ptr [r13+40h]
  00000001400011C6: E8 75 00 00 00     call        0000000140001240
  00000001400011CB: 4C 89 F1           mov         rcx,r14
  00000001400011CE: E8 09 56 00 00     call        00000001400067DC
  00000001400011D3: 4C 89 E9           mov         rcx,r13
  00000001400011D6: E8 01 56 00 00     call        00000001400067DC
  00000001400011DB: 48 8B 5D 08        mov         rbx,qword ptr [rbp+8]
  00000001400011DF: 33 C0              xor         eax,eax
  00000001400011E1: 4C 8B 6D 18        mov         r13,qword ptr [rbp+18h]
  00000001400011E5: 4C 8B 75 10        mov         r14,qword ptr [rbp+10h]
  00000001400011E9: 48 8D 65 30        lea         rsp,[rbp+30h]
  00000001400011ED: 5D                 pop         rbp
  00000001400011EE: C3                 ret
  00000001400011EF: 55                 push        rbp
  00000001400011F0: 48 83 EC 50        sub         rsp,50h
  00000001400011F4: 48 8D 6A 20        lea         rbp,[rdx+20h]
  00000001400011F8: 83 7D 28 00        cmp         dword ptr [rbp+28h],0
  00000001400011FC: 74 0E              je          000000014000120C
  00000001400011FE: BA A0 0F 00 00     mov         edx,0FA0h
  0000000140001203: 48 8B 4D 20        mov         rcx,qword ptr [rbp+20h]
  0000000140001207: E8 D8 55 00 00     call        00000001400067E4
  000000014000120C: 48 83 C4 50        add         rsp,50h
  0000000140001210: 5D                 pop         rbp
  0000000140001211: C3                 ret
  0000000140001212: 55                 push        rbp
  0000000140001213: 48 83 EC 50        sub         rsp,50h
  0000000140001217: 48 8D 6A 20        lea         rbp,[rdx+20h]
  000000014000121B: 83 7D 28 00        cmp         dword ptr [rbp+28h],0
  000000014000121F: 74 0E              je          000000014000122F
  0000000140001221: BA A0 0F 00 00     mov         edx,0FA0h
  0000000140001226: 48 8B 4D 20        mov         rcx,qword ptr [rbp+20h]
  000000014000122A: E8 B5 55 00 00     call        00000001400067E4
  000000014000122F: 48 83 C4 50        add         rsp,50h
  0000000140001233: 5D                 pop         rbp
  0000000140001234: C3                 ret
  0000000140001235: 0F 1F 40 00        nop         dword ptr [rax]
  0000000140001239: 0F 1F 80 00 00 00  nop         dword ptr [rax+0000000000000000h]
                    00
  0000000140001240: 41 57              push        r15
  0000000140001242: 48 83 EC 40        sub         rsp,40h
  0000000140001246: 48 89 4C 24 50     mov         qword ptr [rsp+50h],rcx
  000000014000124B: 48 8D 44 24 58     lea         rax,[rsp+58h]
  0000000140001250: 48 89 10           mov         qword ptr [rax],rdx
  0000000140001253: 4C 89 40 08        mov         qword ptr [rax+8],r8
  0000000140001257: 4C 89 48 10        mov         qword ptr [rax+10h],r9
  000000014000125B: 48 89 44 24 30     mov         qword ptr [rsp+30h],rax
  0000000140001260: B9 01 00 00 00     mov         ecx,1
  0000000140001265: FF 15 7D 7F 00 00  call        qword ptr [00000001400091E8h]
  000000014000126B: 49 89 C7           mov         r15,rax
  000000014000126E: E8 3D 00 00 00     call        00000001400012B0
  0000000140001273: 49 89 C2           mov         r10,rax
  0000000140001276: 49 89 E1           mov         r9,rsp
  0000000140001279: 48 8B 44 24 30     mov         rax,qword ptr [rsp+30h]
  000000014000127E: 4C 89 FA           mov         rdx,r15
  0000000140001281: 4C 8B 44 24 50     mov         r8,qword ptr [rsp+50h]
  0000000140001286: 49 89 41 20        mov         qword ptr [r9+20h],rax
  000000014000128A: 45 33 C9           xor         r9d,r9d
  000000014000128D: 49 8B 0A           mov         rcx,qword ptr [r10]
  0000000140001290: FF 15 4A 7F 00 00  call        qword ptr [00000001400091E0h]
  0000000140001296: 48 C7 44 24 30 00  mov         qword ptr [rsp+30h],0
                    00 00 00
  000000014000129F: 48 83 C4 40        add         rsp,40h
  00000001400012A3: 41 5F              pop         r15
  00000001400012A5: C3                 ret
  00000001400012A6: 0F 1F 00           nop         dword ptr [rax]
  00000001400012A9: 0F 1F 80 00 00 00  nop         dword ptr [rax+0000000000000000h]
                    00
  00000001400012B0: 48 8D 05 89 B6 00  lea         rax,[000000014000C940h]
                    00
  00000001400012B7: C3                 ret
  00000001400012B8: 0F 1F 84 00 00 00  nop         dword ptr [rax+rax+0000000000000000h]
                    00 00
  00000001400012C0: 41 54              push        r12
  00000001400012C2: 48 83 EC 20        sub         rsp,20h
  00000001400012C6: 41 89 CC           mov         r12d,ecx
  00000001400012C9: 33 C9              xor         ecx,ecx
  00000001400012CB: E8 70 00 00 00     call        0000000140001340
  00000001400012D0: 48 8D 0D E9 BC 00  lea         rcx,[000000014000CFC0h]
                    00
  00000001400012D7: BA 06 00 00 00     mov         edx,6
  00000001400012DC: E8 0F 08 00 00     call        0000000140001AF0
  00000001400012E1: 83 F8 01           cmp         eax,1
  00000001400012E4: 74 45              je          000000014000132B
  00000001400012E6: 85 C0              test        eax,eax
  00000001400012E8: 7C 07              jl          00000001400012F1
  00000001400012EA: 48 83 C4 20        add         rsp,20h
  00000001400012EE: 41 5C              pop         r12
  00000001400012F0: C3                 ret
  00000001400012F1: 33 D2              xor         edx,edx
  00000001400012F3: B9 01 00 00 00     mov         ecx,1
  00000001400012F8: 45 33 C0           xor         r8d,r8d
  00000001400012FB: E8 A0 1F 00 00     call        00000001400032A0
  0000000140001300: B9 01 00 00 00     mov         ecx,1
  0000000140001305: BA 3A 00 00 00     mov         edx,3Ah
  000000014000130A: 45 33 C0           xor         r8d,r8d
  000000014000130D: E8 8E 1F 00 00     call        00000001400032A0
  0000000140001312: 33 D2              xor         edx,edx
  0000000140001314: B9 01 00 00 00     mov         ecx,1
  0000000140001319: 45 33 C0           xor         r8d,r8d
  000000014000131C: E8 7F 1F 00 00     call        00000001400032A0
  0000000140001321: B9 01 00 00 00     mov         ecx,1
  0000000140001326: E8 8B 6B 00 00     call        0000000140007EB6
  000000014000132B: 33 C9              xor         ecx,ecx
  000000014000132D: 44 89 E2           mov         edx,r12d
  0000000140001330: 48 83 C4 20        add         rsp,20h
  0000000140001334: 41 5C              pop         r12
  0000000140001336: E9 B5 21 00 00     jmp         00000001400034F0
  000000014000133B: 0F 1F 44 00 00     nop         dword ptr [rax+rax]
  0000000140001340: 53                 push        rbx
  0000000140001341: 56                 push        rsi
  0000000140001342: 48 81 EC 68 04 00  sub         rsp,468h
                    00
  0000000140001349: 48 89 D6           mov         rsi,rdx
  000000014000134C: 48 8B 05 D5 AC 00  mov         rax,qword ptr [000000014000C028h]
                    00
  0000000140001353: 66 0F EF C0        pxor        xmm0,xmm0
  0000000140001357: 48 33 C4           xor         rax,rsp
  000000014000135A: 48 89 84 24 60 04  mov         qword ptr [rsp+0000000000000460h],rax
                    00 00
  0000000140001362: 48 63 D9           movsxd      rbx,ecx
  0000000140001365: F3 0F 7F 44 24 50  movdqu      xmmword ptr [rsp+50h],xmm0
  000000014000136B: 48 83 3D 4D BC 00  cmp         qword ptr [000000014000CFC0h],0
                    00 00
  0000000140001373: 0F 84 91 03 00 00  je          000000014000170A
  0000000140001379: 48 83 FB 02        cmp         rbx,2
  000000014000137D: 0F 8D 97 02 00 00  jge         000000014000161A
  0000000140001383: 48 8D 05 76 EC FF  lea         rax,[0000000140000000h]
                    FF
  000000014000138A: 48 89 F2           mov         rdx,rsi
  000000014000138D: 48 8B 84 D8 C0 CF  mov         rax,qword ptr [rax+rbx*8+000000000000CFC0h]
                    00 00
  0000000140001395: 48 23 D0           and         rdx,rax
  0000000140001398: 48 3B D6           cmp         rdx,rsi
  000000014000139B: 75 2E              jne         00000001400013CB
  000000014000139D: 48 8B 8C 24 60 04  mov         rcx,qword ptr [rsp+0000000000000460h]
                    00 00
  00000001400013A5: 48 C7 84 24 60 04  mov         qword ptr [rsp+0000000000000460h],0
                    00 00 00 00 00 00
  00000001400013B1: 48 33 CC           xor         rcx,rsp
  00000001400013B4: 48 3B 0D 6D AC 00  cmp         rcx,qword ptr [000000014000C028h]
                    00
  00000001400013BB: 0F 85 6A 02 00 00  jne         000000014000162B
  00000001400013C1: 48 81 C4 68 04 00  add         rsp,468h
                    00
  00000001400013C8: 5E                 pop         rsi
  00000001400013C9: 5B                 pop         rbx
  00000001400013CA: C3                 ret
  00000001400013CB: 48 F7 D0           not         rax
  00000001400013CE: B9 39 00 00 00     mov         ecx,39h
  00000001400013D3: 48 23 C6           and         rax,rsi
  00000001400013D6: 33 F6              xor         esi,esi
  00000001400013D8: 33 D2              xor         edx,edx
  00000001400013DA: 48 89 44 DC 50     mov         qword ptr [rsp+rbx*8+50h],rax
  00000001400013DF: E8 8C 1C 00 00     call        0000000140003070
  00000001400013E4: 90                 nop
  00000001400013E5: BB 01 00 00 00     mov         ebx,1
  00000001400013EA: C6 44 24 60 00     mov         byte ptr [rsp+60h],0
  00000001400013EF: 48 89 7C 24 48     mov         qword ptr [rsp+48h],rdi
  00000001400013F4: 4C 89 64 24 40     mov         qword ptr [rsp+40h],r12
  00000001400013F9: 49 89 F4           mov         r12,rsi
  00000001400013FC: 4C 89 6C 24 38     mov         qword ptr [rsp+38h],r13
  0000000140001401: 49 89 C5           mov         r13,rax
  0000000140001404: 4C 89 74 24 30     mov         qword ptr [rsp+30h],r14
  0000000140001409: 4C 89 7C 24 28     mov         qword ptr [rsp+28h],r15
  000000014000140E: 49 89 F7           mov         r15,rsi
  0000000140001411: 48 89 6C 24 20     mov         qword ptr [rsp+20h],rbp
  0000000140001416: 89 D8              mov         eax,ebx
  0000000140001418: E8 93 04 00 00     call        00000001400018B0
  000000014000141D: 85 C0              test        eax,eax
  000000014000141F: 0F 8C 1A 01 00 00  jl          000000014000153F
  0000000140001425: 89 DA              mov         edx,ebx
  0000000140001427: 48 8D 4C 24 50     lea         rcx,[rsp+50h]
  000000014000142C: E8 BF 06 00 00     call        0000000140001AF0
  0000000140001431: 85 C0              test        eax,eax
  0000000140001433: 0F 84 06 01 00 00  je          000000014000153F
  0000000140001439: 89 DA              mov         edx,ebx
  000000014000143B: 48 8D 4C 24 50     lea         rcx,[rsp+50h]
  0000000140001440: E8 AB 06 00 00     call        0000000140001AF0
  0000000140001445: 85 C0              test        eax,eax
  0000000140001447: 0F 8C 8A 02 00 00  jl          00000001400016D7
  000000014000144D: 89 D9              mov         ecx,ebx
  000000014000144F: E8 1C 04 00 00     call        0000000140001870
  0000000140001454: 49 89 C6           mov         r14,rax
  0000000140001457: 4D 85 F6           test        r14,r14
  000000014000145A: 0F 84 44 02 00 00  je          00000001400016A4
  0000000140001460: 41 80 3E 00        cmp         byte ptr [r14],0
  0000000140001464: 0F 84 3A 02 00 00  je          00000001400016A4
  000000014000146A: 80 7C 24 60 00     cmp         byte ptr [rsp+60h],0
  000000014000146F: 0F 84 A3 00 00 00  je          0000000140001518
  0000000140001475: 4D 85 FF           test        r15,r15
  0000000140001478: 0F 84 95 00 00 00  je          0000000140001513
  000000014000147E: 4C 89 F9           mov         rcx,r15
  0000000140001481: E8 8A 6A 00 00     call        0000000140007F10
  0000000140001486: 48 89 C6           mov         rsi,rax
  0000000140001489: 48 8D 0D F0 7E 00  lea         rcx,[0000000140009380h]
                    00
  0000000140001490: E8 7B 6A 00 00     call        0000000140007F10
  0000000140001495: 48 89 C5           mov         rbp,rax
  0000000140001498: 4C 89 E9           mov         rcx,r13
  000000014000149B: E8 70 6A 00 00     call        0000000140007F10
  00000001400014A0: 48 89 C7           mov         rdi,rax
  00000001400014A3: 4C 89 F1           mov         rcx,r14
  00000001400014A6: E8 65 6A 00 00     call        0000000140007F10
  00000001400014AB: 49 03 F4           add         rsi,r12
  00000001400014AE: 48 03 F5           add         rsi,rbp
  00000001400014B1: 48 03 F7           add         rsi,rdi
  00000001400014B4: 48 03 F0           add         rsi,rax
  00000001400014B7: 48 81 FE 00 04 00  cmp         rsi,400h
                    00
  00000001400014BE: 0F 83 6D 01 00 00  jae         0000000140001631
  00000001400014C4: 49 F7 DC           neg         r12
  00000001400014C7: 48 8D 4C 24 60     lea         rcx,[rsp+60h]
  00000001400014CC: 49 81 C4 FF 03 00  add         r12,3FFh
                    00
  00000001400014D3: 48 8D 15 A6 7E 00  lea         rdx,[0000000140009380h]
                    00
  00000001400014DA: 4D 89 E0           mov         r8,r12
  00000001400014DD: E8 34 6A 00 00     call        0000000140007F16
  00000001400014E2: 48 8D 4C 24 60     lea         rcx,[rsp+60h]
  00000001400014E7: E8 24 6A 00 00     call        0000000140007F10
  00000001400014EC: 4C 63 C0           movsxd      r8,eax
  00000001400014EF: 48 8D 4C 24 60     lea         rcx,[rsp+60h]
  00000001400014F4: 49 F7 D8           neg         r8
  00000001400014F7: 4C 89 FA           mov         rdx,r15
  00000001400014FA: 49 81 C0 FF 03 00  add         r8,3FFh
                    00
  0000000140001501: E8 10 6A 00 00     call        0000000140007F16
  0000000140001506: 48 8D 4C 24 60     lea         rcx,[rsp+60h]
  000000014000150B: E8 00 6A 00 00     call        0000000140007F10
  0000000140001510: 4C 63 E0           movsxd      r12,eax
  0000000140001513: 4D 89 F7           mov         r15,r14
  0000000140001516: EB 27              jmp         000000014000153F
  0000000140001518: 49 F7 DC           neg         r12
  000000014000151B: 48 8D 4C 24 60     lea         rcx,[rsp+60h]
  0000000140001520: 49 81 C4 FF 03 00  add         r12,3FFh
                    00
  0000000140001527: 4C 89 F2           mov         rdx,r14
  000000014000152A: 4D 89 E0           mov         r8,r12
  000000014000152D: E8 E4 69 00 00     call        0000000140007F16
  0000000140001532: 48 8D 4C 24 60     lea         rcx,[rsp+60h]
  0000000140001537: E8 D4 69 00 00     call        0000000140007F10
  000000014000153C: 4C 63 E0           movsxd      r12,eax
  000000014000153F: FF C3              inc         ebx
  0000000140001541: 83 FB 40           cmp         ebx,40h
  0000000140001544: 0F 8C CC FE FF FF  jl          0000000140001416
  000000014000154A: 4C 89 FE           mov         rsi,r15
  000000014000154D: 4D 89 E0           mov         r8,r12
  0000000140001550: 48 8B 7C 24 48     mov         rdi,qword ptr [rsp+48h]
  0000000140001555: 4C 89 E8           mov         rax,r13
  0000000140001558: 4C 8B 64 24 40     mov         r12,qword ptr [rsp+40h]
  000000014000155D: 4C 8B 6C 24 38     mov         r13,qword ptr [rsp+38h]
  0000000140001562: 4C 8B 74 24 30     mov         r14,qword ptr [rsp+30h]
  0000000140001567: 4C 8B 7C 24 28     mov         r15,qword ptr [rsp+28h]
  000000014000156C: 48 8B 6C 24 20     mov         rbp,qword ptr [rsp+20h]
  0000000140001571: 48 85 F6           test        rsi,rsi
  0000000140001574: 74 3B              je          00000001400015B1
  0000000140001576: 49 F7 D8           neg         r8
  0000000140001579: 48 8D 4C 24 60     lea         rcx,[rsp+60h]
  000000014000157E: 49 81 C0 FF 03 00  add         r8,3FFh
                    00
  0000000140001585: 48 89 C2           mov         rdx,rax
  0000000140001588: E8 89 69 00 00     call        0000000140007F16
  000000014000158D: 48 8D 4C 24 60     lea         rcx,[rsp+60h]
  0000000140001592: E8 79 69 00 00     call        0000000140007F10
  0000000140001597: 4C 63 C0           movsxd      r8,eax
  000000014000159A: 48 8D 4C 24 60     lea         rcx,[rsp+60h]
  000000014000159F: 49 F7 D8           neg         r8
  00000001400015A2: 48 89 F2           mov         rdx,rsi
  00000001400015A5: 49 81 C0 FF 03 00  add         r8,3FFh
                    00
  00000001400015AC: E8 65 69 00 00     call        0000000140007F16
  00000001400015B1: 80 7C 24 60 00     cmp         byte ptr [rsp+60h],0
  00000001400015B6: 75 3A              jne         00000001400015F2
  00000001400015B8: 33 D2              xor         edx,edx
  00000001400015BA: B9 01 00 00 00     mov         ecx,1
  00000001400015BF: 45 33 C0           xor         r8d,r8d
  00000001400015C2: E8 D9 1C 00 00     call        00000001400032A0
  00000001400015C7: B9 01 00 00 00     mov         ecx,1
  00000001400015CC: BA 3A 00 00 00     mov         edx,3Ah
  00000001400015D1: 45 33 C0           xor         r8d,r8d
  00000001400015D4: E8 C7 1C 00 00     call        00000001400032A0
  00000001400015D9: 33 D2              xor         edx,edx
  00000001400015DB: B9 01 00 00 00     mov         ecx,1
  00000001400015E0: 45 33 C0           xor         r8d,r8d
  00000001400015E3: E8 B8 1C 00 00     call        00000001400032A0
  00000001400015E8: B9 01 00 00 00     mov         ecx,1
  00000001400015ED: E8 C4 68 00 00     call        0000000140007EB6
  00000001400015F2: 33 D2              xor         edx,edx
  00000001400015F4: B9 01 00 00 00     mov         ecx,1
  00000001400015F9: 45 33 C0           xor         r8d,r8d
  00000001400015FC: E8 9F 1C 00 00     call        00000001400032A0
  0000000140001601: B9 01 00 00 00     mov         ecx,1
  0000000140001606: BA 38 00 00 00     mov         edx,38h
  000000014000160B: 41 89 C8           mov         r8d,ecx
  000000014000160E: 4C 8D 4C 24 60     lea         r9,[rsp+60h]
  0000000140001613: E8 88 1C 00 00     call        00000001400032A0
  0000000140001618: EB BF              jmp         00000001400015D9
  000000014000161A: 33 D2              xor         edx,edx
  000000014000161C: B9 01 00 00 00     mov         ecx,1
  0000000140001621: 45 33 C0           xor         r8d,r8d
  0000000140001624: E8 77 1C 00 00     call        00000001400032A0
  0000000140001629: EB 9C              jmp         00000001400015C7
  000000014000162B: E8 20 69 00 00     call        0000000140007F50
  0000000140001630: 90                 nop
  0000000140001631: 4D 89 E0           mov         r8,r12
  0000000140001634: 4C 89 E8           mov         rax,r13
  0000000140001637: 49 F7 D8           neg         r8
  000000014000163A: 48 8D 4C 24 60     lea         rcx,[rsp+60h]
  000000014000163F: 49 81 C0 FF 03 00  add         r8,3FFh
                    00
  0000000140001646: 48 89 C2           mov         rdx,rax
  0000000140001649: 48 8B 7C 24 48     mov         rdi,qword ptr [rsp+48h]
  000000014000164E: 4C 89 FE           mov         rsi,r15
  0000000140001651: 4C 8B 64 24 40     mov         r12,qword ptr [rsp+40h]
  0000000140001656: 4C 8B 6C 24 38     mov         r13,qword ptr [rsp+38h]
  000000014000165B: 4C 8B 74 24 30     mov         r14,qword ptr [rsp+30h]
  0000000140001660: 4C 8B 7C 24 28     mov         r15,qword ptr [rsp+28h]
  0000000140001665: 48 8B 6C 24 20     mov         rbp,qword ptr [rsp+20h]
  000000014000166A: E8 A7 68 00 00     call        0000000140007F16
  000000014000166F: 90                 nop
  0000000140001670: 48 8D 4C 24 60     lea         rcx,[rsp+60h]
  0000000140001675: E8 96 68 00 00     call        0000000140007F10
  000000014000167A: 4C 63 C0           movsxd      r8,eax
  000000014000167D: 48 8D 4C 24 60     lea         rcx,[rsp+60h]
  0000000140001682: 49 F7 D8           neg         r8
  0000000140001685: 48 89 F2           mov         rdx,rsi
  0000000140001688: 49 81 C0 FF 03 00  add         r8,3FFh
                    00
  000000014000168F: E8 82 68 00 00     call        0000000140007F16
  0000000140001694: 48 8D 4C 24 60     lea         rcx,[rsp+60h]
  0000000140001699: E8 72 68 00 00     call        0000000140007F10
  000000014000169E: 90                 nop
  000000014000169F: E9 0D FF FF FF     jmp         00000001400015B1
  00000001400016A4: 48 8B 7C 24 48     mov         rdi,qword ptr [rsp+48h]
  00000001400016A9: 4C 8B 64 24 40     mov         r12,qword ptr [rsp+40h]
  00000001400016AE: 4C 8B 6C 24 38     mov         r13,qword ptr [rsp+38h]
  00000001400016B3: 4C 8B 74 24 30     mov         r14,qword ptr [rsp+30h]
  00000001400016B8: 4C 8B 7C 24 28     mov         r15,qword ptr [rsp+28h]
  00000001400016BD: 48 8B 6C 24 20     mov         rbp,qword ptr [rsp+20h]
  00000001400016C2: 33 D2              xor         edx,edx
  00000001400016C4: B9 01 00 00 00     mov         ecx,1
  00000001400016C9: 45 33 C0           xor         r8d,r8d
  00000001400016CC: E8 CF 1B 00 00     call        00000001400032A0
  00000001400016D1: 90                 nop
  00000001400016D2: E9 F0 FE FF FF     jmp         00000001400015C7
  00000001400016D7: 33 D2              xor         edx,edx
  00000001400016D9: B9 01 00 00 00     mov         ecx,1
  00000001400016DE: 45 33 C0           xor         r8d,r8d
  00000001400016E1: 48 8B 7C 24 48     mov         rdi,qword ptr [rsp+48h]
  00000001400016E6: 4C 8B 64 24 40     mov         r12,qword ptr [rsp+40h]
  00000001400016EB: 4C 8B 6C 24 38     mov         r13,qword ptr [rsp+38h]
  00000001400016F0: 4C 8B 74 24 30     mov         r14,qword ptr [rsp+30h]
  00000001400016F5: 4C 8B 7C 24 28     mov         r15,qword ptr [rsp+28h]
  00000001400016FA: 48 8B 6C 24 20     mov         rbp,qword ptr [rsp+20h]
  00000001400016FF: E8 9C 1B 00 00     call        00000001400032A0
  0000000140001704: 90                 nop
  0000000140001705: E9 BD FE FF FF     jmp         00000001400015C7
  000000014000170A: E8 61 0E 00 00     call        0000000140002570
  000000014000170F: 85 C0              test        eax,eax
  0000000140001711: 75 0E              jne         0000000140001721
  0000000140001713: 48 83 3D A5 B8 00  cmp         qword ptr [000000014000CFC0h],0
                    00 00
  000000014000171B: 0F 85 58 FC FF FF  jne         0000000140001379
  0000000140001721: 33 D2              xor         edx,edx
  0000000140001723: B9 01 00 00 00     mov         ecx,1
  0000000140001728: 45 33 C0           xor         r8d,r8d
  000000014000172B: E8 70 1B 00 00     call        00000001400032A0
  0000000140001730: B9 01 00 00 00     mov         ecx,1
  0000000140001735: BA 3B 00 00 00     mov         edx,3Bh
  000000014000173A: 45 33 C0           xor         r8d,r8d
  000000014000173D: E8 5E 1B 00 00     call        00000001400032A0
  0000000140001742: 90                 nop
  0000000140001743: E9 91 FE FF FF     jmp         00000001400015D9
  0000000140001748: 0F 1F 84 00 00 00  nop         dword ptr [rax+rax+0000000000000000h]
                    00 00
  0000000140001750: 48 8D 05 17 67 00  lea         rax,[0000000140007E6Eh]
                    00
  0000000140001757: C3                 ret
  0000000140001758: 0F 1F 84 00 00 00  nop         dword ptr [rax+rax+0000000000000000h]
                    00 00
  0000000140001760: 48 8D 05 F9 5C 00  lea         rax,[0000000140007460h]
                    00
  0000000140001767: C3                 ret
  0000000140001768: 0F 1F 84 00 00 00  nop         dword ptr [rax+rax+0000000000000000h]
                    00 00
  0000000140001770: 48 8D 05 A9 1E 00  lea         rax,[0000000140003620h]
                    00
  0000000140001777: C3                 ret
  0000000140001778: 0F 1F 84 00 00 00  nop         dword ptr [rax+rax+0000000000000000h]
                    00 00
  0000000140001780: 48 8D 05 79 2F 00  lea         rax,[0000000140004700h]
                    00
  0000000140001787: C3                 ret
  0000000140001788: 0F 1F 84 00 00 00  nop         dword ptr [rax+rax+0000000000000000h]
                    00 00
  0000000140001790: 48 8B 05 19 B2 00  mov         rax,qword ptr [000000014000C9B0h]
                    00
  0000000140001797: 48 85 C0           test        rax,rax
  000000014000179A: 74 02              je          000000014000179E
  000000014000179C: FF E0              jmp         rax
  000000014000179E: E9 0D 00 00 00     jmp         00000001400017B0
  00000001400017A3: 0F 1F 44 00 00     nop         dword ptr [rax+rax]
  00000001400017A8: 0F 1F 84 00 00 00  nop         dword ptr [rax+rax+0000000000000000h]
                    00 00
  00000001400017B0: 41 55              push        r13
  00000001400017B2: 41 56              push        r14
  00000001400017B4: 41 57              push        r15
  00000001400017B6: 48 83 EC 20        sub         rsp,20h
  00000001400017BA: 4D 89 C7           mov         r15,r8
  00000001400017BD: 41 89 D6           mov         r14d,edx
  00000001400017C0: 49 89 CD           mov         r13,rcx
  00000001400017C3: E8 28 00 00 00     call        00000001400017F0
  00000001400017C8: 48 89 05 E1 B1 00  mov         qword ptr [000000014000C9B0h],rax
                    00
  00000001400017CF: 4C 89 E9           mov         rcx,r13
  00000001400017D2: 44 89 F2           mov         edx,r14d
  00000001400017D5: 4D 89 F8           mov         r8,r15
  00000001400017D8: 48 83 C4 20        add         rsp,20h
  00000001400017DC: 41 5F              pop         r15
  00000001400017DE: 41 5E              pop         r14
  00000001400017E0: 41 5D              pop         r13
  00000001400017E2: FF E0              jmp         rax
  00000001400017E4: 0F 1F 44 00 00     nop         dword ptr [rax+rax]
  00000001400017E9: 0F 1F 80 00 00 00  nop         dword ptr [rax+0000000000000000h]
                    00
  00000001400017F0: 48 83 EC 08        sub         rsp,8
  00000001400017F4: 48 B9 FF 97 9D 18  mov         rcx,7189D97FFh
                    07 00 00 00
  00000001400017FE: 48 8B 05 BB B7 00  mov         rax,qword ptr [000000014000CFC0h]
                    00
  0000000140001805: 48 23 C1           and         rax,rcx
  0000000140001808: 48 3B C1           cmp         rax,rcx
  000000014000180B: 75 09              jne         0000000140001816
  000000014000180D: 48 83 C4 08        add         rsp,8
  0000000140001811: E9 6A FF FF FF     jmp         0000000140001780
  0000000140001816: 8B 05 A4 B7 00 00  mov         eax,dword ptr [000000014000CFC0h]
  000000014000181C: 25 FF 97 9D 00     and         eax,9D97FFh
  0000000140001821: 3D FF 97 9D 00     cmp         eax,9D97FFh
  0000000140001826: 75 09              jne         0000000140001831
  0000000140001828: 48 83 C4 08        add         rsp,8
  000000014000182C: E9 3F FF FF FF     jmp         0000000140001770
  0000000140001831: 8A 15 89 B7 00 00  mov         dl,byte ptr [000000014000CFC0h]
  0000000140001837: 88 D0              mov         al,dl
  0000000140001839: 24 7F              and         al,7Fh
  000000014000183B: 3C 7F              cmp         al,7Fh
  000000014000183D: 75 09              jne         0000000140001848
  000000014000183F: 48 83 C4 08        add         rsp,8
  0000000140001843: E9 18 FF FF FF     jmp         0000000140001760
  0000000140001848: 80 E2 7F           and         dl,7Fh
  000000014000184B: 80 FA 7F           cmp         dl,7Fh
  000000014000184E: 74 EF              je          000000014000183F
  0000000140001850: F6 05 69 B7 00 00  test        byte ptr [000000014000CFC0h],1
                    01
  0000000140001857: 74 09              je          0000000140001862
  0000000140001859: 48 83 C4 08        add         rsp,8
  000000014000185D: E9 EE FE FF FF     jmp         0000000140001750
  0000000140001862: E8 09 0D 00 00     call        0000000140002570
  0000000140001867: EB 95              jmp         00000001400017FE
  0000000140001869: 0F 1F 80 00 00 00  nop         dword ptr [rax+0000000000000000h]
                    00
  0000000140001870: 48 83 EC 28        sub         rsp,28h
  0000000140001874: 83 3D 65 B7 00 00  cmp         dword ptr [000000014000CFE0h],0
                    00
  000000014000187B: 74 1B              je          0000000140001898
  000000014000187D: 48 63 C9           movsxd      rcx,ecx
  0000000140001880: 48 8D 05 79 E7 FF  lea         rax,[0000000140000000h]
                    FF
  0000000140001887: 48 8D 14 49        lea         rdx,[rcx+rcx*2]
  000000014000188B: 48 8B 84 D0 C0 C9  mov         rax,qword ptr [rax+rdx*8+000000000000C9C0h]
                    00 00
  0000000140001893: 48 83 C4 28        add         rsp,28h
  0000000140001897: C3                 ret
  0000000140001898: E8 73 03 00 00     call        0000000140001C10
  000000014000189D: 85 C0              test        eax,eax
  000000014000189F: 75 DC              jne         000000014000187D
  00000001400018A1: 33 C0              xor         eax,eax
  00000001400018A3: 48 83 C4 28        add         rsp,28h
  00000001400018A7: C3                 ret
  00000001400018A8: 0F 1F 84 00 00 00  nop         dword ptr [rax+rax+0000000000000000h]
                    00 00
  00000001400018B0: 41 52              push        r10
  00000001400018B2: 48 83 EC 20        sub         rsp,20h
  00000001400018B6: 41 89 C2           mov         r10d,eax
  00000001400018B9: 83 3D 20 B7 00 00  cmp         dword ptr [000000014000CFE0h],0
                    00
  00000001400018C0: 74 35              je          00000001400018F7
  00000001400018C2: 4D 63 D2           movsxd      r10,r10d
  00000001400018C5: 48 8D 05 34 E7 FF  lea         rax,[0000000140000000h]
                    FF
  00000001400018CC: 4F 8D 14 52        lea         r10,[r10+r10*2]
  00000001400018D0: 42 8B 84 D0 C8 C9  mov         eax,dword ptr [rax+r10*8+000000000000C9C8h]
                    00 00
  00000001400018D8: 83 F8 FF           cmp         eax,0FFFFFFFFh
  00000001400018DB: 7C 0E              jl          00000001400018EB
  00000001400018DD: 3D 80 00 00 00     cmp         eax,80h
  00000001400018E2: 7D 07              jge         00000001400018EB
  00000001400018E4: 48 83 C4 20        add         rsp,20h
  00000001400018E8: 41 5A              pop         r10
  00000001400018EA: C3                 ret
  00000001400018EB: B8 FD FF FF FF     mov         eax,0FFFFFFFDh
  00000001400018F0: 48 83 C4 20        add         rsp,20h
  00000001400018F4: 41 5A              pop         r10
  00000001400018F6: C3                 ret
  00000001400018F7: E8 14 03 00 00     call        0000000140001C10
  00000001400018FC: 85 C0              test        eax,eax
  00000001400018FE: 75 C2              jne         00000001400018C2
  0000000140001900: B8 FE FF FF FF     mov         eax,0FFFFFFFEh
  0000000140001905: 48 83 C4 20        add         rsp,20h
  0000000140001909: 41 5A              pop         r10
  000000014000190B: C3                 ret
  000000014000190C: 0F 1F 40 00        nop         dword ptr [rax]
  0000000140001910: 48 83 EC 58        sub         rsp,58h
  0000000140001914: 48 89 D0           mov         rax,rdx
  0000000140001917: 48 89 CA           mov         rdx,rcx
  000000014000191A: 45 33 D2           xor         r10d,r10d
  000000014000191D: 49 89 D1           mov         r9,rdx
  0000000140001920: 4C 8D 05 D9 E6 FF  lea         r8,[0000000140000000h]
                    FF
  0000000140001927: 49 F7 D9           neg         r9
  000000014000192A: 45 33 DB           xor         r11d,r11d
  000000014000192D: 48 85 D2           test        rdx,rdx
  0000000140001930: 0F 84 A9 01 00 00  je          0000000140001ADF
  0000000140001936: 48 85 C0           test        rax,rax
  0000000140001939: 0F 84 A0 01 00 00  je          0000000140001ADF
  000000014000193F: 8A 0A              mov         cl,byte ptr [rdx]
  0000000140001941: 84 C9              test        cl,cl
  0000000140001943: 0F 84 6C 01 00 00  je          0000000140001AB5
  0000000140001949: 80 F9 2C           cmp         cl,2Ch
  000000014000194C: 74 28              je          0000000140001976
  000000014000194E: 48 89 74 24 50     mov         qword ptr [rsp+50h],rsi
  0000000140001953: 48 89 7C 24 40     mov         qword ptr [rsp+40h],rdi
  0000000140001958: 4C 89 64 24 48     mov         qword ptr [rsp+48h],r12
  000000014000195D: 49 89 C4           mov         r12,rax
  0000000140001960: 4C 89 6C 24 20     mov         qword ptr [rsp+20h],r13
  0000000140001965: 4C 89 74 24 28     mov         qword ptr [rsp+28h],r14
  000000014000196A: 4C 89 7C 24 30     mov         qword ptr [rsp+30h],r15
  000000014000196F: 48 89 6C 24 38     mov         qword ptr [rsp+38h],rbp
  0000000140001974: EB 5A              jmp         00000001400019D0
  0000000140001976: 48 89 74 24 50     mov         qword ptr [rsp+50h],rsi
  000000014000197B: 48 89 7C 24 40     mov         qword ptr [rsp+40h],rdi
  0000000140001980: 4C 89 64 24 48     mov         qword ptr [rsp+48h],r12
  0000000140001985: 49 89 C4           mov         r12,rax
  0000000140001988: 4C 89 6C 24 20     mov         qword ptr [rsp+20h],r13
  000000014000198D: 4C 89 74 24 28     mov         qword ptr [rsp+28h],r14
  0000000140001992: 4C 89 7C 24 30     mov         qword ptr [rsp+30h],r15
  0000000140001997: 48 89 6C 24 38     mov         qword ptr [rsp+38h],rbp
  000000014000199C: 48 FF C2           inc         rdx
  000000014000199F: 49 FF C9           dec         r9
  00000001400019A2: 8A 0A              mov         cl,byte ptr [rdx]
  00000001400019A4: 80 F9 2C           cmp         cl,2Ch
  00000001400019A7: 75 27              jne         00000001400019D0
  00000001400019A9: 48 FF C2           inc         rdx
  00000001400019AC: 49 FF C9           dec         r9
  00000001400019AF: 8A 0A              mov         cl,byte ptr [rdx]
  00000001400019B1: 80 F9 2C           cmp         cl,2Ch
  00000001400019B4: 75 1A              jne         00000001400019D0
  00000001400019B6: 48 FF C2           inc         rdx
  00000001400019B9: 49 FF C9           dec         r9
  00000001400019BC: 8A 0A              mov         cl,byte ptr [rdx]
  00000001400019BE: 80 F9 2C           cmp         cl,2Ch
  00000001400019C1: 75 0D              jne         00000001400019D0
  00000001400019C3: 48 FF C2           inc         rdx
  00000001400019C6: 49 FF C9           dec         r9
  00000001400019C9: 8A 0A              mov         cl,byte ptr [rdx]
  00000001400019CB: 80 F9 2C           cmp         cl,2Ch
  00000001400019CE: 74 F3              je          00000001400019C3
  00000001400019D0: 84 C9              test        cl,cl
  00000001400019D2: 0F 84 BA 00 00 00  je          0000000140001A92
  00000001400019D8: 48 89 D6           mov         rsi,rdx
  00000001400019DB: 48 FF C2           inc         rdx
  00000001400019DE: 4C 89 C9           mov         rcx,r9
  00000001400019E1: 49 FF C9           dec         r9
  00000001400019E4: 40 8A 3A           mov         dil,byte ptr [rdx]
  00000001400019E7: 40 80 FF 2C        cmp         dil,2Ch
  00000001400019EB: 74 1B              je          0000000140001A08
  00000001400019ED: 40 84 FF           test        dil,dil
  00000001400019F0: 0F 84 D5 00 00 00  je          0000000140001ACB
  00000001400019F6: 49 89 D2           mov         r10,rdx
  00000001400019F9: 48 FF C2           inc         rdx
  00000001400019FC: 49 FF C9           dec         r9
  00000001400019FF: 40 8A 3A           mov         dil,byte ptr [rdx]
  0000000140001A02: 40 80 FF 2C        cmp         dil,2Ch
  0000000140001A06: 75 E5              jne         00000001400019ED
  0000000140001A08: 4A 8D 6C 11 01     lea         rbp,[rcx+r10+1]
  0000000140001A0D: 48 85 F6           test        rsi,rsi
  0000000140001A10: 74 8A              je          000000014000199C
  0000000140001A12: 48 85 ED           test        rbp,rbp
  0000000140001A15: 74 85              je          000000014000199C
  0000000140001A17: 83 3D C2 B5 00 00  cmp         dword ptr [000000014000CFE0h],0
                    00
  0000000140001A1E: 0F 84 99 00 00 00  je          0000000140001ABD
  0000000140001A24: B9 01 00 00 00     mov         ecx,1
  0000000140001A29: 41 BD 18 00 00 00  mov         r13d,18h
  0000000140001A2F: 4F 8B BC 28 D0 C9  mov         r15,qword ptr [r8+r13+000000000000C9D0h]
                    00 00
  0000000140001A37: 4D 85 FF           test        r15,r15
  0000000140001A3A: 74 21              je          0000000140001A5D
  0000000140001A3C: 45 33 F6           xor         r14d,r14d
  0000000140001A3F: 48 85 ED           test        rbp,rbp
  0000000140001A42: 76 12              jbe         0000000140001A56
  0000000140001A44: 41 8A 04 36        mov         al,byte ptr [r14+rsi]
  0000000140001A48: 43 3A 04 3E        cmp         al,byte ptr [r14+r15]
  0000000140001A4C: 75 0F              jne         0000000140001A5D
  0000000140001A4E: 49 FF C6           inc         r14
  0000000140001A51: 4C 3B F5           cmp         r14,rbp
  0000000140001A54: 72 EE              jb          0000000140001A44
  0000000140001A56: 41 80 3C 2F 00     cmp         byte ptr [r15+rbp],0
  0000000140001A5B: 74 0D              je          0000000140001A6A
  0000000140001A5D: FF C1              inc         ecx
  0000000140001A5F: 49 83 C5 18        add         r13,18h
  0000000140001A63: 83 F9 40           cmp         ecx,40h
  0000000140001A66: 7C C7              jl          0000000140001A2F
  0000000140001A68: EB 14              jmp         0000000140001A7E
  0000000140001A6A: 83 F9 01           cmp         ecx,1
  0000000140001A6D: 74 0F              je          0000000140001A7E
  0000000140001A6F: 4C 89 E0           mov         rax,r12
  0000000140001A72: E8 19 01 00 00     call        0000000140001B90
  0000000140001A77: 83 F8 01           cmp         eax,1
  0000000140001A7A: 49 83 D3 00        adc         r11,0
  0000000140001A7E: 40 84 FF           test        dil,dil
  0000000140001A81: 74 0F              je          0000000140001A92
  0000000140001A83: 40 80 FF 2C        cmp         dil,2Ch
  0000000140001A87: 0F 85 4B FF FF FF  jne         00000001400019D8
  0000000140001A8D: E9 0A FF FF FF     jmp         000000014000199C
  0000000140001A92: 48 8B 74 24 50     mov         rsi,qword ptr [rsp+50h]
  0000000140001A97: 48 8B 7C 24 40     mov         rdi,qword ptr [rsp+40h]
  0000000140001A9C: 4C 8B 64 24 48     mov         r12,qword ptr [rsp+48h]
  0000000140001AA1: 4C 8B 6C 24 20     mov         r13,qword ptr [rsp+20h]
  0000000140001AA6: 4C 8B 74 24 28     mov         r14,qword ptr [rsp+28h]
  0000000140001AAB: 4C 8B 7C 24 30     mov         r15,qword ptr [rsp+30h]
  0000000140001AB0: 48 8B 6C 24 38     mov         rbp,qword ptr [rsp+38h]
  0000000140001AB5: 44 89 D8           mov         eax,r11d
  0000000140001AB8: 48 83 C4 58        add         rsp,58h
  0000000140001ABC: C3                 ret
  0000000140001ABD: E8 4E 01 00 00     call        0000000140001C10
  0000000140001AC2: 85 C0              test        eax,eax
  0000000140001AC4: 74 B8              je          0000000140001A7E
  0000000140001AC6: E9 59 FF FF FF     jmp         0000000140001A24
  0000000140001ACB: 4A 8D 6C 11 01     lea         rbp,[rcx+r10+1]
  0000000140001AD0: 48 85 F6           test        rsi,rsi
  0000000140001AD3: 74 BD              je          0000000140001A92
  0000000140001AD5: 48 85 ED           test        rbp,rbp
  0000000140001AD8: 74 B8              je          0000000140001A92
  0000000140001ADA: E9 38 FF FF FF     jmp         0000000140001A17
  0000000140001ADF: 33 C0              xor         eax,eax
  0000000140001AE1: 48 83 C4 58        add         rsp,58h
  0000000140001AE5: C3                 ret
  0000000140001AE6: 0F 1F 00           nop         dword ptr [rax]
  0000000140001AE9: 0F 1F 80 00 00 00  nop         dword ptr [rax+0000000000000000h]
                    00
  0000000140001AF0: 48 83 EC 28        sub         rsp,28h
  0000000140001AF4: 83 3D E5 B4 00 00  cmp         dword ptr [000000014000CFE0h],0
                    00
  0000000140001AFB: 74 54              je          0000000140001B51
  0000000140001AFD: 48 63 D2           movsxd      rdx,edx
  0000000140001B00: 48 8D 05 F9 E4 FF  lea         rax,[0000000140000000h]
                    FF
  0000000140001B07: 4C 8D 04 52        lea         r8,[rdx+rdx*2]
  0000000140001B0B: 46 8B 8C C0 C8 C9  mov         r9d,dword ptr [rax+r8*8+000000000000C9C8h]
                    00 00
  0000000140001B13: 41 83 F9 FF        cmp         r9d,0FFFFFFFFh
  0000000140001B17: 7C 2A              jl          0000000140001B43
  0000000140001B19: 41 81 F9 80 00 00  cmp         r9d,80h
                    00
  0000000140001B20: 7D 21              jge         0000000140001B43
  0000000140001B22: 45 85 C9           test        r9d,r9d
  0000000140001B25: 7C 22              jl          0000000140001B49
  0000000140001B27: 49 63 D1           movsxd      rdx,r9d
  0000000140001B2A: 33 C0              xor         eax,eax
  0000000140001B2C: 48 C1 EA 06        shr         rdx,6
  0000000140001B30: 4C 63 C2           movsxd      r8,edx
  0000000140001B33: 4A 8B 0C C1        mov         rcx,qword ptr [rcx+r8*8]
  0000000140001B37: 4C 0F A3 C9        bt          rcx,r9
  0000000140001B3B: 0F 92 C0           setb        al
  0000000140001B3E: 48 83 C4 28        add         rsp,28h
  0000000140001B42: C3                 ret
  0000000140001B43: 41 B9 FD FF FF FF  mov         r9d,0FFFFFFFDh
  0000000140001B49: 44 89 C8           mov         eax,r9d
  0000000140001B4C: 48 83 C4 28        add         rsp,28h
  0000000140001B50: C3                 ret
  0000000140001B51: E8 BA 00 00 00     call        0000000140001C10
  0000000140001B56: 85 C0              test        eax,eax
  0000000140001B58: 75 A3              jne         0000000140001AFD
  0000000140001B5A: 41 B9 FE FF FF FF  mov         r9d,0FFFFFFFEh
  0000000140001B60: EB E7              jmp         0000000140001B49
  0000000140001B62: 0F 1F 80 00 00 00  nop         dword ptr [rax+0000000000000000h]
                    00
  0000000140001B69: 0F 1F 80 00 00 00  nop         dword ptr [rax+0000000000000000h]
                    00
  0000000140001B70: 41 57              push        r15
  0000000140001B72: 4C 8B 79 08        mov         r15,qword ptr [rcx+8]
  0000000140001B76: 48 8B 09           mov         rcx,qword ptr [rcx]
  0000000140001B79: 4C 89 78 08        mov         qword ptr [rax+8],r15
  0000000140001B7D: 48 89 08           mov         qword ptr [rax],rcx
  0000000140001B80: 33 C0              xor         eax,eax
  0000000140001B82: 41 5F              pop         r15
  0000000140001B84: C3                 ret
  0000000140001B85: 0F 1F 40 00        nop         dword ptr [rax]
  0000000140001B89: 0F 1F 80 00 00 00  nop         dword ptr [rax+0000000000000000h]
                    00
  0000000140001B90: 41 52              push        r10
  0000000140001B92: 55                 push        rbp
  0000000140001B93: 48 83 EC 28        sub         rsp,28h
  0000000140001B97: 89 CD              mov         ebp,ecx
  0000000140001B99: 48 89 C1           mov         rcx,rax
  0000000140001B9C: 83 3D 3D B4 00 00  cmp         dword ptr [000000014000CFE0h],0
                    00
  0000000140001BA3: 74 54              je          0000000140001BF9
  0000000140001BA5: 48 63 ED           movsxd      rbp,ebp
  0000000140001BA8: 48 8D 05 51 E4 FF  lea         rax,[0000000140000000h]
                    FF
  0000000140001BAF: 4C 8D 54 6D 00     lea         r10,[rbp+rbp*2]
  0000000140001BB4: 42 8B 84 D0 C8 C9  mov         eax,dword ptr [rax+r10*8+000000000000C9C8h]
                    00 00
  0000000140001BBC: 83 F8 FF           cmp         eax,0FFFFFFFFh
  0000000140001BBF: 7C 2B              jl          0000000140001BEC
  0000000140001BC1: 3D 80 00 00 00     cmp         eax,80h
  0000000140001BC6: 7D 24              jge         0000000140001BEC
  0000000140001BC8: 85 C0              test        eax,eax
  0000000140001BCA: 7C 25              jl          0000000140001BF1
  0000000140001BCC: 48 63 E8           movsxd      rbp,eax
  0000000140001BCF: 48 C1 ED 06        shr         rbp,6
  0000000140001BD3: 48 63 ED           movsxd      rbp,ebp
  0000000140001BD6: 4C 8B 14 E9        mov         r10,qword ptr [rcx+rbp*8]
  0000000140001BDA: 49 0F AB C2        bts         r10,rax
  0000000140001BDE: 33 C0              xor         eax,eax
  0000000140001BE0: 4C 89 14 E9        mov         qword ptr [rcx+rbp*8],r10
  0000000140001BE4: 48 83 C4 28        add         rsp,28h
  0000000140001BE8: 5D                 pop         rbp
  0000000140001BE9: 41 5A              pop         r10
  0000000140001BEB: C3                 ret
  0000000140001BEC: B8 FD FF FF FF     mov         eax,0FFFFFFFDh
  0000000140001BF1: 48 83 C4 28        add         rsp,28h
  0000000140001BF5: 5D                 pop         rbp
  0000000140001BF6: 41 5A              pop         r10
  0000000140001BF8: C3                 ret
  0000000140001BF9: E8 12 00 00 00     call        0000000140001C10
  0000000140001BFE: 85 C0              test        eax,eax
  0000000140001C00: 75 A3              jne         0000000140001BA5
  0000000140001C02: B8 FE FF FF FF     mov         eax,0FFFFFFFEh
  0000000140001C07: 48 83 C4 28        add         rsp,28h
  0000000140001C0B: 5D                 pop         rbp
  0000000140001C0C: 41 5A              pop         r10
  0000000140001C0E: C3                 ret
  0000000140001C0F: 90                 nop
  0000000140001C10: 52                 push        rdx
  0000000140001C11: 48 83 EC 30        sub         rsp,30h
  0000000140001C15: 83 3D C4 B3 00 00  cmp         dword ptr [000000014000CFE0h],0
                    00
  0000000140001C1C: 74 0B              je          0000000140001C29
  0000000140001C1E: B8 01 00 00 00     mov         eax,1
  0000000140001C23: 48 83 C4 30        add         rsp,30h
  0000000140001C27: 5A                 pop         rdx
  0000000140001C28: C3                 ret
  0000000140001C29: 48 89 4C 24 28     mov         qword ptr [rsp+28h],rcx
  0000000140001C2E: 32 D2              xor         dl,dl
  0000000140001C30: 48 89 5C 24 20     mov         qword ptr [rsp+20h],rbx
  0000000140001C35: 33 C0              xor         eax,eax
  0000000140001C37: B9 FF FF FF FF     mov         ecx,0FFFFFFFFh
  0000000140001C3C: 48 8D 1D BD E3 FF  lea         rbx,[0000000140000000h]
                    FF
  0000000140001C43: FE C2              inc         dl
  0000000140001C45: 89 8C 03 E0 C9 00  mov         dword ptr [rbx+rax+000000000000C9E0h],ecx
                    00
  0000000140001C4C: 89 8C 03 F8 C9 00  mov         dword ptr [rbx+rax+000000000000C9F8h],ecx
                    00
  0000000140001C53: 48 83 C0 30        add         rax,30h
  0000000140001C57: 80 FA 1F           cmp         dl,1Fh
  0000000140001C5A: 72 E7              jb          0000000140001C43
  0000000140001C5C: 48 8D 15 21 77 00  lea         rdx,[0000000140009384h]
                    00
  0000000140001C63: 48 8D 05 2A 77 00  lea         rax,[0000000140009394h]
                    00
  0000000140001C6A: 48 89 15 67 AD 00  mov         qword ptr [000000014000C9D8h],rdx
                    00
  0000000140001C71: 48 8D 15 20 77 00  lea         rdx,[0000000140009398h]
                    00
  0000000140001C78: 48 89 15 89 AD 00  mov         qword ptr [000000014000CA08h],rdx
                    00
  0000000140001C7F: 48 8D 15 1A 77 00  lea         rdx,[00000001400093A0h]
                    00
  0000000140001C86: 48 89 15 A3 AD 00  mov         qword ptr [000000014000CA30h],rdx
                    00
  0000000140001C8D: 48 8D 15 10 77 00  lea         rdx,[00000001400093A4h]
                    00
  0000000140001C94: 48 89 15 85 AD 00  mov         qword ptr [000000014000CA20h],rdx
                    00
  0000000140001C9B: 48 8D 15 06 77 00  lea         rdx,[00000001400093A8h]
                    00
  0000000140001CA2: 48 89 15 8F AD 00  mov         qword ptr [000000014000CA38h],rdx
                    00
  0000000140001CA9: 48 8D 15 00 77 00  lea         rdx,[00000001400093B0h]
                    00
  0000000140001CB0: 48 89 15 A9 AD 00  mov         qword ptr [000000014000CA60h],rdx
                    00
  0000000140001CB7: 48 8D 15 F6 76 00  lea         rdx,[00000001400093B4h]
                    00
  0000000140001CBE: 48 89 15 8B AD 00  mov         qword ptr [000000014000CA50h],rdx
                    00
  0000000140001CC5: 48 8D 15 EC 76 00  lea         rdx,[00000001400093B8h]
                    00
  0000000140001CCC: 48 89 15 A5 AD 00  mov         qword ptr [000000014000CA78h],rdx
                    00
  0000000140001CD3: 48 8D 15 E6 76 00  lea         rdx,[00000001400093C0h]
                    00
  0000000140001CDA: 48 89 15 87 AD 00  mov         qword ptr [000000014000CA68h],rdx
                    00
  0000000140001CE1: 48 8D 15 E0 76 00  lea         rdx,[00000001400093C8h]
                    00
  0000000140001CE8: 48 89 15 A1 AD 00  mov         qword ptr [000000014000CA90h],rdx
                    00
  0000000140001CEF: 48 8D 15 DA 76 00  lea         rdx,[00000001400093D0h]
                    00
  0000000140001CF6: 48 89 15 83 AD 00  mov         qword ptr [000000014000CA80h],rdx
                    00
  0000000140001CFD: 48 8D 15 D4 76 00  lea         rdx,[00000001400093D8h]
                    00
  0000000140001D04: 48 89 15 9D AD 00  mov         qword ptr [000000014000CAA8h],rdx
                    00
  0000000140001D0B: 48 8D 15 CE 76 00  lea         rdx,[00000001400093E0h]
                    00
  0000000140001D12: 48 89 15 7F AD 00  mov         qword ptr [000000014000CA98h],rdx
                    00
  0000000140001D19: 48 8D 15 C8 76 00  lea         rdx,[00000001400093E8h]
                    00
  0000000140001D20: 48 89 15 99 AD 00  mov         qword ptr [000000014000CAC0h],rdx
                    00
  0000000140001D27: 48 8D 15 C2 76 00  lea         rdx,[00000001400093F0h]
                    00
  0000000140001D2E: 48 89 15 7B AD 00  mov         qword ptr [000000014000CAB0h],rdx
                    00
  0000000140001D35: 48 8D 15 BC 76 00  lea         rdx,[00000001400093F8h]
                    00
  0000000140001D3C: 48 89 15 95 AD 00  mov         qword ptr [000000014000CAD8h],rdx
                    00
  0000000140001D43: 48 8D 15 B6 76 00  lea         rdx,[0000000140009400h]
                    00
  0000000140001D4A: 48 89 15 77 AD 00  mov         qword ptr [000000014000CAC8h],rdx
                    00
  0000000140001D51: 48 8D 15 B0 76 00  lea         rdx,[0000000140009408h]
                    00
  0000000140001D58: 48 89 15 91 AD 00  mov         qword ptr [000000014000CAF0h],rdx
                    00
  0000000140001D5F: 48 8D 15 AA 76 00  lea         rdx,[0000000140009410h]
                    00
  0000000140001D66: 48 89 15 73 AD 00  mov         qword ptr [000000014000CAE0h],rdx
                    00
  0000000140001D6D: 48 8D 15 A4 76 00  lea         rdx,[0000000140009418h]
                    00
  0000000140001D74: 48 89 15 8D AD 00  mov         qword ptr [000000014000CB08h],rdx
                    00
  0000000140001D7B: 48 8D 15 9E 76 00  lea         rdx,[0000000140009420h]
                    00
  0000000140001D82: 48 89 15 6F AD 00  mov         qword ptr [000000014000CAF8h],rdx
                    00
  0000000140001D89: 48 8D 15 98 76 00  lea         rdx,[0000000140009428h]
                    00
  0000000140001D90: 48 89 15 89 AD 00  mov         qword ptr [000000014000CB20h],rdx
                    00
  0000000140001D97: 48 8D 15 92 76 00  lea         rdx,[0000000140009430h]
                    00
  0000000140001D9E: 48 89 15 6B AD 00  mov         qword ptr [000000014000CB10h],rdx
                    00
  0000000140001DA5: 48 8D 15 90 76 00  lea         rdx,[000000014000943Ch]
                    00
  0000000140001DAC: 48 89 15 85 AD 00  mov         qword ptr [000000014000CB38h],rdx
                    00
  0000000140001DB3: 48 8D 15 86 76 00  lea         rdx,[0000000140009440h]
                    00
  0000000140001DBA: 48 89 15 67 AD 00  mov         qword ptr [000000014000CB28h],rdx
                    00
  0000000140001DC1: 48 8D 15 7C 76 00  lea         rdx,[0000000140009444h]
                    00
  0000000140001DC8: 48 89 15 81 AD 00  mov         qword ptr [000000014000CB50h],rdx
                    00
  0000000140001DCF: 48 8D 15 72 76 00  lea         rdx,[0000000140009448h]
                    00
  0000000140001DD6: 48 89 15 63 AD 00  mov         qword ptr [000000014000CB40h],rdx
                    00
  0000000140001DDD: 48 8D 15 68 76 00  lea         rdx,[000000014000944Ch]
                    00
  0000000140001DE4: 48 89 15 7D AD 00  mov         qword ptr [000000014000CB68h],rdx
                    00
  0000000140001DEB: 48 8D 15 62 76 00  lea         rdx,[0000000140009454h]
                    00
  0000000140001DF2: 48 89 15 5F AD 00  mov         qword ptr [000000014000CB58h],rdx
                    00
  0000000140001DF9: 48 8D 15 5C 76 00  lea         rdx,[000000014000945Ch]
                    00
  0000000140001E00: 48 89 15 79 AD 00  mov         qword ptr [000000014000CB80h],rdx
                    00
  0000000140001E07: 48 8D 15 56 76 00  lea         rdx,[0000000140009464h]
                    00
  0000000140001E0E: 48 89 15 5B AD 00  mov         qword ptr [000000014000CB70h],rdx
                    00
  0000000140001E15: 48 8D 15 50 76 00  lea         rdx,[000000014000946Ch]
                    00
  0000000140001E1C: 48 89 15 75 AD 00  mov         qword ptr [000000014000CB98h],rdx
                    00
  0000000140001E23: 48 8D 15 46 76 00  lea         rdx,[0000000140009470h]
                    00
  0000000140001E2A: 48 89 15 57 AD 00  mov         qword ptr [000000014000CB88h],rdx
                    00
  0000000140001E31: 48 8D 15 3C 76 00  lea         rdx,[0000000140009474h]
                    00
  0000000140001E38: 48 89 15 71 AD 00  mov         qword ptr [000000014000CBB0h],rdx
                    00
  0000000140001E3F: 48 8D 15 32 76 00  lea         rdx,[0000000140009478h]
                    00
  0000000140001E46: 48 89 15 53 AD 00  mov         qword ptr [000000014000CBA0h],rdx
                    00
  0000000140001E4D: 48 8D 15 28 76 00  lea         rdx,[000000014000947Ch]
                    00
  0000000140001E54: 48 89 15 6D AD 00  mov         qword ptr [000000014000CBC8h],rdx
                    00
  0000000140001E5B: 48 8D 15 22 76 00  lea         rdx,[0000000140009484h]
                    00
  0000000140001E62: 48 89 15 4F AD 00  mov         qword ptr [000000014000CBB8h],rdx
                    00
  0000000140001E69: 48 8D 15 1C 76 00  lea         rdx,[000000014000948Ch]
                    00
  0000000140001E70: 48 89 15 69 AD 00  mov         qword ptr [000000014000CBE0h],rdx
                    00
  0000000140001E77: 48 8D 15 12 76 00  lea         rdx,[0000000140009490h]
                    00
  0000000140001E7E: 48 89 15 4B AD 00  mov         qword ptr [000000014000CBD0h],rdx
                    00
  0000000140001E85: 48 8D 15 08 76 00  lea         rdx,[0000000140009494h]
                    00
  0000000140001E8C: 48 89 15 65 AD 00  mov         qword ptr [000000014000CBF8h],rdx
                    00
  0000000140001E93: 48 8D 15 FE 75 00  lea         rdx,[0000000140009498h]
                    00
  0000000140001E9A: 48 89 15 47 AD 00  mov         qword ptr [000000014000CBE8h],rdx
                    00
  0000000140001EA1: 48 8D 15 F4 75 00  lea         rdx,[000000014000949Ch]
                    00
  0000000140001EA8: 48 89 15 61 AD 00  mov         qword ptr [000000014000CC10h],rdx
                    00
  0000000140001EAF: 48 8D 15 EE 75 00  lea         rdx,[00000001400094A4h]
                    00
  0000000140001EB6: 48 89 15 43 AD 00  mov         qword ptr [000000014000CC00h],rdx
                    00
  0000000140001EBD: 48 8D 15 E8 75 00  lea         rdx,[00000001400094ACh]
                    00
  0000000140001EC4: 48 89 15 5D AD 00  mov         qword ptr [000000014000CC28h],rdx
                    00
  0000000140001ECB: 48 8D 15 E2 75 00  lea         rdx,[00000001400094B4h]
                    00
  0000000140001ED2: 48 89 15 3F AD 00  mov         qword ptr [000000014000CC18h],rdx
                    00
  0000000140001ED9: 48 8D 15 DC 75 00  lea         rdx,[00000001400094BCh]
                    00
  0000000140001EE0: 48 89 15 59 AD 00  mov         qword ptr [000000014000CC40h],rdx
                    00
  0000000140001EE7: 48 8D 15 DA 75 00  lea         rdx,[00000001400094C8h]
                    00
  0000000140001EEE: 48 89 15 3B AD 00  mov         qword ptr [000000014000CC30h],rdx
                    00
  0000000140001EF5: 48 8D 15 D8 75 00  lea         rdx,[00000001400094D4h]
                    00
  0000000140001EFC: 48 89 15 55 AD 00  mov         qword ptr [000000014000CC58h],rdx
                    00
  0000000140001F03: 48 8D 15 D2 75 00  lea         rdx,[00000001400094DCh]
                    00
  0000000140001F0A: 48 89 15 37 AD 00  mov         qword ptr [000000014000CC48h],rdx
                    00
  0000000140001F11: 48 8D 15 CC 75 00  lea         rdx,[00000001400094E4h]
                    00
  0000000140001F18: 48 89 15 41 AD 00  mov         qword ptr [000000014000CC60h],rdx
                    00
  0000000140001F1F: 48 8D 15 C6 75 00  lea         rdx,[00000001400094ECh]
                    00
  0000000140001F26: 48 89 15 5B AD 00  mov         qword ptr [000000014000CC88h],rdx
                    00
  0000000140001F2D: 48 8D 15 BC 75 00  lea         rdx,[00000001400094F0h]
                    00
  0000000140001F34: 48 89 15 3D AD 00  mov         qword ptr [000000014000CC78h],rdx
                    00
  0000000140001F3B: 48 8D 15 B2 75 00  lea         rdx,[00000001400094F4h]
                    00
  0000000140001F42: 48 89 15 57 AD 00  mov         qword ptr [000000014000CCA0h],rdx
                    00
  0000000140001F49: 48 8D 15 AC 75 00  lea         rdx,[00000001400094FCh]
                    00
  0000000140001F50: 48 89 15 39 AD 00  mov         qword ptr [000000014000CC90h],rdx
                    00
  0000000140001F57: 48 8D 15 A6 75 00  lea         rdx,[0000000140009504h]
                    00
  0000000140001F5E: 48 89 15 53 AD 00  mov         qword ptr [000000014000CCB8h],rdx
                    00
  0000000140001F65: 48 8D 15 A4 75 00  lea         rdx,[0000000140009510h]
                    00
  0000000140001F6C: 48 89 15 35 AD 00  mov         qword ptr [000000014000CCA8h],rdx
                    00
  0000000140001F73: 48 8D 15 A6 75 00  lea         rdx,[0000000140009520h]
                    00
  0000000140001F7A: 48 89 15 67 AD 00  mov         qword ptr [000000014000CCE8h],rdx
                    00
  0000000140001F81: 48 8D 15 A4 75 00  lea         rdx,[000000014000952Ch]
                    00
  0000000140001F88: 48 89 15 49 AD 00  mov         qword ptr [000000014000CCD8h],rdx
                    00
  0000000140001F8F: 48 8D 15 A2 75 00  lea         rdx,[0000000140009538h]
                    00
  0000000140001F96: 48 89 15 63 AD 00  mov         qword ptr [000000014000CD00h],rdx
                    00
  0000000140001F9D: 48 8D 15 A0 75 00  lea         rdx,[0000000140009544h]
                    00
  0000000140001FA4: 48 89 15 45 AD 00  mov         qword ptr [000000014000CCF0h],rdx
                    00
  0000000140001FAB: 48 8D 15 9E 75 00  lea         rdx,[0000000140009550h]
                    00
  0000000140001FB2: 48 89 15 5F AD 00  mov         qword ptr [000000014000CD18h],rdx
                    00
  0000000140001FB9: 48 8D 15 9C 75 00  lea         rdx,[000000014000955Ch]
                    00
  0000000140001FC0: 48 89 15 41 AD 00  mov         qword ptr [000000014000CD08h],rdx
                    00
  0000000140001FC7: 48 8D 15 9A 75 00  lea         rdx,[0000000140009568h]
                    00
  0000000140001FCE: 48 89 15 5B AD 00  mov         qword ptr [000000014000CD30h],rdx
                    00
  0000000140001FD5: 48 8D 15 90 75 00  lea         rdx,[000000014000956Ch]
                    00
  0000000140001FDC: 48 89 15 3D AD 00  mov         qword ptr [000000014000CD20h],rdx
                    00
  0000000140001FE3: 48 8D 15 86 75 00  lea         rdx,[0000000140009570h]
                    00
  0000000140001FEA: 48 89 15 57 AD 00  mov         qword ptr [000000014000CD48h],rdx
                    00
  0000000140001FF1: 48 8D 15 7C 75 00  lea         rdx,[0000000140009574h]
                    00
  0000000140001FF8: 48 89 15 39 AD 00  mov         qword ptr [000000014000CD38h],rdx
                    00
  0000000140001FFF: 48 8D 15 72 75 00  lea         rdx,[0000000140009578h]
                    00
  0000000140002006: 48 89 15 53 AD 00  mov         qword ptr [000000014000CD60h],rdx
                    00
  000000014000200D: 48 8D 15 70 75 00  lea         rdx,[0000000140009584h]
                    00
  0000000140002014: 48 89 15 35 AD 00  mov         qword ptr [000000014000CD50h],rdx
                    00
  000000014000201B: 48 8D 15 6E 75 00  lea         rdx,[0000000140009590h]
                    00
  0000000140002022: 48 89 15 4F AD 00  mov         qword ptr [000000014000CD78h],rdx
                    00
  0000000140002029: 48 8D 15 6C 75 00  lea         rdx,[000000014000959Ch]
                    00
  0000000140002030: 48 89 15 31 AD 00  mov         qword ptr [000000014000CD68h],rdx
                    00
  0000000140002037: 48 8D 15 6A 75 00  lea         rdx,[00000001400095A8h]
                    00
  000000014000203E: 48 89 15 4B AD 00  mov         qword ptr [000000014000CD90h],rdx
                    00
  0000000140002045: 48 8D 15 68 75 00  lea         rdx,[00000001400095B4h]
                    00
  000000014000204C: 48 89 15 2D AD 00  mov         qword ptr [000000014000CD80h],rdx
                    00
  0000000140002053: 48 8D 15 66 75 00  lea         rdx,[00000001400095C0h]
                    00
  000000014000205A: 48 89 15 47 AD 00  mov         qword ptr [000000014000CDA8h],rdx
                    00
  0000000140002061: 48 8D 15 68 75 00  lea         rdx,[00000001400095D0h]
                    00
  0000000140002068: 48 89 15 29 AD 00  mov         qword ptr [000000014000CD98h],rdx
                    00
  000000014000206F: 48 8D 15 6A 75 00  lea         rdx,[00000001400095E0h]
                    00
  0000000140002076: 48 89 15 43 AD 00  mov         qword ptr [000000014000CDC0h],rdx
                    00
  000000014000207D: 48 8D 15 6C 75 00  lea         rdx,[00000001400095F0h]
                    00
  0000000140002084: 48 89 15 25 AD 00  mov         qword ptr [000000014000CDB0h],rdx
                    00
  000000014000208B: 48 8D 15 6E 75 00  lea         rdx,[0000000140009600h]
                    00
  0000000140002092: 48 89 15 3F AD 00  mov         qword ptr [000000014000CDD8h],rdx
                    00
  0000000140002099: 48 8D 15 70 75 00  lea         rdx,[0000000140009610h]
                    00
  00000001400020A0: 48 89 15 21 AD 00  mov         qword ptr [000000014000CDC8h],rdx
                    00
  00000001400020A7: 48 8D 15 76 75 00  lea         rdx,[0000000140009624h]
                    00
  00000001400020AE: 48 89 15 3B AD 00  mov         qword ptr [000000014000CDF0h],rdx
                    00
  00000001400020B5: 48 8D 15 78 75 00  lea         rdx,[0000000140009634h]
                    00
  00000001400020BC: 48 89 15 1D AD 00  mov         qword ptr [000000014000CDE0h],rdx
                    00
  00000001400020C3: 48 8D 15 7A 75 00  lea         rdx,[0000000140009644h]
                    00
  00000001400020CA: 48 89 15 37 AD 00  mov         qword ptr [000000014000CE08h],rdx
                    00
  00000001400020D1: 48 8D 15 78 75 00  lea         rdx,[0000000140009650h]
                    00
  00000001400020D8: 48 89 15 19 AD 00  mov         qword ptr [000000014000CDF8h],rdx
                    00
  00000001400020DF: 48 8D 15 7A 75 00  lea         rdx,[0000000140009660h]
                    00
  00000001400020E6: 48 89 15 33 AD 00  mov         qword ptr [000000014000CE20h],rdx
                    00
  00000001400020ED: 48 8D 15 74 75 00  lea         rdx,[0000000140009668h]
                    00
  00000001400020F4: 48 89 15 15 AD 00  mov         qword ptr [000000014000CE10h],rdx
                    00
  00000001400020FB: 48 8D 15 6E 75 00  lea         rdx,[0000000140009670h]
                    00
  0000000140002102: 48 89 15 2F AD 00  mov         qword ptr [000000014000CE38h],rdx
                    00
  0000000140002109: 48 8D 15 68 75 00  lea         rdx,[0000000140009678h]
                    00
  0000000140002110: 48 89 15 11 AD 00  mov         qword ptr [000000014000CE28h],rdx
                    00
  0000000140002117: 48 8D 15 62 75 00  lea         rdx,[0000000140009680h]
                    00
  000000014000211E: 48 89 15 2B AD 00  mov         qword ptr [000000014000CE50h],rdx
                    00
  0000000140002125: 48 8D 15 60 75 00  lea         rdx,[000000014000968Ch]
                    00
  000000014000212C: 48 89 15 0D AD 00  mov         qword ptr [000000014000CE40h],rdx
                    00
  0000000140002133: 48 8D 15 5E 75 00  lea         rdx,[0000000140009698h]
                    00
  000000014000213A: 48 89 15 27 AD 00  mov         qword ptr [000000014000CE68h],rdx
                    00
  0000000140002141: 48 8D 15 5C 75 00  lea         rdx,[00000001400096A4h]
                    00
  0000000140002148: 48 89 15 09 AD 00  mov         qword ptr [000000014000CE58h],rdx
                    00
  000000014000214F: 48 8D 15 5A 75 00  lea         rdx,[00000001400096B0h]
                    00
  0000000140002156: 48 89 15 23 AD 00  mov         qword ptr [000000014000CE80h],rdx
                    00
  000000014000215D: 48 8D 15 54 75 00  lea         rdx,[00000001400096B8h]
                    00
  0000000140002164: 48 89 15 05 AD 00  mov         qword ptr [000000014000CE70h],rdx
                    00
  000000014000216B: 48 8D 15 4E 75 00  lea         rdx,[00000001400096C0h]
                    00
  0000000140002172: 48 89 15 1F AD 00  mov         qword ptr [000000014000CE98h],rdx
                    00
  0000000140002179: 48 8D 15 48 75 00  lea         rdx,[00000001400096C8h]
                    00
  0000000140002180: 48 89 15 01 AD 00  mov         qword ptr [000000014000CE88h],rdx
                    00
  0000000140002187: 48 8D 15 42 75 00  lea         rdx,[00000001400096D0h]
                    00
  000000014000218E: 48 89 15 1B AD 00  mov         qword ptr [000000014000CEB0h],rdx
                    00
  0000000140002195: 48 8D 15 38 75 00  lea         rdx,[00000001400096D4h]
                    00
  000000014000219C: 48 89 15 FD AC 00  mov         qword ptr [000000014000CEA0h],rdx
                    00
  00000001400021A3: 48 8D 15 2E 75 00  lea         rdx,[00000001400096D8h]
                    00
  00000001400021AA: 48 89 15 17 AD 00  mov         qword ptr [000000014000CEC8h],rdx
                    00
  00000001400021B1: 48 8D 15 28 75 00  lea         rdx,[00000001400096E0h]
                    00
  00000001400021B8: 48 89 15 F9 AC 00  mov         qword ptr [000000014000CEB8h],rdx
                    00
  00000001400021BF: 48 8D 15 22 75 00  lea         rdx,[00000001400096E8h]
                    00
  00000001400021C6: 48 89 15 13 AD 00  mov         qword ptr [000000014000CEE0h],rdx
                    00
  00000001400021CD: 48 8D 15 18 75 00  lea         rdx,[00000001400096ECh]
                    00
  00000001400021D4: 48 89 15 F5 AC 00  mov         qword ptr [000000014000CED0h],rdx
                    00
  00000001400021DB: 48 8D 15 0E 75 00  lea         rdx,[00000001400096F0h]
                    00
  00000001400021E2: 48 89 15 0F AD 00  mov         qword ptr [000000014000CEF8h],rdx
                    00
  00000001400021E9: 48 8D 15 0C 75 00  lea         rdx,[00000001400096FCh]
                    00
  00000001400021F0: 48 89 15 F1 AC 00  mov         qword ptr [000000014000CEE8h],rdx
                    00
  00000001400021F7: 48 8D 15 0A 75 00  lea         rdx,[0000000140009708h]
                    00
  00000001400021FE: 48 89 15 0B AD 00  mov         qword ptr [000000014000CF10h],rdx
                    00
  0000000140002205: 48 8D 15 04 75 00  lea         rdx,[0000000140009710h]
                    00
  000000014000220C: 48 89 15 ED AC 00  mov         qword ptr [000000014000CF00h],rdx
                    00
  0000000140002213: 48 8D 15 FE 74 00  lea         rdx,[0000000140009718h]
                    00
  000000014000221A: 48 89 15 07 AD 00  mov         qword ptr [000000014000CF28h],rdx
                    00
  0000000140002221: 48 8D 15 04 75 00  lea         rdx,[000000014000972Ch]
                    00
  0000000140002228: 48 89 15 E9 AC 00  mov         qword ptr [000000014000CF18h],rdx
                    00
  000000014000222F: 48 8D 15 0A 75 00  lea         rdx,[0000000140009740h]
                    00
  0000000140002236: 48 89 15 03 AD 00  mov         qword ptr [000000014000CF40h],rdx
                    00
  000000014000223D: 48 8D 15 08 75 00  lea         rdx,[000000014000974Ch]
                    00
  0000000140002244: 48 89 15 E5 AC 00  mov         qword ptr [000000014000CF30h],rdx
                    00
  000000014000224B: 48 8D 15 06 75 00  lea         rdx,[0000000140009758h]
                    00
  0000000140002252: 48 89 15 FF AC 00  mov         qword ptr [000000014000CF58h],rdx
                    00
  0000000140002259: 48 8D 15 00 75 00  lea         rdx,[0000000140009760h]
                    00
  0000000140002260: 48 89 15 E1 AC 00  mov         qword ptr [000000014000CF48h],rdx
                    00
  0000000140002267: 48 8D 15 FA 74 00  lea         rdx,[0000000140009768h]
                    00
  000000014000226E: 48 89 15 FB AC 00  mov         qword ptr [000000014000CF70h],rdx
                    00
  0000000140002275: 48 8D 15 F8 74 00  lea         rdx,[0000000140009774h]
                    00
  000000014000227C: 48 89 15 DD AC 00  mov         qword ptr [000000014000CF60h],rdx
                    00
  0000000140002283: 48 8D 15 F6 74 00  lea         rdx,[0000000140009780h]
                    00
  000000014000228A: 48 89 15 F7 AC 00  mov         qword ptr [000000014000CF88h],rdx
                    00
  0000000140002291: 48 8D 15 F0 74 00  lea         rdx,[0000000140009788h]
                    00
  0000000140002298: 48 89 15 D9 AC 00  mov         qword ptr [000000014000CF78h],rdx
                    00
  000000014000229F: 48 8D 15 EA 74 00  lea         rdx,[0000000140009790h]
                    00
  00000001400022A6: 48 89 15 F3 AC 00  mov         qword ptr [000000014000CFA0h],rdx
                    00
  00000001400022AD: 48 8D 15 E8 74 00  lea         rdx,[000000014000979Ch]
                    00
  00000001400022B4: 48 89 15 D5 AC 00  mov         qword ptr [000000014000CF90h],rdx
                    00
  00000001400022BB: 48 8D 15 E6 74 00  lea         rdx,[00000001400097A8h]
                    00
  00000001400022C2: 48 8B 4C 24 28     mov         rcx,qword ptr [rsp+28h]
  00000001400022C7: 48 8B 5C 24 20     mov         rbx,qword ptr [rsp+20h]
  00000001400022CC: 48 89 05 1D A7 00  mov         qword ptr [000000014000C9F0h],rax
                    00
  00000001400022D3: B8 01 00 00 00     mov         eax,1
  00000001400022D8: 48 89 15 D9 AC 00  mov         qword ptr [000000014000CFB8h],rdx
                    00
  00000001400022DF: 48 8D 15 CA 74 00  lea         rdx,[00000001400097B0h]
                    00
  00000001400022E6: C7 05 F0 A6 00 00  mov         dword ptr [000000014000C9E0h],0
                    00 00 00 00
  00000001400022F0: 89 05 02 A7 00 00  mov         dword ptr [000000014000C9F8h],eax
  00000001400022F6: C7 05 10 A7 00 00  mov         dword ptr [000000014000CA10h],2
                    02 00 00 00
  0000000140002300: C7 05 1E A7 00 00  mov         dword ptr [000000014000CA28h],3
                    03 00 00 00
  000000014000230A: C7 05 2C A7 00 00  mov         dword ptr [000000014000CA40h],4
                    04 00 00 00
  0000000140002314: C7 05 3A A7 00 00  mov         dword ptr [000000014000CA58h],5
                    05 00 00 00
  000000014000231E: C7 05 48 A7 00 00  mov         dword ptr [000000014000CA70h],6
                    06 00 00 00
  0000000140002328: C7 05 56 A7 00 00  mov         dword ptr [000000014000CA88h],7
                    07 00 00 00
  0000000140002332: C7 05 64 A7 00 00  mov         dword ptr [000000014000CAA0h],8
                    08 00 00 00
  000000014000233C: C7 05 72 A7 00 00  mov         dword ptr [000000014000CAB8h],9
                    09 00 00 00
  0000000140002346: C7 05 80 A7 00 00  mov         dword ptr [000000014000CAD0h],0Ah
                    0A 00 00 00
  0000000140002350: C7 05 8E A7 00 00  mov         dword ptr [000000014000CAE8h],0Bh
                    0B 00 00 00
  000000014000235A: C7 05 9C A7 00 00  mov         dword ptr [000000014000CB00h],0Ch
                    0C 00 00 00
  0000000140002364: C7 05 AA A7 00 00  mov         dword ptr [000000014000CB18h],0Dh
                    0D 00 00 00
  000000014000236E: C7 05 B8 A7 00 00  mov         dword ptr [000000014000CB30h],0Eh
                    0E 00 00 00
  0000000140002378: C7 05 C6 A7 00 00  mov         dword ptr [000000014000CB48h],10h
                    10 00 00 00
  0000000140002382: C7 05 D4 A7 00 00  mov         dword ptr [000000014000CB60h],0Fh
                    0F 00 00 00
  000000014000238C: C7 05 E2 A7 00 00  mov         dword ptr [000000014000CB78h],11h
                    11 00 00 00
  0000000140002396: C7 05 F0 A7 00 00  mov         dword ptr [000000014000CB90h],12h
                    12 00 00 00
  00000001400023A0: C7 05 FE A7 00 00  mov         dword ptr [000000014000CBA8h],13h
                    13 00 00 00
  00000001400023AA: C7 05 0C A8 00 00  mov         dword ptr [000000014000CBC0h],14h
                    14 00 00 00
  00000001400023B4: C7 05 1A A8 00 00  mov         dword ptr [000000014000CBD8h],15h
                    15 00 00 00
  00000001400023BE: C7 05 28 A8 00 00  mov         dword ptr [000000014000CBF0h],16h
                    16 00 00 00
  00000001400023C8: C7 05 36 A8 00 00  mov         dword ptr [000000014000CC08h],17h
                    17 00 00 00
  00000001400023D2: C7 05 44 A8 00 00  mov         dword ptr [000000014000CC20h],1Bh
                    1B 00 00 00
  00000001400023DC: C7 05 52 A8 00 00  mov         dword ptr [000000014000CC38h],18h
                    18 00 00 00
  00000001400023E6: C7 05 60 A8 00 00  mov         dword ptr [000000014000CC50h],19h
                    19 00 00 00
  00000001400023F0: C7 05 6E A8 00 00  mov         dword ptr [000000014000CC68h],1Ah
                    1A 00 00 00
  00000001400023FA: C7 05 7C A8 00 00  mov         dword ptr [000000014000CC80h],1Ch
                    1C 00 00 00
  0000000140002404: C7 05 8A A8 00 00  mov         dword ptr [000000014000CC98h],1Dh
                    1D 00 00 00
  000000014000240E: C7 05 98 A8 00 00  mov         dword ptr [000000014000CCB0h],1Eh
                    1E 00 00 00
  0000000140002418: C7 05 A6 A8 00 00  mov         dword ptr [000000014000CCC8h],0FFFFFFFFh
                    FF FF FF FF
  0000000140002422: C7 05 B4 A8 00 00  mov         dword ptr [000000014000CCE0h],20h
                    20 00 00 00
  000000014000242C: C7 05 C2 A8 00 00  mov         dword ptr [000000014000CCF8h],21h
                    21 00 00 00
  0000000140002436: C7 05 D0 A8 00 00  mov         dword ptr [000000014000CD10h],22h
                    22 00 00 00
  0000000140002440: C7 05 DE A8 00 00  mov         dword ptr [000000014000CD28h],23h
                    23 00 00 00
  000000014000244A: C7 05 EC A8 00 00  mov         dword ptr [000000014000CD40h],24h
                    24 00 00 00
  0000000140002454: C7 05 FA A8 00 00  mov         dword ptr [000000014000CD58h],25h
                    25 00 00 00
  000000014000245E: C7 05 08 A9 00 00  mov         dword ptr [000000014000CD70h],26h
                    26 00 00 00
  0000000140002468: C7 05 16 A9 00 00  mov         dword ptr [000000014000CD88h],27h
                    27 00 00 00
  0000000140002472: C7 05 24 A9 00 00  mov         dword ptr [000000014000CDA0h],28h
                    28 00 00 00
  000000014000247C: C7 05 32 A9 00 00  mov         dword ptr [000000014000CDB8h],29h
                    29 00 00 00
  0000000140002486: C7 05 40 A9 00 00  mov         dword ptr [000000014000CDD0h],2Ah
                    2A 00 00 00
  0000000140002490: C7 05 4E A9 00 00  mov         dword ptr [000000014000CDE8h],2Bh
                    2B 00 00 00
  000000014000249A: C7 05 5C A9 00 00  mov         dword ptr [000000014000CE00h],2Ch
                    2C 00 00 00
  00000001400024A4: C7 05 6A A9 00 00  mov         dword ptr [000000014000CE18h],2Dh
                    2D 00 00 00
  00000001400024AE: C7 05 78 A9 00 00  mov         dword ptr [000000014000CE30h],2Eh
                    2E 00 00 00
  00000001400024B8: C7 05 86 A9 00 00  mov         dword ptr [000000014000CE48h],2Fh
                    2F 00 00 00
  00000001400024C2: C7 05 94 A9 00 00  mov         dword ptr [000000014000CE60h],30h
                    30 00 00 00
  00000001400024CC: C7 05 A2 A9 00 00  mov         dword ptr [000000014000CE78h],31h
                    31 00 00 00
  00000001400024D6: C7 05 B0 A9 00 00  mov         dword ptr [000000014000CE90h],32h
                    32 00 00 00
  00000001400024E0: C7 05 BE A9 00 00  mov         dword ptr [000000014000CEA8h],33h
                    33 00 00 00
  00000001400024EA: C7 05 CC A9 00 00  mov         dword ptr [000000014000CEC0h],34h
                    34 00 00 00
  00000001400024F4: C7 05 DA A9 00 00  mov         dword ptr [000000014000CED8h],35h
                    35 00 00 00
  00000001400024FE: C7 05 E8 A9 00 00  mov         dword ptr [000000014000CEF0h],36h
                    36 00 00 00
  0000000140002508: C7 05 F6 A9 00 00  mov         dword ptr [000000014000CF08h],37h
                    37 00 00 00
  0000000140002512: C7 05 04 AA 00 00  mov         dword ptr [000000014000CF20h],38h
                    38 00 00 00
  000000014000251C: C7 05 12 AA 00 00  mov         dword ptr [000000014000CF38h],40h
                    40 00 00 00
  0000000140002526: C7 05 20 AA 00 00  mov         dword ptr [000000014000CF50h],41h
                    41 00 00 00
  0000000140002530: C7 05 2E AA 00 00  mov         dword ptr [000000014000CF68h],42h
                    42 00 00 00
  000000014000253A: C7 05 3C AA 00 00  mov         dword ptr [000000014000CF80h],43h
                    43 00 00 00
  0000000140002544: C7 05 4A AA 00 00  mov         dword ptr [000000014000CF98h],44h
                    44 00 00 00
  000000014000254E: C7 05 58 AA 00 00  mov         dword ptr [000000014000CFB0h],45h
                    45 00 00 00
  0000000140002558: 48 89 15 49 AA 00  mov         qword ptr [000000014000CFA8h],rdx
                    00
  000000014000255F: 89 05 7B AA 00 00  mov         dword ptr [000000014000CFE0h],eax
  0000000140002565: 48 83 C4 30        add         rsp,30h
  0000000140002569: 5A                 pop         rdx
  000000014000256A: C3                 ret
  000000014000256B: 0F 1F 44 00 00     nop         dword ptr [rax+rax]
  0000000140002570: B8 01 00 00 00     mov         eax,1
  0000000140002575: E9 06 00 00 00     jmp         0000000140002580
  000000014000257A: 66 0F 1F 44 00 00  nop         word ptr [rax+rax]
  0000000140002580: 52                 push        rdx
  0000000140002581: 51                 push        rcx
  0000000140002582: 53                 push        rbx
  0000000140002583: 56                 push        rsi
  0000000140002584: 41 50              push        r8
  0000000140002586: 41 51              push        r9
  0000000140002588: 41 52              push        r10
  000000014000258A: 41 53              push        r11
  000000014000258C: 41 57              push        r15
  000000014000258E: 48 81 EC B0 00 00  sub         rsp,0B0h
                    00
  0000000140002595: 89 C6              mov         esi,eax
  0000000140002597: 0F 11 44 24 60     movups      xmmword ptr [rsp+60h],xmm0
  000000014000259C: 45 32 C0           xor         r8b,r8b
  000000014000259F: 0F 11 6C 24 40     movups      xmmword ptr [rsp+40h],xmm5
  00000001400025A4: 66 0F EF C0        pxor        xmm0,xmm0
  00000001400025A8: 0F 11 A4 24 80 00  movups      xmmword ptr [rsp+0000000000000080h],xmm4
                    00 00
  00000001400025B0: 0F 11 9C 24 90 00  movups      xmmword ptr [rsp+0000000000000090h],xmm3
                    00 00
  00000001400025B8: 0F 11 54 24 70     movups      xmmword ptr [rsp+70h],xmm2
  00000001400025BD: 0F 11 4C 24 50     movups      xmmword ptr [rsp+50h],xmm1
  00000001400025C2: F3 0F 7F 44 24 20  movdqu      xmmword ptr [rsp+20h],xmm0
  00000001400025C8: F3 0F 7F 44 24 30  movdqu      xmmword ptr [rsp+30h],xmm0
  00000001400025CE: B9 01 00 00 00     mov         ecx,1
  00000001400025D3: 48 8D 44 24 20     lea         rax,[rsp+20h]
  00000001400025D8: E8 B3 F5 FF FF     call        0000000140001B90
  00000001400025DD: 85 C0              test        eax,eax
  00000001400025DF: 0F 85 9D 08 00 00  jne         0000000140002E82
  00000001400025E5: 33 C0              xor         eax,eax
  00000001400025E7: 0F A2              cpuid
  00000001400025E9: 89 84 24 A0 00 00  mov         dword ptr [rsp+00000000000000A0h],eax
                    00
  00000001400025F0: 89 9C 24 A4 00 00  mov         dword ptr [rsp+00000000000000A4h],ebx
                    00
  00000001400025F7: 89 8C 24 A8 00 00  mov         dword ptr [rsp+00000000000000A8h],ecx
                    00
  00000001400025FE: 89 94 24 AC 00 00  mov         dword ptr [rsp+00000000000000ACh],edx
                    00
  0000000140002605: 83 BC 24 A0 00 00  cmp         dword ptr [rsp+00000000000000A0h],0
                    00 00
  000000014000260D: 0F 84 41 09 00 00  je          0000000140002F54
  0000000140002613: 83 FE 01           cmp         esi,1
  0000000140002616: 0F 84 9B 09 00 00  je          0000000140002FB7
  000000014000261C: B8 01 00 00 00     mov         eax,1
  0000000140002621: 0F A2              cpuid
  0000000140002623: 41 89 C9           mov         r9d,ecx
  0000000140002626: F6 C2 01           test        dl,1
  0000000140002629: 74 17              je          0000000140002642
  000000014000262B: B9 02 00 00 00     mov         ecx,2
  0000000140002630: 48 8D 44 24 20     lea         rax,[rsp+20h]
  0000000140002635: E8 56 F5 FF FF     call        0000000140001B90
  000000014000263A: 85 C0              test        eax,eax
  000000014000263C: 0F 85 40 08 00 00  jne         0000000140002E82
  0000000140002642: F7 C2 00 80 00 00  test        edx,8000h
  0000000140002648: 74 17              je          0000000140002661
  000000014000264A: B9 03 00 00 00     mov         ecx,3
  000000014000264F: 48 8D 44 24 20     lea         rax,[rsp+20h]
  0000000140002654: E8 37 F5 FF FF     call        0000000140001B90
  0000000140002659: 85 C0              test        eax,eax
  000000014000265B: 0F 85 21 08 00 00  jne         0000000140002E82
  0000000140002661: F7 C2 00 00 80 00  test        edx,800000h
  0000000140002667: 74 17              je          0000000140002680
  0000000140002669: B9 04 00 00 00     mov         ecx,4
  000000014000266E: 48 8D 44 24 20     lea         rax,[rsp+20h]
  0000000140002673: E8 18 F5 FF FF     call        0000000140001B90
  0000000140002678: 85 C0              test        eax,eax
  000000014000267A: 0F 85 02 08 00 00  jne         0000000140002E82
  0000000140002680: F7 C2 00 00 00 01  test        edx,1000000h
  0000000140002686: 75 12              jne         000000014000269A
  0000000140002688: 41 F7 C1 00 00 00  test        r9d,40000000h
                    40
  000000014000268F: 0F 85 98 01 00 00  jne         000000014000282D
  0000000140002695: E9 AF 01 00 00     jmp         0000000140002849
  000000014000269A: B9 05 00 00 00     mov         ecx,5
  000000014000269F: 48 8D 44 24 20     lea         rax,[rsp+20h]
  00000001400026A4: E8 E7 F4 FF FF     call        0000000140001B90
  00000001400026A9: 85 C0              test        eax,eax
  00000001400026AB: 0F 85 D1 07 00 00  jne         0000000140002E82
  00000001400026B1: F7 C2 00 00 00 02  test        edx,2000000h
  00000001400026B7: 74 17              je          00000001400026D0
  00000001400026B9: B9 06 00 00 00     mov         ecx,6
  00000001400026BE: 48 8D 44 24 20     lea         rax,[rsp+20h]
  00000001400026C3: E8 C8 F4 FF FF     call        0000000140001B90
  00000001400026C8: 85 C0              test        eax,eax
  00000001400026CA: 0F 85 B2 07 00 00  jne         0000000140002E82
  00000001400026D0: F7 C2 00 00 00 04  test        edx,4000000h
  00000001400026D6: 74 17              je          00000001400026EF
  00000001400026D8: B9 07 00 00 00     mov         ecx,7
  00000001400026DD: 48 8D 44 24 20     lea         rax,[rsp+20h]
  00000001400026E2: E8 A9 F4 FF FF     call        0000000140001B90
  00000001400026E7: 85 C0              test        eax,eax
  00000001400026E9: 0F 85 93 07 00 00  jne         0000000140002E82
  00000001400026EF: 41 F7 C1 01 00 00  test        r9d,1
                    00
  00000001400026F6: 74 17              je          000000014000270F
  00000001400026F8: B9 08 00 00 00     mov         ecx,8
  00000001400026FD: 48 8D 44 24 20     lea         rax,[rsp+20h]
  0000000140002702: E8 89 F4 FF FF     call        0000000140001B90
  0000000140002707: 85 C0              test        eax,eax
  0000000140002709: 0F 85 73 07 00 00  jne         0000000140002E82
  000000014000270F: 41 F7 C1 00 02 00  test        r9d,200h
                    00
  0000000140002716: 74 17              je          000000014000272F
  0000000140002718: B9 09 00 00 00     mov         ecx,9
  000000014000271D: 48 8D 44 24 20     lea         rax,[rsp+20h]
  0000000140002722: E8 69 F4 FF FF     call        0000000140001B90
  0000000140002727: 85 C0              test        eax,eax
  0000000140002729: 0F 85 53 07 00 00  jne         0000000140002E82
  000000014000272F: 41 F7 C1 00 00 40  test        r9d,400000h
                    00
  0000000140002736: 74 17              je          000000014000274F
  0000000140002738: B9 0C 00 00 00     mov         ecx,0Ch
  000000014000273D: 48 8D 44 24 20     lea         rax,[rsp+20h]
  0000000140002742: E8 49 F4 FF FF     call        0000000140001B90
  0000000140002747: 85 C0              test        eax,eax
  0000000140002749: 0F 85 33 07 00 00  jne         0000000140002E82
  000000014000274F: 41 F7 C1 00 00 08  test        r9d,80000h
                    00
  0000000140002756: 74 17              je          000000014000276F
  0000000140002758: B9 0A 00 00 00     mov         ecx,0Ah
  000000014000275D: 48 8D 44 24 20     lea         rax,[rsp+20h]
  0000000140002762: E8 29 F4 FF FF     call        0000000140001B90
  0000000140002767: 85 C0              test        eax,eax
  0000000140002769: 0F 85 13 07 00 00  jne         0000000140002E82
  000000014000276F: 41 F7 C1 00 00 10  test        r9d,100000h
                    00
  0000000140002776: 74 17              je          000000014000278F
  0000000140002778: B9 0B 00 00 00     mov         ecx,0Bh
  000000014000277D: 48 8D 44 24 20     lea         rax,[rsp+20h]
  0000000140002782: E8 09 F4 FF FF     call        0000000140001B90
  0000000140002787: 85 C0              test        eax,eax
  0000000140002789: 0F 85 F3 06 00 00  jne         0000000140002E82
  000000014000278F: 41 F7 C1 00 00 80  test        r9d,800000h
                    00
  0000000140002796: 74 17              je          00000001400027AF
  0000000140002798: B9 0D 00 00 00     mov         ecx,0Dh
  000000014000279D: 48 8D 44 24 20     lea         rax,[rsp+20h]
  00000001400027A2: E8 E9 F3 FF FF     call        0000000140001B90
  00000001400027A7: 85 C0              test        eax,eax
  00000001400027A9: 0F 85 D3 06 00 00  jne         0000000140002E82
  00000001400027AF: 41 F7 C1 02 00 00  test        r9d,2
                    00
  00000001400027B6: 74 17              je          00000001400027CF
  00000001400027B8: B9 0E 00 00 00     mov         ecx,0Eh
  00000001400027BD: 48 8D 44 24 20     lea         rax,[rsp+20h]
  00000001400027C2: E8 C9 F3 FF FF     call        0000000140001B90
  00000001400027C7: 85 C0              test        eax,eax
  00000001400027C9: 0F 85 B3 06 00 00  jne         0000000140002E82
  00000001400027CF: 41 F7 C1 00 00 00  test        r9d,2000000h
                    02
  00000001400027D6: 74 17              je          00000001400027EF
  00000001400027D8: B9 0F 00 00 00     mov         ecx,0Fh
  00000001400027DD: 48 8D 44 24 20     lea         rax,[rsp+20h]
  00000001400027E2: E8 A9 F3 FF FF     call        0000000140001B90
  00000001400027E7: 85 C0              test        eax,eax
  00000001400027E9: 0F 85 93 06 00 00  jne         0000000140002E82
  00000001400027EF: B8 07 00 00 00     mov         eax,7
  00000001400027F4: 33 C9              xor         ecx,ecx
  00000001400027F6: 0F A2              cpuid
  00000001400027F8: 41 B0 01           mov         r8b,1
  00000001400027FB: 41 89 DF           mov         r15d,ebx
  00000001400027FE: 41 89 D2           mov         r10d,edx
  0000000140002801: 41 89 CB           mov         r11d,ecx
  0000000140002804: 41 F7 C7 00 00 00  test        r15d,20000000h
                    20
  000000014000280B: 74 17              je          0000000140002824
  000000014000280D: B9 24 00 00 00     mov         ecx,24h
  0000000140002812: 48 8D 44 24 20     lea         rax,[rsp+20h]
  0000000140002817: E8 74 F3 FF FF     call        0000000140001B90
  000000014000281C: 85 C0              test        eax,eax
  000000014000281E: 0F 85 5E 06 00 00  jne         0000000140002E82
  0000000140002824: 41 F7 C1 00 00 00  test        r9d,40000000h
                    40
  000000014000282B: 74 2E              je          000000014000285B
  000000014000282D: B9 12 00 00 00     mov         ecx,12h
  0000000140002832: 48 8D 44 24 20     lea         rax,[rsp+20h]
  0000000140002837: E8 54 F3 FF FF     call        0000000140001B90
  000000014000283C: 85 C0              test        eax,eax
  000000014000283E: 0F 85 3E 06 00 00  jne         0000000140002E82
  0000000140002844: 45 84 C0           test        r8b,r8b
  0000000140002847: 75 12              jne         000000014000285B
  0000000140002849: B8 07 00 00 00     mov         eax,7
  000000014000284E: 33 C9              xor         ecx,ecx
  0000000140002850: 0F A2              cpuid
  0000000140002852: 41 89 D2           mov         r10d,edx
  0000000140002855: 41 89 CB           mov         r11d,ecx
  0000000140002858: 41 89 DF           mov         r15d,ebx
  000000014000285B: 44 89 F8           mov         eax,r15d
  000000014000285E: 25 08 01 00 00     and         eax,108h
  0000000140002863: 3D 08 01 00 00     cmp         eax,108h
  0000000140002868: 75 17              jne         0000000140002881
  000000014000286A: B9 14 00 00 00     mov         ecx,14h
  000000014000286F: 48 8D 44 24 20     lea         rax,[rsp+20h]
  0000000140002874: E8 17 F3 FF FF     call        0000000140001B90
  0000000140002879: 85 C0              test        eax,eax
  000000014000287B: 0F 85 01 06 00 00  jne         0000000140002E82
  0000000140002881: 41 F7 C7 04 00 00  test        r15d,4
                    00
  0000000140002888: 74 17              je          00000001400028A1
  000000014000288A: B9 36 00 00 00     mov         ecx,36h
  000000014000288F: 48 8D 44 24 20     lea         rax,[rsp+20h]
  0000000140002894: E8 F7 F2 FF FF     call        0000000140001B90
  0000000140002899: 85 C0              test        eax,eax
  000000014000289B: 0F 85 E1 05 00 00  jne         0000000140002E82
  00000001400028A1: 41 F7 C7 10 00 00  test        r15d,10h
                    00
  00000001400028A8: 74 17              je          00000001400028C1
  00000001400028AA: B9 16 00 00 00     mov         ecx,16h
  00000001400028AF: 48 8D 44 24 20     lea         rax,[rsp+20h]
  00000001400028B4: E8 D7 F2 FF FF     call        0000000140001B90
  00000001400028B9: 85 C0              test        eax,eax
  00000001400028BB: 0F 85 C1 05 00 00  jne         0000000140002E82
  00000001400028C1: 41 F7 C7 00 08 00  test        r15d,800h
                    00
  00000001400028C8: 74 17              je          00000001400028E1
  00000001400028CA: B9 17 00 00 00     mov         ecx,17h
  00000001400028CF: 48 8D 44 24 20     lea         rax,[rsp+20h]
  00000001400028D4: E8 B7 F2 FF FF     call        0000000140001B90
  00000001400028D9: 85 C0              test        eax,eax
  00000001400028DB: 0F 85 A1 05 00 00  jne         0000000140002E82
  00000001400028E1: 41 F7 C7 00 00 08  test        r15d,80000h
                    00
  00000001400028E8: 74 17              je          0000000140002901
  00000001400028EA: B9 1D 00 00 00     mov         ecx,1Dh
  00000001400028EF: 48 8D 44 24 20     lea         rax,[rsp+20h]
  00000001400028F4: E8 97 F2 FF FF     call        0000000140001B90
  00000001400028F9: 85 C0              test        eax,eax
  00000001400028FB: 0F 85 81 05 00 00  jne         0000000140002E82
  0000000140002901: 41 F7 C7 00 00 04  test        r15d,40000h
                    00
  0000000140002908: 74 17              je          0000000140002921
  000000014000290A: B9 1E 00 00 00     mov         ecx,1Eh
  000000014000290F: 48 8D 44 24 20     lea         rax,[rsp+20h]
  0000000140002914: E8 77 F2 FF FF     call        0000000140001B90
  0000000140002919: 85 C0              test        eax,eax
  000000014000291B: 0F 85 61 05 00 00  jne         0000000140002E82
  0000000140002921: 41 F7 C7 00 00 00  test        r15d,1000000h
                    01
  0000000140002928: 74 17              je          0000000140002941
  000000014000292A: B9 32 00 00 00     mov         ecx,32h
  000000014000292F: 48 8D 44 24 20     lea         rax,[rsp+20h]
  0000000140002934: E8 57 F2 FF FF     call        0000000140001B90
  0000000140002939: 85 C0              test        eax,eax
  000000014000293B: 0F 85 41 05 00 00  jne         0000000140002E82
  0000000140002941: B8 01 00 00 80     mov         eax,80000001h
  0000000140002946: 0F A2              cpuid
  0000000140002948: F6 C1 20           test        cl,20h
  000000014000294B: 74 17              je          0000000140002964
  000000014000294D: B9 15 00 00 00     mov         ecx,15h
  0000000140002952: 48 8D 44 24 20     lea         rax,[rsp+20h]
  0000000140002957: E8 34 F2 FF FF     call        0000000140001B90
  000000014000295C: 85 C0              test        eax,eax
  000000014000295E: 0F 85 1E 05 00 00  jne         0000000140002E82
  0000000140002964: B8 08 00 00 80     mov         eax,80000008h
  0000000140002969: 0F A2              cpuid
  000000014000296B: F7 C3 00 02 00 00  test        ebx,200h
  0000000140002971: 74 17              je          000000014000298A
  0000000140002973: B9 37 00 00 00     mov         ecx,37h
  0000000140002978: 48 8D 44 24 20     lea         rax,[rsp+20h]
  000000014000297D: E8 0E F2 FF FF     call        0000000140001B90
  0000000140002982: 85 C0              test        eax,eax
  0000000140002984: 0F 85 F8 04 00 00  jne         0000000140002E82
  000000014000298A: 41 F7 C3 20 00 00  test        r11d,20h
                    00
  0000000140002991: 74 17              je          00000001400029AA
  0000000140002993: B9 3D 00 00 00     mov         ecx,3Dh
  0000000140002998: 48 8D 44 24 20     lea         rax,[rsp+20h]
  000000014000299D: E8 EE F1 FF FF     call        0000000140001B90
  00000001400029A2: 85 C0              test        eax,eax
  00000001400029A4: 0F 85 D8 04 00 00  jne         0000000140002E82
  00000001400029AA: 41 F7 C3 80 00 00  test        r11d,80h
                    00
  00000001400029B1: 74 17              je          00000001400029CA
  00000001400029B3: B9 35 00 00 00     mov         ecx,35h
  00000001400029B8: 48 8D 44 24 20     lea         rax,[rsp+20h]
  00000001400029BD: E8 CE F1 FF FF     call        0000000140001B90
  00000001400029C2: 85 C0              test        eax,eax
  00000001400029C4: 0F 85 B8 04 00 00  jne         0000000140002E82
  00000001400029CA: 41 F7 C3 00 01 00  test        r11d,100h
                    00
  00000001400029D1: 74 17              je          00000001400029EA
  00000001400029D3: B9 2E 00 00 00     mov         ecx,2Eh
  00000001400029D8: 48 8D 44 24 20     lea         rax,[rsp+20h]
  00000001400029DD: E8 AE F1 FF FF     call        0000000140001B90
  00000001400029E2: 85 C0              test        eax,eax
  00000001400029E4: 0F 85 98 04 00 00  jne         0000000140002E82
  00000001400029EA: 41 F7 C3 00 00 40  test        r11d,400000h
                    00
  00000001400029F1: 74 17              je          0000000140002A0A
  00000001400029F3: B9 33 00 00 00     mov         ecx,33h
  00000001400029F8: 48 8D 44 24 20     lea         rax,[rsp+20h]
  00000001400029FD: E8 8E F1 FF FF     call        0000000140001B90
  0000000140002A02: 85 C0              test        eax,eax
  0000000140002A04: 0F 85 78 04 00 00  jne         0000000140002E82
  0000000140002A0A: 41 F7 C3 00 00 00  test        r11d,1000000h
                    01
  0000000140002A11: 74 17              je          0000000140002A2A
  0000000140002A13: B9 3A 00 00 00     mov         ecx,3Ah
  0000000140002A18: 48 8D 44 24 20     lea         rax,[rsp+20h]
  0000000140002A1D: E8 6E F1 FF FF     call        0000000140001B90
  0000000140002A22: 85 C0              test        eax,eax
  0000000140002A24: 0F 85 58 04 00 00  jne         0000000140002E82
  0000000140002A2A: 41 F7 C3 00 00 00  test        r11d,8000000h
                    08
  0000000140002A31: 74 17              je          0000000140002A4A
  0000000140002A33: B9 3B 00 00 00     mov         ecx,3Bh
  0000000140002A38: 48 8D 44 24 20     lea         rax,[rsp+20h]
  0000000140002A3D: E8 4E F1 FF FF     call        0000000140001B90
  0000000140002A42: 85 C0              test        eax,eax
  0000000140002A44: 0F 85 38 04 00 00  jne         0000000140002E82
  0000000140002A4A: 41 F7 C3 00 00 00  test        r11d,10000000h
                    10
  0000000140002A51: 74 17              je          0000000140002A6A
  0000000140002A53: B9 3C 00 00 00     mov         ecx,3Ch
  0000000140002A58: 48 8D 44 24 20     lea         rax,[rsp+20h]
  0000000140002A5D: E8 2E F1 FF FF     call        0000000140001B90
  0000000140002A62: 85 C0              test        eax,eax
  0000000140002A64: 0F 85 18 04 00 00  jne         0000000140002E82
  0000000140002A6A: 41 F7 C3 00 00 00  test        r11d,20000000h
                    20
  0000000140002A71: 74 17              je          0000000140002A8A
  0000000140002A73: B9 3F 00 00 00     mov         ecx,3Fh
  0000000140002A78: 48 8D 44 24 20     lea         rax,[rsp+20h]
  0000000140002A7D: E8 0E F1 FF FF     call        0000000140001B90
  0000000140002A82: 85 C0              test        eax,eax
  0000000140002A84: 0F 85 F8 03 00 00  jne         0000000140002E82
  0000000140002A8A: 41 F7 C2 00 00 10  test        r10d,100000h
                    00
  0000000140002A91: 74 17              je          0000000140002AAA
  0000000140002A93: B9 34 00 00 00     mov         ecx,34h
  0000000140002A98: 48 8D 44 24 20     lea         rax,[rsp+20h]
  0000000140002A9D: E8 EE F0 FF FF     call        0000000140001B90
  0000000140002AA2: 85 C0              test        eax,eax
  0000000140002AA4: 0F 85 D8 03 00 00  jne         0000000140002E82
  0000000140002AAA: 41 F7 C2 00 00 04  test        r10d,40000h
                    00
  0000000140002AB1: 74 17              je          0000000140002ACA
  0000000140002AB3: B9 38 00 00 00     mov         ecx,38h
  0000000140002AB8: 48 8D 44 24 20     lea         rax,[rsp+20h]
  0000000140002ABD: E8 CE F0 FF FF     call        0000000140001B90
  0000000140002AC2: 85 C0              test        eax,eax
  0000000140002AC4: 0F 85 B8 03 00 00  jne         0000000140002E82
  0000000140002ACA: B8 14 00 00 00     mov         eax,14h
  0000000140002ACF: 33 C9              xor         ecx,ecx
  0000000140002AD1: 0F A2              cpuid
  0000000140002AD3: F6 C3 10           test        bl,10h
  0000000140002AD6: 74 17              je          0000000140002AEF
  0000000140002AD8: B9 1B 00 00 00     mov         ecx,1Bh
  0000000140002ADD: 48 8D 44 24 20     lea         rax,[rsp+20h]
  0000000140002AE2: E8 A9 F0 FF FF     call        0000000140001B90
  0000000140002AE7: 85 C0              test        eax,eax
  0000000140002AE9: 0F 85 93 03 00 00  jne         0000000140002E82
  0000000140002AEF: 41 F7 C1 00 00 00  test        r9d,8000000h
                    08
  0000000140002AF6: 0F 84 C0 03 00 00  je          0000000140002EBC
  0000000140002AFC: B9 01 00 00 00     mov         ecx,1
  0000000140002B01: 48 8D 44 24 20     lea         rax,[rsp+20h]
  0000000140002B06: E8 85 F0 FF FF     call        0000000140001B90
  0000000140002B0B: 85 C0              test        eax,eax
  0000000140002B0D: 0F 85 6F 03 00 00  jne         0000000140002E82
  0000000140002B13: 33 C9              xor         ecx,ecx
  0000000140002B15: 0F 01 D0           xgetbv
  0000000140002B18: 89 C2              mov         edx,eax
  0000000140002B1A: 89 D1              mov         ecx,edx
  0000000140002B1C: 83 E1 06           and         ecx,6
  0000000140002B1F: 83 F9 06           cmp         ecx,6
  0000000140002B22: 0F 85 94 03 00 00  jne         0000000140002EBC
  0000000140002B28: B9 01 00 00 00     mov         ecx,1
  0000000140002B2D: 48 8D 44 24 20     lea         rax,[rsp+20h]
  0000000140002B32: E8 59 F0 FF FF     call        0000000140001B90
  0000000140002B37: 85 C0              test        eax,eax
  0000000140002B39: 0F 85 43 03 00 00  jne         0000000140002E82
  0000000140002B3F: 41 F7 C1 00 00 00  test        r9d,10000000h
                    10
  0000000140002B46: 74 57              je          0000000140002B9F
  0000000140002B48: B9 10 00 00 00     mov         ecx,10h
  0000000140002B4D: 48 8D 44 24 20     lea         rax,[rsp+20h]
  0000000140002B52: E8 39 F0 FF FF     call        0000000140001B90
  0000000140002B57: 85 C0              test        eax,eax
  0000000140002B59: 0F 85 23 03 00 00  jne         0000000140002E82
  0000000140002B5F: 41 F7 C3 00 02 00  test        r11d,200h
                    00
  0000000140002B66: 74 17              je          0000000140002B7F
  0000000140002B68: B9 2F 00 00 00     mov         ecx,2Fh
  0000000140002B6D: 48 8D 44 24 20     lea         rax,[rsp+20h]
  0000000140002B72: E8 19 F0 FF FF     call        0000000140001B90
  0000000140002B77: 85 C0              test        eax,eax
  0000000140002B79: 0F 85 03 03 00 00  jne         0000000140002E82
  0000000140002B7F: 41 F7 C3 00 04 00  test        r11d,400h
                    00
  0000000140002B86: 74 17              je          0000000140002B9F
  0000000140002B88: B9 30 00 00 00     mov         ecx,30h
  0000000140002B8D: 48 8D 44 24 20     lea         rax,[rsp+20h]
  0000000140002B92: E8 F9 EF FF FF     call        0000000140001B90
  0000000140002B97: 85 C0              test        eax,eax
  0000000140002B99: 0F 85 E3 02 00 00  jne         0000000140002E82
  0000000140002B9F: 41 F7 C1 00 00 00  test        r9d,20000000h
                    20
  0000000140002BA6: 74 17              je          0000000140002BBF
  0000000140002BA8: B9 11 00 00 00     mov         ecx,11h
  0000000140002BAD: 48 8D 44 24 20     lea         rax,[rsp+20h]
  0000000140002BB2: E8 D9 EF FF FF     call        0000000140001B90
  0000000140002BB7: 85 C0              test        eax,eax
  0000000140002BB9: 0F 85 C3 02 00 00  jne         0000000140002E82
  0000000140002BBF: 41 F7 C7 20 00 00  test        r15d,20h
                    00
  0000000140002BC6: 74 17              je          0000000140002BDF
  0000000140002BC8: B9 18 00 00 00     mov         ecx,18h
  0000000140002BCD: 48 8D 44 24 20     lea         rax,[rsp+20h]
  0000000140002BD2: E8 B9 EF FF FF     call        0000000140001B90
  0000000140002BD7: 85 C0              test        eax,eax
  0000000140002BD9: 0F 85 A3 02 00 00  jne         0000000140002E82
  0000000140002BDF: 41 F7 C1 00 10 00  test        r9d,1000h
                    00
  0000000140002BE6: 74 17              je          0000000140002BFF
  0000000140002BE8: B9 13 00 00 00     mov         ecx,13h
  0000000140002BED: 48 8D 44 24 20     lea         rax,[rsp+20h]
  0000000140002BF2: E8 99 EF FF FF     call        0000000140001B90
  0000000140002BF7: 85 C0              test        eax,eax
  0000000140002BF9: 0F 85 83 02 00 00  jne         0000000140002E82
  0000000140002BFF: 89 D0              mov         eax,edx
  0000000140002C01: 83 E0 18           and         eax,18h
  0000000140002C04: 83 F8 18           cmp         eax,18h
  0000000140002C07: 75 37              jne         0000000140002C40
  0000000140002C09: B9 01 00 00 00     mov         ecx,1
  0000000140002C0E: 48 8D 44 24 20     lea         rax,[rsp+20h]
  0000000140002C13: E8 78 EF FF FF     call        0000000140001B90
  0000000140002C18: 85 C0              test        eax,eax
  0000000140002C1A: 0F 85 62 02 00 00  jne         0000000140002E82
  0000000140002C20: 41 F7 C7 00 40 00  test        r15d,4000h
                    00
  0000000140002C27: 74 17              je          0000000140002C40
  0000000140002C29: B9 25 00 00 00     mov         ecx,25h
  0000000140002C2E: 48 8D 44 24 20     lea         rax,[rsp+20h]
  0000000140002C33: E8 58 EF FF FF     call        0000000140001B90
  0000000140002C38: 85 C0              test        eax,eax
  0000000140002C3A: 0F 85 42 02 00 00  jne         0000000140002E82
  0000000140002C40: 81 E2 E0 00 00 00  and         edx,0E0h
  0000000140002C46: 81 FA E0 00 00 00  cmp         edx,0E0h
  0000000140002C4C: 0F 85 6A 02 00 00  jne         0000000140002EBC
  0000000140002C52: B9 01 00 00 00     mov         ecx,1
  0000000140002C57: 48 8D 44 24 20     lea         rax,[rsp+20h]
  0000000140002C5C: E8 2F EF FF FF     call        0000000140001B90
  0000000140002C61: 85 C0              test        eax,eax
  0000000140002C63: 0F 85 19 02 00 00  jne         0000000140002E82
  0000000140002C69: 41 F7 C7 00 00 01  test        r15d,10000h
                    00
  0000000140002C70: 74 17              je          0000000140002C89
  0000000140002C72: B9 19 00 00 00     mov         ecx,19h
  0000000140002C77: 48 8D 44 24 20     lea         rax,[rsp+20h]
  0000000140002C7C: E8 0F EF FF FF     call        0000000140001B90
  0000000140002C81: 85 C0              test        eax,eax
  0000000140002C83: 0F 85 F9 01 00 00  jne         0000000140002E82
  0000000140002C89: 41 F7 C7 00 00 00  test        r15d,10000000h
                    10
  0000000140002C90: 74 17              je          0000000140002CA9
  0000000140002C92: B9 23 00 00 00     mov         ecx,23h
  0000000140002C97: 48 8D 44 24 20     lea         rax,[rsp+20h]
  0000000140002C9C: E8 EF EE FF FF     call        0000000140001B90
  0000000140002CA1: 85 C0              test        eax,eax
  0000000140002CA3: 0F 85 D9 01 00 00  jne         0000000140002E82
  0000000140002CA9: 41 F7 C7 00 00 00  test        r15d,8000000h
                    08
  0000000140002CB0: 74 17              je          0000000140002CC9
  0000000140002CB2: B9 21 00 00 00     mov         ecx,21h
  0000000140002CB7: 48 8D 44 24 20     lea         rax,[rsp+20h]
  0000000140002CBC: E8 CF EE FF FF     call        0000000140001B90
  0000000140002CC1: 85 C0              test        eax,eax
  0000000140002CC3: 0F 85 B9 01 00 00  jne         0000000140002E82
  0000000140002CC9: 41 F7 C7 00 00 00  test        r15d,4000000h
                    04
  0000000140002CD0: 74 17              je          0000000140002CE9
  0000000140002CD2: B9 22 00 00 00     mov         ecx,22h
  0000000140002CD7: 48 8D 44 24 20     lea         rax,[rsp+20h]
  0000000140002CDC: E8 AF EE FF FF     call        0000000140001B90
  0000000140002CE1: 85 C0              test        eax,eax
  0000000140002CE3: 0F 85 99 01 00 00  jne         0000000140002E82
  0000000140002CE9: 41 F7 C7 00 00 02  test        r15d,20000h
                    00
  0000000140002CF0: 74 17              je          0000000140002D09
  0000000140002CF2: B9 1A 00 00 00     mov         ecx,1Ah
  0000000140002CF7: 48 8D 44 24 20     lea         rax,[rsp+20h]
  0000000140002CFC: E8 8F EE FF FF     call        0000000140001B90
  0000000140002D01: 85 C0              test        eax,eax
  0000000140002D03: 0F 85 79 01 00 00  jne         0000000140002E82
  0000000140002D09: 41 F7 C7 00 00 00  test        r15d,40000000h
                    40
  0000000140002D10: 74 17              je          0000000140002D29
  0000000140002D12: B9 26 00 00 00     mov         ecx,26h
  0000000140002D17: 48 8D 44 24 20     lea         rax,[rsp+20h]
  0000000140002D1C: E8 6F EE FF FF     call        0000000140001B90
  0000000140002D21: 85 C0              test        eax,eax
  0000000140002D23: 0F 85 59 01 00 00  jne         0000000140002E82
  0000000140002D29: 44 89 F8           mov         eax,r15d
  0000000140002D2C: 25 00 00 00 80     and         eax,80000000h
  0000000140002D31: 3D 00 00 00 80     cmp         eax,80000000h
  0000000140002D36: 75 17              jne         0000000140002D4F
  0000000140002D38: B9 27 00 00 00     mov         ecx,27h
  0000000140002D3D: 48 8D 44 24 20     lea         rax,[rsp+20h]
  0000000140002D42: E8 49 EE FF FF     call        0000000140001B90
  0000000140002D47: 85 C0              test        eax,eax
  0000000140002D49: 0F 85 33 01 00 00  jne         0000000140002E82
  0000000140002D4F: 41 F7 C7 00 00 20  test        r15d,200000h
                    00
  0000000140002D56: 74 17              je          0000000140002D6F
  0000000140002D58: B9 1F 00 00 00     mov         ecx,1Fh
  0000000140002D5D: 48 8D 44 24 20     lea         rax,[rsp+20h]
  0000000140002D62: E8 29 EE FF FF     call        0000000140001B90
  0000000140002D67: 85 C0              test        eax,eax
  0000000140002D69: 0F 85 13 01 00 00  jne         0000000140002E82
  0000000140002D6F: 41 F7 C3 02 00 00  test        r11d,2
                    00
  0000000140002D76: 74 17              je          0000000140002D8F
  0000000140002D78: B9 28 00 00 00     mov         ecx,28h
  0000000140002D7D: 48 8D 44 24 20     lea         rax,[rsp+20h]
  0000000140002D82: E8 09 EE FF FF     call        0000000140001B90
  0000000140002D87: 85 C0              test        eax,eax
  0000000140002D89: 0F 85 F3 00 00 00  jne         0000000140002E82
  0000000140002D8F: 41 F7 C3 00 40 00  test        r11d,4000h
                    00
  0000000140002D96: 74 17              je          0000000140002DAF
  0000000140002D98: B9 2B 00 00 00     mov         ecx,2Bh
  0000000140002D9D: 48 8D 44 24 20     lea         rax,[rsp+20h]
  0000000140002DA2: E8 E9 ED FF FF     call        0000000140001B90
  0000000140002DA7: 85 C0              test        eax,eax
  0000000140002DA9: 0F 85 D3 00 00 00  jne         0000000140002E82
  0000000140002DAF: 41 F7 C2 04 00 00  test        r10d,4
                    00
  0000000140002DB6: 74 17              je          0000000140002DCF
  0000000140002DB8: B9 2A 00 00 00     mov         ecx,2Ah
  0000000140002DBD: 48 8D 44 24 20     lea         rax,[rsp+20h]
  0000000140002DC2: E8 C9 ED FF FF     call        0000000140001B90
  0000000140002DC7: 85 C0              test        eax,eax
  0000000140002DC9: 0F 85 B3 00 00 00  jne         0000000140002E82
  0000000140002DCF: 41 F7 C2 08 00 00  test        r10d,8
                    00
  0000000140002DD6: 74 17              je          0000000140002DEF
  0000000140002DD8: B9 29 00 00 00     mov         ecx,29h
  0000000140002DDD: 48 8D 44 24 20     lea         rax,[rsp+20h]
  0000000140002DE2: E8 A9 ED FF FF     call        0000000140001B90
  0000000140002DE7: 85 C0              test        eax,eax
  0000000140002DE9: 0F 85 93 00 00 00  jne         0000000140002E82
  0000000140002DEF: 41 F7 C3 00 10 00  test        r11d,1000h
                    00
  0000000140002DF6: 74 13              je          0000000140002E0B
  0000000140002DF8: B9 2C 00 00 00     mov         ecx,2Ch
  0000000140002DFD: 48 8D 44 24 20     lea         rax,[rsp+20h]
  0000000140002E02: E8 89 ED FF FF     call        0000000140001B90
  0000000140002E07: 85 C0              test        eax,eax
  0000000140002E09: 75 77              jne         0000000140002E82
  0000000140002E0B: 41 F7 C3 40 00 00  test        r11d,40h
                    00
  0000000140002E12: 74 13              je          0000000140002E27
  0000000140002E14: B9 2D 00 00 00     mov         ecx,2Dh
  0000000140002E19: 48 8D 44 24 20     lea         rax,[rsp+20h]
  0000000140002E1E: E8 6D ED FF FF     call        0000000140001B90
  0000000140002E23: 85 C0              test        eax,eax
  0000000140002E25: 75 5B              jne         0000000140002E82
  0000000140002E27: 41 F7 C3 00 08 00  test        r11d,800h
                    00
  0000000140002E2E: 74 13              je          0000000140002E43
  0000000140002E30: B9 31 00 00 00     mov         ecx,31h
  0000000140002E35: 48 8D 44 24 20     lea         rax,[rsp+20h]
  0000000140002E3A: E8 51 ED FF FF     call        0000000140001B90
  0000000140002E3F: 85 C0              test        eax,eax
  0000000140002E41: 75 3F              jne         0000000140002E82
  0000000140002E43: B8 07 00 00 00     mov         eax,7
  0000000140002E48: B9 01 00 00 00     mov         ecx,1
  0000000140002E4D: 0F A2              cpuid
  0000000140002E4F: A8 20              test        al,20h
  0000000140002E51: 74 13              je          0000000140002E66
  0000000140002E53: B9 3E 00 00 00     mov         ecx,3Eh
  0000000140002E58: 48 8D 44 24 20     lea         rax,[rsp+20h]
  0000000140002E5D: E8 2E ED FF FF     call        0000000140001B90
  0000000140002E62: 85 C0              test        eax,eax
  0000000140002E64: 75 1C              jne         0000000140002E82
  0000000140002E66: 41 F7 C2 00 01 00  test        r10d,100h
                    00
  0000000140002E6D: 74 4D              je          0000000140002EBC
  0000000140002E6F: B9 39 00 00 00     mov         ecx,39h
  0000000140002E74: 48 8D 44 24 20     lea         rax,[rsp+20h]
  0000000140002E79: E8 12 ED FF FF     call        0000000140001B90
  0000000140002E7E: 85 C0              test        eax,eax
  0000000140002E80: 74 3A              je          0000000140002EBC
  0000000140002E82: 0F 10 44 24 60     movups      xmm0,xmmword ptr [rsp+60h]
  0000000140002E87: 0F 10 4C 24 50     movups      xmm1,xmmword ptr [rsp+50h]
  0000000140002E8C: 0F 10 54 24 70     movups      xmm2,xmmword ptr [rsp+70h]
  0000000140002E91: 0F 10 9C 24 90 00  movups      xmm3,xmmword ptr [rsp+0000000000000090h]
                    00 00
  0000000140002E99: 0F 10 A4 24 80 00  movups      xmm4,xmmword ptr [rsp+0000000000000080h]
                    00 00
  0000000140002EA1: 0F 10 6C 24 40     movups      xmm5,xmmword ptr [rsp+40h]
  0000000140002EA6: 48 81 C4 B0 00 00  add         rsp,0B0h
                    00
  0000000140002EAD: 41 5F              pop         r15
  0000000140002EAF: 41 5B              pop         r11
  0000000140002EB1: 41 5A              pop         r10
  0000000140002EB3: 41 59              pop         r9
  0000000140002EB5: 41 58              pop         r8
  0000000140002EB7: 5E                 pop         rsi
  0000000140002EB8: 5B                 pop         rbx
  0000000140002EB9: 59                 pop         rcx
  0000000140002EBA: 5A                 pop         rdx
  0000000140002EBB: C3                 ret
  0000000140002EBC: 48 8D 0D F5 68 00  lea         rcx,[00000001400097B8h]
                    00
  0000000140002EC3: E8 54 50 00 00     call        0000000140007F1C
  0000000140002EC8: 48 89 C3           mov         rbx,rax
  0000000140002ECB: E8 52 50 00 00     call        0000000140007F22
  0000000140002ED0: C7 00 00 00 00 00  mov         dword ptr [rax],0
  0000000140002ED6: 48 85 DB           test        rbx,rbx
  0000000140002ED9: 74 23              je          0000000140002EFE
  0000000140002EDB: 48 89 D9           mov         rcx,rbx
  0000000140002EDE: 48 8D 54 24 30     lea         rdx,[rsp+30h]
  0000000140002EE3: E8 28 EA FF FF     call        0000000140001910
  0000000140002EE8: 85 C0              test        eax,eax
  0000000140002EEA: 7E 12              jle         0000000140002EFE
  0000000140002EEC: F3 0F 6F 44 24 30  movdqu      xmm0,xmmword ptr [rsp+30h]
  0000000140002EF2: 66 0F DF 44 24 20  pandn       xmm0,xmmword ptr [rsp+20h]
  0000000140002EF8: F3 0F 7F 44 24 20  movdqu      xmmword ptr [rsp+20h],xmm0
  0000000140002EFE: 83 FE 01           cmp         esi,1
  0000000140002F01: 0F 84 9A 00 00 00  je          0000000140002FA1
  0000000140002F07: 48 8D 05 C2 A0 00  lea         rax,[000000014000CFD0h]
                    00
  0000000140002F0E: 48 8D 4C 24 20     lea         rcx,[rsp+20h]
  0000000140002F13: E8 58 EC FF FF     call        0000000140001B70
  0000000140002F18: 0F 10 44 24 60     movups      xmm0,xmmword ptr [rsp+60h]
  0000000140002F1D: 33 C0              xor         eax,eax
  0000000140002F1F: 0F 10 4C 24 50     movups      xmm1,xmmword ptr [rsp+50h]
  0000000140002F24: 0F 10 54 24 70     movups      xmm2,xmmword ptr [rsp+70h]
  0000000140002F29: 0F 10 9C 24 90 00  movups      xmm3,xmmword ptr [rsp+0000000000000090h]
                    00 00
  0000000140002F31: 0F 10 A4 24 80 00  movups      xmm4,xmmword ptr [rsp+0000000000000080h]
                    00 00
  0000000140002F39: 0F 10 6C 24 40     movups      xmm5,xmmword ptr [rsp+40h]
  0000000140002F3E: 48 81 C4 B0 00 00  add         rsp,0B0h
                    00
  0000000140002F45: 41 5F              pop         r15
  0000000140002F47: 41 5B              pop         r11
  0000000140002F49: 41 5A              pop         r10
  0000000140002F4B: 41 59              pop         r9
  0000000140002F4D: 41 58              pop         r8
  0000000140002F4F: 5E                 pop         rsi
  0000000140002F50: 5B                 pop         rbx
  0000000140002F51: 59                 pop         rcx
  0000000140002F52: 5A                 pop         rdx
  0000000140002F53: C3                 ret
  0000000140002F54: 48 8D 05 65 A0 00  lea         rax,[000000014000CFC0h]
                    00
  0000000140002F5B: 48 8D 4C 24 20     lea         rcx,[rsp+20h]
  0000000140002F60: E8 0B EC FF FF     call        0000000140001B70
  0000000140002F65: 0F 10 44 24 60     movups      xmm0,xmmword ptr [rsp+60h]
  0000000140002F6A: 33 C0              xor         eax,eax
  0000000140002F6C: 0F 10 4C 24 50     movups      xmm1,xmmword ptr [rsp+50h]
  0000000140002F71: 0F 10 54 24 70     movups      xmm2,xmmword ptr [rsp+70h]
  0000000140002F76: 0F 10 9C 24 90 00  movups      xmm3,xmmword ptr [rsp+0000000000000090h]
                    00 00
  0000000140002F7E: 0F 10 A4 24 80 00  movups      xmm4,xmmword ptr [rsp+0000000000000080h]
                    00 00
  0000000140002F86: 0F 10 6C 24 40     movups      xmm5,xmmword ptr [rsp+40h]
  0000000140002F8B: 48 81 C4 B0 00 00  add         rsp,0B0h
                    00
  0000000140002F92: 41 5F              pop         r15
  0000000140002F94: 41 5B              pop         r11
  0000000140002F96: 41 5A              pop         r10
  0000000140002F98: 41 59              pop         r9
  0000000140002F9A: 41 58              pop         r8
  0000000140002F9C: 5E                 pop         rsi
  0000000140002F9D: 5B                 pop         rbx
  0000000140002F9E: 59                 pop         rcx
  0000000140002F9F: 5A                 pop         rdx
  0000000140002FA0: C3                 ret
  0000000140002FA1: 48 8D 05 18 A0 00  lea         rax,[000000014000CFC0h]
                    00
  0000000140002FA8: 48 8D 4C 24 20     lea         rcx,[rsp+20h]
  0000000140002FAD: E8 BE EB FF FF     call        0000000140001B70
  0000000140002FB2: E9 50 FF FF FF     jmp         0000000140002F07
  0000000140002FB7: 81 BC 24 A4 00 00  cmp         dword ptr [rsp+00000000000000A4h],756E6547h
                    00 47 65 6E 75
  0000000140002FC2: 75 90              jne         0000000140002F54
  0000000140002FC4: 81 BC 24 AC 00 00  cmp         dword ptr [rsp+00000000000000ACh],49656E69h
                    00 69 6E 65 49
  0000000140002FCF: 75 83              jne         0000000140002F54
  0000000140002FD1: 81 BC 24 A8 00 00  cmp         dword ptr [rsp+00000000000000A8h],6C65746Eh
                    00 6E 74 65 6C
  0000000140002FDC: 0F 85 72 FF FF FF  jne         0000000140002F54
  0000000140002FE2: E9 35 F6 FF FF     jmp         000000014000261C
  0000000140002FE7: 66 0F 1F 84 00 00  nop         word ptr [rax+rax+0000000000000000h]
                    00 00 00
  0000000140002FF0: 56                 push        rsi
  0000000140002FF1: 57                 push        rdi
  0000000140002FF2: 55                 push        rbp
  0000000140002FF3: 48 83 EC 40        sub         rsp,40h
  0000000140002FF7: 48 89 CF           mov         rdi,rcx
  0000000140002FFA: 48 89 54 24 68     mov         qword ptr [rsp+68h],rdx
  0000000140002FFF: 48 8D 44 24 70     lea         rax,[rsp+70h]
  0000000140003004: 4C 89 00           mov         qword ptr [rax],r8
  0000000140003007: 4C 89 48 08        mov         qword ptr [rax+8],r9
  000000014000300B: 48 89 44 24 30     mov         qword ptr [rsp+30h],rax
  0000000140003010: 48 8B 74 24 68     mov         rsi,qword ptr [rsp+68h]
  0000000140003015: 48 8B 6C 24 30     mov         rbp,qword ptr [rsp+30h]
  000000014000301A: E8 91 E2 FF FF     call        00000001400012B0
  000000014000301F: 49 89 E2           mov         r10,rsp
  0000000140003022: 48 89 FA           mov         rdx,rdi
  0000000140003025: 49 C7 C0 FF FF FF  mov         r8,0FFFFFFFFFFFFFFFFh
                    FF
  000000014000302C: 49 89 F1           mov         r9,rsi
  000000014000302F: 48 8B 08           mov         rcx,qword ptr [rax]
  0000000140003032: 48 83 C9 01        or          rcx,1
  0000000140003036: 49 C7 42 20 00 00  mov         qword ptr [r10+20h],0
                    00 00
  000000014000303E: 49 89 6A 28        mov         qword ptr [r10+28h],rbp
  0000000140003042: E8 E1 4E 00 00     call        0000000140007F28
  0000000140003047: BA FF FF FF FF     mov         edx,0FFFFFFFFh
  000000014000304C: 85 C0              test        eax,eax
  000000014000304E: 48 C7 44 24 30 00  mov         qword ptr [rsp+30h],0
                    00 00 00
  0000000140003057: 0F 4C C2           cmovl       eax,edx
  000000014000305A: 48 83 C4 40        add         rsp,40h
  000000014000305E: 5D                 pop         rbp
  000000014000305F: 5F                 pop         rdi
  0000000140003060: 5E                 pop         rsi
  0000000140003061: C3                 ret
  0000000140003062: 0F 1F 80 00 00 00  nop         dword ptr [rax+0000000000000000h]
                    00
  0000000140003069: 0F 1F 80 00 00 00  nop         dword ptr [rax+0000000000000000h]
                    00
  0000000140003070: 41 55              push        r13
  0000000140003072: 41 56              push        r14
  0000000140003074: 48 81 EC D8 00 00  sub         rsp,0D8h
                    00
  000000014000307B: 41 89 CE           mov         r14d,ecx
  000000014000307E: 89 94 24 F8 00 00  mov         dword ptr [rsp+00000000000000F8h],edx
                    00
  0000000140003085: 4C 89 84 24 00 01  mov         qword ptr [rsp+0000000000000100h],r8
                    00 00
  000000014000308D: 4C 89 8C 24 08 01  mov         qword ptr [rsp+0000000000000108h],r9
                    00 00
  0000000140003095: 48 8B 05 8C 8F 00  mov         rax,qword ptr [000000014000C028h]
                    00
  000000014000309C: 48 33 C4           xor         rax,rsp
  000000014000309F: 48 89 84 24 D0 00  mov         qword ptr [rsp+00000000000000D0h],rax
                    00 00
  00000001400030A7: 45 85 F6           test        r14d,r14d
  00000001400030AA: 0F 84 FB 00 00 00  je          00000001400031AB
  00000001400030B0: 83 3D 79 8F 00 00  cmp         dword ptr [000000014000C030h],0
                    00
  00000001400030B7: 74 4E              je          0000000140003107
  00000001400030B9: C7 05 6D 8F 00 00  mov         dword ptr [000000014000C030h],0
                    00 00 00 00
  00000001400030C3: FF 15 8F 5F 00 00  call        qword ptr [0000000140009058h]
  00000001400030C9: 48 8D 15 B0 77 00  lea         rdx,[000000014000A880h]
                    00
  00000001400030D0: 48 8D 4C 24 50     lea         rcx,[rsp+50h]
  00000001400030D5: 41 89 C0           mov         r8d,eax
  00000001400030D8: 4C 8D 0D A9 77 00  lea         r9,[000000014000A888h]
                    00
  00000001400030DF: E8 0C FF FF FF     call        0000000140002FF0
  00000001400030E4: 48 8D 4C 24 50     lea         rcx,[rsp+50h]
  00000001400030E9: FF 15 71 5F 00 00  call        qword ptr [0000000140009060h]
  00000001400030EF: 48 89 05 2A A5 00  mov         qword ptr [000000014000D620h],rax
                    00
  00000001400030F6: 48 85 C0           test        rax,rax
  00000001400030F9: 74 0C              je          0000000140003107
  00000001400030FB: C7 05 2F 8F 00 00  mov         dword ptr [000000014000C034h],0
                    00 00 00 00
  0000000140003105: EB 25              jmp         000000014000312C
  0000000140003107: 8B 05 27 8F 00 00  mov         eax,dword ptr [000000014000C034h]
  000000014000310D: 85 C0              test        eax,eax
  000000014000310F: 74 1B              je          000000014000312C
  0000000140003111: 4D 63 F6           movsxd      r14,r14d
  0000000140003114: 48 8D 05 E5 CE FF  lea         rax,[0000000140000000h]
                    FF
  000000014000311B: 49 C1 E6 04        shl         r14,4
  000000014000311F: 4E 8B AC 30 E8 97  mov         r13,qword ptr [rax+r14+00000000000097E8h]
                    00 00
  0000000140003127: E9 86 00 00 00     jmp         00000001400031B2
  000000014000312C: 49 63 C6           movsxd      rax,r14d
  000000014000312F: 4C 8D 2D CA CE FF  lea         r13,[0000000140000000h]
                    FF
  0000000140003136: 48 C1 E0 04        shl         rax,4
  000000014000313A: 49 89 E3           mov         r11,rsp
  000000014000313D: 41 81 C6 00 00 00  add         r14d,80000000h
                    80
  0000000140003144: B9 00 09 00 00     mov         ecx,900h
  0000000140003149: 48 8B 15 D0 A4 00  mov         rdx,qword ptr [000000014000D620h]
                    00
  0000000140003150: 45 89 F0           mov         r8d,r14d
  0000000140003153: 41 B9 09 04 00 00  mov         r9d,409h
  0000000140003159: 4C 8D 54 24 40     lea         r10,[rsp+40h]
  000000014000315E: 4D 8B AC 05 E8 97  mov         r13,qword ptr [r13+rax+00000000000097E8h]
                    00 00
  0000000140003166: 4D 89 53 20        mov         qword ptr [r11+20h],r10
  000000014000316A: 41 C7 43 28 00 02  mov         dword ptr [r11+28h],200h
                    00 00
  0000000140003172: 49 C7 43 30 00 00  mov         qword ptr [r11+30h],0
                    00 00
  000000014000317A: FF 15 E8 5E 00 00  call        qword ptr [0000000140009068h]
  0000000140003180: 85 C0              test        eax,eax
  0000000140003182: 74 2E              je          00000001400031B2
  0000000140003184: 4C 8B 6C 24 40     mov         r13,qword ptr [rsp+40h]
  0000000140003189: 4C 89 E9           mov         rcx,r13
  000000014000318C: E8 7F 4D 00 00     call        0000000140007F10
  0000000140003191: 49 89 C6           mov         r14,rax
  0000000140003194: 49 83 FE 01        cmp         r14,1
  0000000140003198: 76 18              jbe         00000001400031B2
  000000014000319A: 4D 8D 46 FE        lea         r8,[r14-2]
  000000014000319E: 43 80 3C 28 0D     cmp         byte ptr [r8+r13],0Dh
  00000001400031A3: 0F 84 BA 00 00 00  je          0000000140003263
  00000001400031A9: EB 07              jmp         00000001400031B2
  00000001400031AB: 4C 8D 2D E2 76 00  lea         r13,[000000014000A894h]
                    00
  00000001400031B2: 83 BC 24 F8 00 00  cmp         dword ptr [rsp+00000000000000F8h],0
                    00 00
  00000001400031BA: 7E 78              jle         0000000140003234
  00000001400031BC: 4C 8D 84 24 00 01  lea         r8,[rsp+0000000000000100h]
                    00 00
  00000001400031C4: 4C 89 44 24 48     mov         qword ptr [rsp+48h],r8
  00000001400031C9: 4C 8B 74 24 48     mov         r14,qword ptr [rsp+48h]
  00000001400031CE: E8 DD E0 FF FF     call        00000001400012B0
  00000001400031D3: 49 89 E2           mov         r10,rsp
  00000001400031D6: 48 8D 15 43 9E 00  lea         rdx,[000000014000D020h]
                    00
  00000001400031DD: 41 B8 00 02 00 00  mov         r8d,200h
  00000001400031E3: 4D 89 E9           mov         r9,r13
  00000001400031E6: 48 8B 08           mov         rcx,qword ptr [rax]
  00000001400031E9: 48 83 C9 02        or          rcx,2
  00000001400031ED: 49 C7 42 20 00 00  mov         qword ptr [r10+20h],0
                    00 00
  00000001400031F5: 4D 89 72 28        mov         qword ptr [r10+28h],r14
  00000001400031F9: E8 2A 4D 00 00     call        0000000140007F28
  00000001400031FE: 33 C0              xor         eax,eax
  0000000140003200: 48 89 44 24 48     mov         qword ptr [rsp+48h],rax
  0000000140003205: 48 8B 8C 24 D0 00  mov         rcx,qword ptr [rsp+00000000000000D0h]
                    00 00
  000000014000320D: 48 89 84 24 D0 00  mov         qword ptr [rsp+00000000000000D0h],rax
                    00 00
  0000000140003215: 48 33 CC           xor         rcx,rsp
  0000000140003218: 48 3B 0D 09 8E 00  cmp         rcx,qword ptr [000000014000C028h]
                    00
  000000014000321F: 75 79              jne         000000014000329A
  0000000140003221: 48 8D 05 F8 9D 00  lea         rax,[000000014000D020h]
                    00
  0000000140003228: 48 81 C4 D8 00 00  add         rsp,0D8h
                    00
  000000014000322F: 41 5E              pop         r14
  0000000140003231: 41 5D              pop         r13
  0000000140003233: C3                 ret
  0000000140003234: 48 8B 8C 24 D0 00  mov         rcx,qword ptr [rsp+00000000000000D0h]
                    00 00
  000000014000323C: 48 C7 84 24 D0 00  mov         qword ptr [rsp+00000000000000D0h],0
                    00 00 00 00 00 00
  0000000140003248: 48 33 CC           xor         rcx,rsp
  000000014000324B: 48 3B 0D D6 8D 00  cmp         rcx,qword ptr [000000014000C028h]
                    00
  0000000140003252: 75 46              jne         000000014000329A
  0000000140003254: 4C 89 E8           mov         rax,r13
  0000000140003257: 48 81 C4 D8 00 00  add         rsp,0D8h
                    00
  000000014000325E: 41 5E              pop         r14
  0000000140003260: 41 5D              pop         r13
  0000000140003262: C3                 ret
  0000000140003263: 43 80 7C 35 FF 0A  cmp         byte ptr [r13+r14-1],0Ah
  0000000140003269: 0F 85 43 FF FF FF  jne         00000001400031B2
  000000014000326F: 48 8D 0D AA 9F 00  lea         rcx,[000000014000D220h]
                    00
  0000000140003276: 4C 89 EA           mov         rdx,r13
  0000000140003279: E8 B0 4C 00 00     call        0000000140007F2E
  000000014000327E: 48 8D 05 7B CD FF  lea         rax,[0000000140000000h]
                    FF
  0000000140003285: 4C 8D 2D 94 9F 00  lea         r13,[000000014000D220h]
                    00
  000000014000328C: 42 C6 84 30 1E D2  mov         byte ptr [rax+r14+000000000000D21Eh],0
                    00 00 00
  0000000140003295: E9 18 FF FF FF     jmp         00000001400031B2
  000000014000329A: E8 B1 4C 00 00     call        0000000140007F50
  000000014000329F: 90                 nop
  00000001400032A0: 41 56              push        r14
  00000001400032A2: 41 57              push        r15
  00000001400032A4: 55                 push        rbp
  00000001400032A5: 48 81 EC E0 00 00  sub         rsp,0E0h
                    00
  00000001400032AC: 41 89 D7           mov         r15d,edx
  00000001400032AF: 44 89 84 24 10 01  mov         dword ptr [rsp+0000000000000110h],r8d
                    00 00
  00000001400032B7: 41 89 CE           mov         r14d,ecx
  00000001400032BA: 4C 89 8C 24 18 01  mov         qword ptr [rsp+0000000000000118h],r9
                    00 00
  00000001400032C2: 48 8B 05 5F 8D 00  mov         rax,qword ptr [000000014000C028h]
                    00
  00000001400032C9: 48 33 C4           xor         rax,rsp
  00000001400032CC: 48 89 84 24 D0 00  mov         qword ptr [rsp+00000000000000D0h],rax
                    00 00
  00000001400032D4: 45 85 FF           test        r15d,r15d
  00000001400032D7: 75 41              jne         000000014000331A
  00000001400032D9: 41 83 FE 01        cmp         r14d,1
  00000001400032DD: 48 8D 0D DC 68 00  lea         rcx,[0000000140009BC0h]
                    00
  00000001400032E4: E8 57 DF FF FF     call        0000000140001240
  00000001400032E9: 48 8B 8C 24 D0 00  mov         rcx,qword ptr [rsp+00000000000000D0h]
                    00 00
  00000001400032F1: 48 C7 84 24 D0 00  mov         qword ptr [rsp+00000000000000D0h],0
                    00 00 00 00 00 00
  00000001400032FD: 48 33 CC           xor         rcx,rsp
  0000000140003300: 48 3B 0D 21 8D 00  cmp         rcx,qword ptr [000000014000C028h]
                    00
  0000000140003307: 0F 85 9F 01 00 00  jne         00000001400034AC
  000000014000330D: 48 81 C4 E0 00 00  add         rsp,0E0h
                    00
  0000000140003314: 5D                 pop         rbp
  0000000140003315: 41 5F              pop         r15
  0000000140003317: 41 5E              pop         r14
  0000000140003319: C3                 ret
  000000014000331A: 83 3D 0F 8D 00 00  cmp         dword ptr [000000014000C030h],0
                    00
  0000000140003321: 74 4E              je          0000000140003371
  0000000140003323: C7 05 03 8D 00 00  mov         dword ptr [000000014000C030h],0
                    00 00 00 00
  000000014000332D: FF 15 25 5D 00 00  call        qword ptr [0000000140009058h]
  0000000140003333: 48 8D 15 46 75 00  lea         rdx,[000000014000A880h]
                    00
  000000014000333A: 48 8D 4C 24 50     lea         rcx,[rsp+50h]
  000000014000333F: 41 89 C0           mov         r8d,eax
  0000000140003342: 4C 8D 0D 3F 75 00  lea         r9,[000000014000A888h]
                    00
  0000000140003349: E8 A2 FC FF FF     call        0000000140002FF0
  000000014000334E: 48 8D 4C 24 50     lea         rcx,[rsp+50h]
  0000000140003353: FF 15 07 5D 00 00  call        qword ptr [0000000140009060h]
  0000000140003359: 48 89 05 C0 A2 00  mov         qword ptr [000000014000D620h],rax
                    00
  0000000140003360: 48 85 C0           test        rax,rax
  0000000140003363: 74 0C              je          0000000140003371
  0000000140003365: C7 05 C5 8C 00 00  mov         dword ptr [000000014000C034h],0
                    00 00 00 00
  000000014000336F: EB 22              jmp         0000000140003393
  0000000140003371: 8B 05 BD 8C 00 00  mov         eax,dword ptr [000000014000C034h]
  0000000140003377: 85 C0              test        eax,eax
  0000000140003379: 74 18              je          0000000140003393
  000000014000337B: 4D 63 FF           movsxd      r15,r15d
  000000014000337E: 48 8D 05 7B CC FF  lea         rax,[0000000140000000h]
                    FF
  0000000140003385: 49 C1 E7 04        shl         r15,4
  0000000140003389: 4A 8B AC 38 E8 97  mov         rbp,qword ptr [rax+r15+00000000000097E8h]
                    00 00
  0000000140003391: EB 7D              jmp         0000000140003410
  0000000140003393: 49 63 C7           movsxd      rax,r15d
  0000000140003396: 48 8D 2D 63 CC FF  lea         rbp,[0000000140000000h]
                    FF
  000000014000339D: 48 C1 E0 04        shl         rax,4
  00000001400033A1: 49 89 E3           mov         r11,rsp
  00000001400033A4: 41 81 C7 00 00 00  add         r15d,80000000h
                    80
  00000001400033AB: B9 00 09 00 00     mov         ecx,900h
  00000001400033B0: 48 8B 15 69 A2 00  mov         rdx,qword ptr [000000014000D620h]
                    00
  00000001400033B7: 45 89 F8           mov         r8d,r15d
  00000001400033BA: 41 B9 09 04 00 00  mov         r9d,409h
  00000001400033C0: 4C 8D 54 24 40     lea         r10,[rsp+40h]
  00000001400033C5: 48 8B AC 05 E8 97  mov         rbp,qword ptr [rbp+rax+00000000000097E8h]
                    00 00
  00000001400033CD: 4D 89 53 20        mov         qword ptr [r11+20h],r10
  00000001400033D1: 41 C7 43 28 00 02  mov         dword ptr [r11+28h],200h
                    00 00
  00000001400033D9: 49 C7 43 30 00 00  mov         qword ptr [r11+30h],0
                    00 00
  00000001400033E1: FF 15 81 5C 00 00  call        qword ptr [0000000140009068h]
  00000001400033E7: 85 C0              test        eax,eax
  00000001400033E9: 74 25              je          0000000140003410
  00000001400033EB: 48 8B 6C 24 40     mov         rbp,qword ptr [rsp+40h]
  00000001400033F0: 48 89 E9           mov         rcx,rbp
  00000001400033F3: E8 18 4B 00 00     call        0000000140007F10
  00000001400033F8: 49 89 C7           mov         r15,rax
  00000001400033FB: 49 83 FF 01        cmp         r15,1
  00000001400033FF: 76 0F              jbe         0000000140003410
  0000000140003401: 4D 8D 47 FE        lea         r8,[r15-2]
  0000000140003405: 41 80 3C 28 0D     cmp         byte ptr [r8+rbp],0Dh
  000000014000340A: 0F 84 A1 00 00 00  je          00000001400034B1
  0000000140003410: 83 BC 24 10 01 00  cmp         dword ptr [rsp+0000000000000110h],0
                    00 00
  0000000140003418: 7E 52              jle         000000014000346C
  000000014000341A: 48 8D 84 24 18 01  lea         rax,[rsp+0000000000000118h]
                    00 00
  0000000140003422: 48 89 44 24 48     mov         qword ptr [rsp+48h],rax
  0000000140003427: 4C 8B 7C 24 48     mov         r15,qword ptr [rsp+48h]
  000000014000342C: E8 7F DE FF FF     call        00000001400012B0
  0000000140003431: 49 89 E2           mov         r10,rsp
  0000000140003434: 48 8D 15 E5 9F 00  lea         rdx,[000000014000D420h]
                    00
  000000014000343B: 41 B8 00 02 00 00  mov         r8d,200h
  0000000140003441: 49 89 E9           mov         r9,rbp
  0000000140003444: 48 8B 08           mov         rcx,qword ptr [rax]
  0000000140003447: 48 83 C9 02        or          rcx,2
  000000014000344B: 49 C7 42 20 00 00  mov         qword ptr [r10+20h],0
                    00 00
  0000000140003453: 4D 89 7A 28        mov         qword ptr [r10+28h],r15
  0000000140003457: E8 CC 4A 00 00     call        0000000140007F28
  000000014000345C: 48 C7 44 24 48 00  mov         qword ptr [rsp+48h],0
                    00 00 00
  0000000140003465: 48 8D 2D B4 9F 00  lea         rbp,[000000014000D420h]
                    00
  000000014000346C: 41 83 FE 01        cmp         r14d,1
  0000000140003470: 48 8D 0D 21 74 00  lea         rcx,[000000014000A898h]
                    00
  0000000140003477: 48 89 EA           mov         rdx,rbp
  000000014000347A: E8 C1 DD FF FF     call        0000000140001240
  000000014000347F: 48 8B 8C 24 D0 00  mov         rcx,qword ptr [rsp+00000000000000D0h]
                    00 00
  0000000140003487: 48 C7 84 24 D0 00  mov         qword ptr [rsp+00000000000000D0h],0
                    00 00 00 00 00 00
  0000000140003493: 48 33 CC           xor         rcx,rsp
  0000000140003496: 48 3B 0D 8B 8B 00  cmp         rcx,qword ptr [000000014000C028h]
                    00
  000000014000349D: 75 0D              jne         00000001400034AC
  000000014000349F: 48 81 C4 E0 00 00  add         rsp,0E0h
                    00
  00000001400034A6: 5D                 pop         rbp
  00000001400034A7: 41 5F              pop         r15
  00000001400034A9: 41 5E              pop         r14
  00000001400034AB: C3                 ret
  00000001400034AC: E8 9F 4A 00 00     call        0000000140007F50
  00000001400034B1: 42 80 7C 3D FF 0A  cmp         byte ptr [rbp+r15-1],0Ah
  00000001400034B7: 0F 85 53 FF FF FF  jne         0000000140003410
  00000001400034BD: 48 8D 0D 5C 9D 00  lea         rcx,[000000014000D220h]
                    00
  00000001400034C4: 48 89 EA           mov         rdx,rbp
  00000001400034C7: E8 62 4A 00 00     call        0000000140007F2E
  00000001400034CC: 48 8D 05 2D CB FF  lea         rax,[0000000140000000h]
                    FF
  00000001400034D3: 48 8D 2D 46 9D 00  lea         rbp,[000000014000D220h]
                    00
  00000001400034DA: 42 C6 84 38 1E D2  mov         byte ptr [rax+r15+000000000000D21Eh],0
                    00 00 00
  00000001400034E3: E9 28 FF FF FF     jmp         0000000140003410
  00000001400034E8: 0F 1F 84 00 00 00  nop         dword ptr [rax+rax+0000000000000000h]
                    00 00
  00000001400034F0: 41 56              push        r14
  00000001400034F2: 41 57              push        r15
  00000001400034F4: 55                 push        rbp
  00000001400034F5: 48 81 EC 40 02 00  sub         rsp,240h
                    00
  00000001400034FC: 41 89 D7           mov         r15d,edx
  00000001400034FF: 44 89 FD           mov         ebp,r15d
  0000000140003502: 45 89 FE           mov         r14d,r15d
  0000000140003505: 48 8B 05 1C 8B 00  mov         rax,qword ptr [000000014000C028h]
                    00
  000000014000350C: 83 E5 04           and         ebp,4
  000000014000350F: 48 33 C4           xor         rax,rsp
  0000000140003512: 48 89 84 24 30 02  mov         qword ptr [rsp+0000000000000230h],rax
                    00 00
  000000014000351A: 41 83 E6 02        and         r14d,2
  000000014000351E: 74 1D              je          000000014000353D
  0000000140003520: F6 C1 02           test        cl,2
  0000000140003523: 74 34              je          0000000140003559
  0000000140003525: 85 ED              test        ebp,ebp
  0000000140003527: 74 05              je          000000014000352E
  0000000140003529: F6 C1 04           test        cl,4
  000000014000352C: 74 2B              je          0000000140003559
  000000014000352E: 41 F7 C7 01 00 00  test        r15d,1
                    00
  0000000140003535: 0F 85 C0 00 00 00  jne         00000001400035FB
  000000014000353B: EB 56              jmp         0000000140003593
  000000014000353D: 85 ED              test        ebp,ebp
  000000014000353F: 0F 84 80 00 00 00  je          00000001400035C5
  0000000140003545: F6 C1 04           test        cl,4
  0000000140003548: 74 0F              je          0000000140003559
  000000014000354A: 41 F7 C7 01 00 00  test        r15d,1
                    00
  0000000140003551: 0F 85 A4 00 00 00  jne         00000001400035FB
  0000000140003557: EB 53              jmp         00000001400035AC
  0000000140003559: 33 D2              xor         edx,edx
  000000014000355B: 48 8D 4C 24 30     lea         rcx,[rsp+30h]
  0000000140003560: 41 B8 00 02 00 00  mov         r8d,200h
  0000000140003566: E8 03 49 00 00     call        0000000140007E6E
  000000014000356B: 90                 nop
  000000014000356C: 0F AE 44 24 30     fxsave      [rsp+30h]
  0000000140003571: 33 D2              xor         edx,edx
  0000000140003573: 8B 44 24 4C        mov         eax,dword ptr [rsp+4Ch]
  0000000140003577: A8 40              test        al,40h
  0000000140003579: 44 0F 44 F2        cmove       r14d,edx
  000000014000357D: A9 00 00 02 00     test        eax,20000h
  0000000140003582: 0F 44 EA           cmove       ebp,edx
  0000000140003585: 41 F7 C7 01 00 00  test        r15d,1
                    00
  000000014000358C: 75 6D              jne         00000001400035FB
  000000014000358E: 45 85 F6           test        r14d,r14d
  0000000140003591: 74 15              je          00000001400035A8
  0000000140003593: 0F AE 5C 24 20     stmxcsr     dword ptr [rsp+20h]
  0000000140003598: 8B 44 24 20        mov         eax,dword ptr [rsp+20h]
  000000014000359C: 83 C8 40           or          eax,40h
  000000014000359F: 89 44 24 20        mov         dword ptr [rsp+20h],eax
  00000001400035A3: 0F AE 54 24 20     ldmxcsr     dword ptr [rsp+20h]
  00000001400035A8: 85 ED              test        ebp,ebp
  00000001400035AA: 74 22              je          00000001400035CE
  00000001400035AC: 0F AE 5C 24 20     stmxcsr     dword ptr [rsp+20h]
  00000001400035B1: 8B 44 24 20        mov         eax,dword ptr [rsp+20h]
  00000001400035B5: 0D 00 00 02 00     or          eax,20000h
  00000001400035BA: 89 44 24 20        mov         dword ptr [rsp+20h],eax
  00000001400035BE: 0F AE 54 24 20     ldmxcsr     dword ptr [rsp+20h]
  00000001400035C3: EB 09              jmp         00000001400035CE
  00000001400035C5: 41 F7 C7 01 00 00  test        r15d,1
                    00
  00000001400035CC: 75 2D              jne         00000001400035FB
  00000001400035CE: 48 8B 8C 24 30 02  mov         rcx,qword ptr [rsp+0000000000000230h]
                    00 00
  00000001400035D6: 48 C7 84 24 30 02  mov         qword ptr [rsp+0000000000000230h],0
                    00 00 00 00 00 00
  00000001400035E2: 48 33 CC           xor         rcx,rsp
  00000001400035E5: 48 3B 0D 3C 8A 00  cmp         rcx,qword ptr [000000014000C028h]
                    00
  00000001400035EC: 75 29              jne         0000000140003617
  00000001400035EE: 48 81 C4 40 02 00  add         rsp,240h
                    00
  00000001400035F5: 5D                 pop         rbp
  00000001400035F6: 41 5F              pop         r15
  00000001400035F8: 41 5E              pop         r14
  00000001400035FA: C3                 ret
  00000001400035FB: 0F AE 5C 24 20     stmxcsr     dword ptr [rsp+20h]
  0000000140003600: 8B 44 24 20        mov         eax,dword ptr [rsp+20h]
  0000000140003604: 0D 00 80 00 00     or          eax,8000h
  0000000140003609: 89 44 24 20        mov         dword ptr [rsp+20h],eax
  000000014000360D: 0F AE 54 24 20     ldmxcsr     dword ptr [rsp+20h]
  0000000140003612: E9 77 FF FF FF     jmp         000000014000358E
  0000000140003617: E8 34 49 00 00     call        0000000140007F50
  000000014000361C: 90                 nop
  000000014000361D: 0F 1F 00           nop         dword ptr [rax]
  0000000140003620: 57                 push        rdi
  0000000140003621: 41 57              push        r15
  0000000140003623: 49 89 CB           mov         r11,rcx
  0000000140003626: 4D 89 DA           mov         r10,r11
  0000000140003629: 48 B8 01 01 01 01  mov         rax,101010101010101h
                    01 01 01 01
  0000000140003633: 4C 0F B6 CA        movzx       r9,dl
  0000000140003637: 4C 0F AF C8        imul        r9,rax
  000000014000363B: 48 8D 15 7E 0C 00  lea         rdx,[00000001400042C0h]
                    00
  0000000140003642: C4 C1 F9 6E C1     vmovq       xmm0,r9
  0000000140003647: 49 81 F8 80 00 00  cmp         r8,80h
                    00
  000000014000364E: 77 10              ja          0000000140003660
  0000000140003650: 4C 89 D7           mov         rdi,r10
  0000000140003653: 49 03 F8           add         rdi,r8
  0000000140003656: 4A 2B 14 C2        sub         rdx,qword ptr [rdx+r8*8]
  000000014000365A: 3E FF E2           jmp         rdx
  000000014000365D: 0F 1F 00           nop         dword ptr [rax]
  0000000140003660: 48 8D 15 59 03 00  lea         rdx,[00000001400039C0h]
                    00
  0000000140003667: 4C 89 D1           mov         rcx,r10
  000000014000366A: 48 83 E1 1F        and         rcx,1Fh
  000000014000366E: 74 23              je          0000000140003693
  0000000140003670: 48 F7 D9           neg         rcx
  0000000140003673: 48 83 C1 20        add         rcx,20h
  0000000140003677: 4C 2B C1           sub         r8,rcx
  000000014000367A: 4C 89 D7           mov         rdi,r10
  000000014000367D: 48 03 F9           add         rdi,rcx
  0000000140003680: 48 2B 14 CA        sub         rdx,qword ptr [rdx+rcx*8]
  0000000140003684: 3E FF E2           jmp         rdx
  0000000140003687: 66 0F 1F 84 00 00  nop         word ptr [rax+rax+0000000000000000h]
                    00 00 00
  0000000140003690: 4C 03 D1           add         r10,rcx
  0000000140003693: 49 81 F8 00 01 00  cmp         r8,100h
                    00
  000000014000369A: 0F 8C 30 01 00 00  jl          00000001400037D0
  00000001400036A0: 48 8B 0D A9 91 00  mov         rcx,qword ptr [000000014000C850h]
                    00
  00000001400036A7: 48 89 CF           mov         rdi,rcx
  00000001400036AA: 48 C1 E9 04        shr         rcx,4
  00000001400036AE: 48 2B F9           sub         rdi,rcx
  00000001400036B1: 4C 3B C7           cmp         r8,rdi
  00000001400036B4: 73 5A              jae         0000000140003710
  00000001400036B6: C4 E2 7D 58 C0     vpbroadcastd ymm0,xmm0
  00000001400036BB: C4 C1 7D 7F 02     vmovdqa     ymmword ptr [r10],ymm0
  00000001400036C0: C4 C1 7D 7F 42 20  vmovdqa     ymmword ptr [r10+20h],ymm0
  00000001400036C6: C4 C1 7D 7F 42 40  vmovdqa     ymmword ptr [r10+40h],ymm0
  00000001400036CC: C4 C1 7D 7F 42 60  vmovdqa     ymmword ptr [r10+60h],ymm0
  00000001400036D2: 49 81 C2 00 01 00  add         r10,100h
                    00
  00000001400036D9: 49 81 E8 00 01 00  sub         r8,100h
                    00
  00000001400036E0: C4 C1 7D 7F 42 80  vmovdqa     ymmword ptr [r10-80h],ymm0
  00000001400036E6: C4 C1 7D 7F 42 A0  vmovdqa     ymmword ptr [r10-60h],ymm0
  00000001400036EC: C4 C1 7D 7F 42 C0  vmovdqa     ymmword ptr [r10-40h],ymm0
  00000001400036F2: C4 C1 7D 7F 42 E0  vmovdqa     ymmword ptr [r10-20h],ymm0
  00000001400036F8: 49 81 F8 00 01 00  cmp         r8,100h
                    00
  00000001400036FF: 7D BA              jge         00000001400036BB
  0000000140003701: E9 DA 00 00 00     jmp         00000001400037E0
  0000000140003706: 0F 1F 00           nop         dword ptr [rax]
  0000000140003709: 0F 1F 80 00 00 00  nop         dword ptr [rax+0000000000000000h]
                    00
  0000000140003710: 4C 89 D7           mov         rdi,r10
  0000000140003713: 4C 89 C8           mov         rax,r9
  0000000140003716: 4C 89 C1           mov         rcx,r8
  0000000140003719: FC                 cld
  000000014000371A: F3 AA              rep stos    byte ptr [rdi]
  000000014000371C: E9 AF 0F 00 00     jmp         00000001400046D0
  0000000140003721: 0F 1F 84 00 00 00  nop         dword ptr [rax+rax+0000000000000000h]
                    00 00
  0000000140003729: 0F 1F 80 00 00 00  nop         dword ptr [rax+0000000000000000h]
                    00
  0000000140003730: 45 88 0A           mov         byte ptr [r10],r9b
  0000000140003733: E9 58 FF FF FF     jmp         0000000140003690
  0000000140003738: 0F 1F 84 00 00 00  nop         dword ptr [rax+rax+0000000000000000h]
                    00 00
  0000000140003740: 66 45 89 0A        mov         word ptr [r10],r9w
  0000000140003744: E9 47 FF FF FF     jmp         0000000140003690
  0000000140003749: 0F 1F 80 00 00 00  nop         dword ptr [rax+0000000000000000h]
                    00
  0000000140003750: 66 45 89 0A        mov         word ptr [r10],r9w
  0000000140003754: 45 88 4A 02        mov         byte ptr [r10+2],r9b
  0000000140003758: E9 33 FF FF FF     jmp         0000000140003690
  000000014000375D: 0F 1F 00           nop         dword ptr [rax]
  0000000140003760: 45 89 0A           mov         dword ptr [r10],r9d
  0000000140003763: E9 28 FF FF FF     jmp         0000000140003690
  0000000140003768: 0F 1F 84 00 00 00  nop         dword ptr [rax+rax+0000000000000000h]
                    00 00
  0000000140003770: 45 89 0A           mov         dword ptr [r10],r9d
  0000000140003773: 44 89 4F FC        mov         dword ptr [rdi-4],r9d
  0000000140003777: E9 14 FF FF FF     jmp         0000000140003690
  000000014000377C: 0F 1F 40 00        nop         dword ptr [rax]
  0000000140003780: 4D 89 0A           mov         qword ptr [r10],r9
  0000000140003783: E9 08 FF FF FF     jmp         0000000140003690
  0000000140003788: 0F 1F 84 00 00 00  nop         dword ptr [rax+rax+0000000000000000h]
                    00 00
  0000000140003790: 4D 89 0A           mov         qword ptr [r10],r9
  0000000140003793: 4C 89 4F F8        mov         qword ptr [rdi-8],r9
  0000000140003797: E9 F4 FE FF FF     jmp         0000000140003690
  000000014000379C: 0F 1F 40 00        nop         dword ptr [rax]
  00000001400037A0: 4D 89 0A           mov         qword ptr [r10],r9
  00000001400037A3: 4D 89 4A 08        mov         qword ptr [r10+8],r9
  00000001400037A7: E9 E4 FE FF FF     jmp         0000000140003690
  00000001400037AC: 0F 1F 40 00        nop         dword ptr [rax]
  00000001400037B0: 4D 89 0A           mov         qword ptr [r10],r9
  00000001400037B3: 4D 89 4A 08        mov         qword ptr [r10+8],r9
  00000001400037B7: 4C 89 4F F0        mov         qword ptr [rdi-10h],r9
  00000001400037BB: 4C 89 4F F8        mov         qword ptr [rdi-8],r9
  00000001400037BF: E9 CC FE FF FF     jmp         0000000140003690
  00000001400037C4: 0F 1F 44 00 00     nop         dword ptr [rax+rax]
  00000001400037C9: 0F 1F 80 00 00 00  nop         dword ptr [rax+0000000000000000h]
                    00
  00000001400037D0: C4 E2 7D 58 C0     vpbroadcastd ymm0,xmm0
  00000001400037D5: 0F 1F 40 00        nop         dword ptr [rax]
  00000001400037D9: 0F 1F 80 00 00 00  nop         dword ptr [rax+0000000000000000h]
                    00
  00000001400037E0: 4D 03 D0           add         r10,r8
  00000001400037E3: 4C 89 D7           mov         rdi,r10
  00000001400037E6: 49 83 E2 E0        and         r10,0FFFFFFFFFFFFFFE0h
  00000001400037EA: 48 8D 15 CF 02 00  lea         rdx,[0000000140003AC0h]
                    00
  00000001400037F1: 4A 2B 14 C2        sub         rdx,qword ptr [rdx+r8*8]
  00000001400037F5: 3E FF E2           jmp         rdx
  00000001400037F8: 0F 1F 84 00 00 00  nop         dword ptr [rax+rax+0000000000000000h]
                    00 00
  0000000140003800: C4 C1 7C 29 82 20  vmovaps     ymmword ptr [r10+FFFFFFFFFFFFFF20h],ymm0
                    FF FF FF
  0000000140003809: C4 C1 7C 29 82 40  vmovaps     ymmword ptr [r10+FFFFFFFFFFFFFF40h],ymm0
                    FF FF FF
  0000000140003812: C4 C1 7C 29 82 60  vmovaps     ymmword ptr [r10+FFFFFFFFFFFFFF60h],ymm0
                    FF FF FF
  000000014000381B: 0F 1F 44 00 00     nop         dword ptr [rax+rax]
  0000000140003820: C4 C1 7C 29 42 80  vmovaps     ymmword ptr [r10-80h],ymm0
  0000000140003826: C4 C1 7C 29 42 A0  vmovaps     ymmword ptr [r10-60h],ymm0
  000000014000382C: C4 C1 7C 29 42 C0  vmovaps     ymmword ptr [r10-40h],ymm0
  0000000140003832: C4 C1 7C 29 42 E0  vmovaps     ymmword ptr [r10-20h],ymm0
  0000000140003838: 49 89 F8           mov         r8,rdi
  000000014000383B: 49 83 E0 1F        and         r8,1Fh
  000000014000383F: 48 8D 15 7A 02 00  lea         rdx,[0000000140003AC0h]
                    00
  0000000140003846: 4A 2B 14 C2        sub         rdx,qword ptr [rdx+r8*8]
  000000014000384A: 3E FF E2           jmp         rdx
  000000014000384D: 0F 1F 00           nop         dword ptr [rax]
  0000000140003850: 45 88 0A           mov         byte ptr [r10],r9b
  0000000140003853: E9 78 0E 00 00     jmp         00000001400046D0
  0000000140003858: 0F 1F 84 00 00 00  nop         dword ptr [rax+rax+0000000000000000h]
                    00 00
  0000000140003860: E9 6B 0E 00 00     jmp         00000001400046D0
  0000000140003865: 0F 1F 40 00        nop         dword ptr [rax]
  0000000140003869: 0F 1F 80 00 00 00  nop         dword ptr [rax+0000000000000000h]
                    00
  0000000140003870: 66 45 89 0A        mov         word ptr [r10],r9w
  0000000140003874: E9 57 0E 00 00     jmp         00000001400046D0
  0000000140003879: 0F 1F 80 00 00 00  nop         dword ptr [rax+0000000000000000h]
                    00
  0000000140003880: 66 45 89 0A        mov         word ptr [r10],r9w
  0000000140003884: 45 88 4A 02        mov         byte ptr [r10+2],r9b
  0000000140003888: E9 43 0E 00 00     jmp         00000001400046D0
  000000014000388D: 0F 1F 00           nop         dword ptr [rax]
  0000000140003890: 45 89 0A           mov         dword ptr [r10],r9d
  0000000140003893: E9 38 0E 00 00     jmp         00000001400046D0
  0000000140003898: 0F 1F 84 00 00 00  nop         dword ptr [rax+rax+0000000000000000h]
                    00 00
  00000001400038A0: 45 89 0A           mov         dword ptr [r10],r9d
  00000001400038A3: 44 89 4F FC        mov         dword ptr [rdi-4],r9d
  00000001400038A7: E9 24 0E 00 00     jmp         00000001400046D0
  00000001400038AC: 0F 1F 40 00        nop         dword ptr [rax]
  00000001400038B0: 4D 89 0A           mov         qword ptr [r10],r9
  00000001400038B3: E9 18 0E 00 00     jmp         00000001400046D0
  00000001400038B8: 0F 1F 84 00 00 00  nop         dword ptr [rax+rax+0000000000000000h]
                    00 00
  00000001400038C0: 4D 89 0A           mov         qword ptr [r10],r9
  00000001400038C3: 4C 89 4F F8        mov         qword ptr [rdi-8],r9
  00000001400038C7: E9 04 0E 00 00     jmp         00000001400046D0
  00000001400038CC: 0F 1F 40 00        nop         dword ptr [rax]
  00000001400038D0: C4 C1 78 11 02     vmovups     xmmword ptr [r10],xmm0
  00000001400038D5: E9 F6 0D 00 00     jmp         00000001400046D0
  00000001400038DA: 66 0F 1F 44 00 00  nop         word ptr [rax+rax]
  00000001400038E0: C4 C1 78 11 02     vmovups     xmmword ptr [r10],xmm0
  00000001400038E5: C5 F8 11 47 F0     vmovups     xmmword ptr [rdi-10h],xmm0
  00000001400038EA: E9 E1 0D 00 00     jmp         00000001400046D0
  00000001400038EF: 90                 nop
  00000001400038F0: C4 E2 7D 58 C0     vpbroadcastd ymm0,xmm0
  00000001400038F5: C4 C1 7C 11 02     vmovups     ymmword ptr [r10],ymm0
  00000001400038FA: E9 D1 0D 00 00     jmp         00000001400046D0
  00000001400038FF: 90                 nop
  0000000140003900: C4 E2 7D 58 C0     vpbroadcastd ymm0,xmm0
  0000000140003905: C4 C1 7C 11 02     vmovups     ymmword ptr [r10],ymm0
  000000014000390A: C5 FC 11 47 E0     vmovups     ymmword ptr [rdi-20h],ymm0
  000000014000390F: E9 BC 0D 00 00     jmp         00000001400046D0
  0000000140003914: 0F 1F 44 00 00     nop         dword ptr [rax+rax]
  0000000140003919: 0F 1F 80 00 00 00  nop         dword ptr [rax+0000000000000000h]
                    00
  0000000140003920: C4 E2 7D 58 C0     vpbroadcastd ymm0,xmm0
  0000000140003925: C4 C1 7C 11 02     vmovups     ymmword ptr [r10],ymm0
  000000014000392A: C4 C1 7C 11 42 20  vmovups     ymmword ptr [r10+20h],ymm0
  0000000140003930: E9 9B 0D 00 00     jmp         00000001400046D0
  0000000140003935: 0F 1F 40 00        nop         dword ptr [rax]
  0000000140003939: 0F 1F 80 00 00 00  nop         dword ptr [rax+0000000000000000h]
                    00
  0000000140003940: C4 E2 7D 58 C0     vpbroadcastd ymm0,xmm0
  0000000140003945: C4 C1 7C 11 02     vmovups     ymmword ptr [r10],ymm0
  000000014000394A: C4 C1 7C 11 42 20  vmovups     ymmword ptr [r10+20h],ymm0
  0000000140003950: C5 FC 11 47 E0     vmovups     ymmword ptr [rdi-20h],ymm0
  0000000140003955: C5 FC 11 47 C0     vmovups     ymmword ptr [rdi-40h],ymm0
  000000014000395A: E9 71 0D 00 00     jmp         00000001400046D0
  000000014000395F: 90                 nop
  0000000140003960: C4 E2 7D 58 C0     vpbroadcastd ymm0,xmm0
  0000000140003965: C4 C1 7C 11 02     vmovups     ymmword ptr [r10],ymm0
  000000014000396A: C4 C1 7C 11 42 20  vmovups     ymmword ptr [r10+20h],ymm0
  0000000140003970: C4 C1 7C 11 42 40  vmovups     ymmword ptr [r10+40h],ymm0
  0000000140003976: C4 C1 7C 11 42 60  vmovups     ymmword ptr [r10+60h],ymm0
  000000014000397C: E9 4F 0D 00 00     jmp         00000001400046D0
  0000000140003981: 0F 1F 84 00 00 00  nop         dword ptr [rax+rax+0000000000000000h]
                    00 00
  0000000140003989: 0F 1F 80 00 00 00  nop         dword ptr [rax+0000000000000000h]
                    00
  0000000140003990: 66 0F 6C C0        punpcklqdq  xmm0,xmm0
  0000000140003994: C4 C1 78 11 02     vmovups     xmmword ptr [r10],xmm0
  0000000140003999: E9 32 0D 00 00     jmp         00000001400046D0
  000000014000399E: 66 90              xchg        ax,ax
  00000001400039A0: 66 0F 6C C0        punpcklqdq  xmm0,xmm0
  00000001400039A4: C4 C1 78 11 02     vmovups     xmmword ptr [r10],xmm0
  00000001400039A9: C5 F8 11 47 F0     vmovups     xmmword ptr [rdi-10h],xmm0
  00000001400039AE: E9 1D 0D 00 00     jmp         00000001400046D0
  00000001400039B3: 0F 1F 44 00 00     nop         dword ptr [rax+rax]
  00000001400039B8: 0F 1F 84 00 00 00  nop         dword ptr [rax+rax+0000000000000000h]
                    00 00
  00000001400039C0: 8D 02              lea         eax,[rdx]
  00000001400039C2: 00 00              add         byte ptr [rax],al
  00000001400039C4: 00 00              add         byte ptr [rax],al
  00000001400039C6: 00 00              add         byte ptr [rax],al
  00000001400039C8: 90                 nop
  00000001400039C9: 02 00              add         al,byte ptr [rax]
  00000001400039CB: 00 00              add         byte ptr [rax],al
  00000001400039CD: 00 00              add         byte ptr [rax],al
  00000001400039CF: 00 80 02 00 00 00  add         byte ptr [rax+0000000000000002h],al
  00000001400039D5: 00 00              add         byte ptr [rax],al
  00000001400039D7: 00 70 02           add         byte ptr [rax+2],dh
  00000001400039DA: 00 00              add         byte ptr [rax],al
  00000001400039DC: 00 00              add         byte ptr [rax],al
  00000001400039DE: 00 00              add         byte ptr [rax],al
  00000001400039E0: 60
  00000001400039E1: 02 00              add         al,byte ptr [rax]
  00000001400039E3: 00 00              add         byte ptr [rax],al
  00000001400039E5: 00 00              add         byte ptr [rax],al
  00000001400039E7: 00 50 02           add         byte ptr [rax+2],dl
  00000001400039EA: 00 00              add         byte ptr [rax],al
  00000001400039EC: 00 00              add         byte ptr [rax],al
  00000001400039EE: 00 00              add         byte ptr [rax],al
  00000001400039F0: 50                 push        rax
  00000001400039F1: 02 00              add         al,byte ptr [rax]
  00000001400039F3: 00 00              add         byte ptr [rax],al
  00000001400039F5: 00 00              add         byte ptr [rax],al
  00000001400039F7: 00 50 02           add         byte ptr [rax+2],dl
  00000001400039FA: 00 00              add         byte ptr [rax],al
  00000001400039FC: 00 00              add         byte ptr [rax],al
  00000001400039FE: 00 00              add         byte ptr [rax],al
  0000000140003A00: 40 02 00           add         al,byte ptr [rax]
  0000000140003A03: 00 00              add         byte ptr [rax],al
  0000000140003A05: 00 00              add         byte ptr [rax],al
  0000000140003A07: 00 30              add         byte ptr [rax],dh
  0000000140003A09: 02 00              add         al,byte ptr [rax]
  0000000140003A0B: 00 00              add         byte ptr [rax],al
  0000000140003A0D: 00 00              add         byte ptr [rax],al
  0000000140003A0F: 00 30              add         byte ptr [rax],dh
  0000000140003A11: 02 00              add         al,byte ptr [rax]
  0000000140003A13: 00 00              add         byte ptr [rax],al
  0000000140003A15: 00 00              add         byte ptr [rax],al
  0000000140003A17: 00 30              add         byte ptr [rax],dh
  0000000140003A19: 02 00              add         al,byte ptr [rax]
  0000000140003A1B: 00 00              add         byte ptr [rax],al
  0000000140003A1D: 00 00              add         byte ptr [rax],al
  0000000140003A1F: 00 30              add         byte ptr [rax],dh
  0000000140003A21: 02 00              add         al,byte ptr [rax]
  0000000140003A23: 00 00              add         byte ptr [rax],al
  0000000140003A25: 00 00              add         byte ptr [rax],al
  0000000140003A27: 00 30              add         byte ptr [rax],dh
  0000000140003A29: 02 00              add         al,byte ptr [rax]
  0000000140003A2B: 00 00              add         byte ptr [rax],al
  0000000140003A2D: 00 00              add         byte ptr [rax],al
  0000000140003A2F: 00 30              add         byte ptr [rax],dh
  0000000140003A31: 02 00              add         al,byte ptr [rax]
  0000000140003A33: 00 00              add         byte ptr [rax],al
  0000000140003A35: 00 00              add         byte ptr [rax],al
  0000000140003A37: 00 30              add         byte ptr [rax],dh
  0000000140003A39: 02 00              add         al,byte ptr [rax]
  0000000140003A3B: 00 00              add         byte ptr [rax],al
  0000000140003A3D: 00 00              add         byte ptr [rax],al
  0000000140003A3F: 00 20              add         byte ptr [rax],ah
  0000000140003A41: 02 00              add         al,byte ptr [rax]
  0000000140003A43: 00 00              add         byte ptr [rax],al
  0000000140003A45: 00 00              add         byte ptr [rax],al
  0000000140003A47: 00 10              add         byte ptr [rax],dl
  0000000140003A49: 02 00              add         al,byte ptr [rax]
  0000000140003A4B: 00 00              add         byte ptr [rax],al
  0000000140003A4D: 00 00              add         byte ptr [rax],al
  0000000140003A4F: 00 10              add         byte ptr [rax],dl
  0000000140003A51: 02 00              add         al,byte ptr [rax]
  0000000140003A53: 00 00              add         byte ptr [rax],al
  0000000140003A55: 00 00              add         byte ptr [rax],al
  0000000140003A57: 00 10              add         byte ptr [rax],dl
  0000000140003A59: 02 00              add         al,byte ptr [rax]
  0000000140003A5B: 00 00              add         byte ptr [rax],al
  0000000140003A5D: 00 00              add         byte ptr [rax],al
  0000000140003A5F: 00 10              add         byte ptr [rax],dl
  0000000140003A61: 02 00              add         al,byte ptr [rax]
  0000000140003A63: 00 00              add         byte ptr [rax],al
  0000000140003A65: 00 00              add         byte ptr [rax],al
  0000000140003A67: 00 10              add         byte ptr [rax],dl
  0000000140003A69: 02 00              add         al,byte ptr [rax]
  0000000140003A6B: 00 00              add         byte ptr [rax],al
  0000000140003A6D: 00 00              add         byte ptr [rax],al
  0000000140003A6F: 00 10              add         byte ptr [rax],dl
  0000000140003A71: 02 00              add         al,byte ptr [rax]
  0000000140003A73: 00 00              add         byte ptr [rax],al
  0000000140003A75: 00 00              add         byte ptr [rax],al
  0000000140003A77: 00 10              add         byte ptr [rax],dl
  0000000140003A79: 02 00              add         al,byte ptr [rax]
  0000000140003A7B: 00 00              add         byte ptr [rax],al
  0000000140003A7D: 00 00              add         byte ptr [rax],al
  0000000140003A7F: 00 10              add         byte ptr [rax],dl
  0000000140003A81: 02 00              add         al,byte ptr [rax]
  0000000140003A83: 00 00              add         byte ptr [rax],al
  0000000140003A85: 00 00              add         byte ptr [rax],al
  0000000140003A87: 00 10              add         byte ptr [rax],dl
  0000000140003A89: 02 00              add         al,byte ptr [rax]
  0000000140003A8B: 00 00              add         byte ptr [rax],al
  0000000140003A8D: 00 00              add         byte ptr [rax],al
  0000000140003A8F: 00 10              add         byte ptr [rax],dl
  0000000140003A91: 02 00              add         al,byte ptr [rax]
  0000000140003A93: 00 00              add         byte ptr [rax],al
  0000000140003A95: 00 00              add         byte ptr [rax],al
  0000000140003A97: 00 10              add         byte ptr [rax],dl
  0000000140003A99: 02 00              add         al,byte ptr [rax]
  0000000140003A9B: 00 00              add         byte ptr [rax],al
  0000000140003A9D: 00 00              add         byte ptr [rax],al
  0000000140003A9F: 00 10              add         byte ptr [rax],dl
  0000000140003AA1: 02 00              add         al,byte ptr [rax]
  0000000140003AA3: 00 00              add         byte ptr [rax],al
  0000000140003AA5: 00 00              add         byte ptr [rax],al
  0000000140003AA7: 00 10              add         byte ptr [rax],dl
  0000000140003AA9: 02 00              add         al,byte ptr [rax]
  0000000140003AAB: 00 00              add         byte ptr [rax],al
  0000000140003AAD: 00 00              add         byte ptr [rax],al
  0000000140003AAF: 00 10              add         byte ptr [rax],dl
  0000000140003AB1: 02 00              add         al,byte ptr [rax]
  0000000140003AB3: 00 00              add         byte ptr [rax],al
  0000000140003AB5: 00 00              add         byte ptr [rax],al
  0000000140003AB7: 00 10              add         byte ptr [rax],dl
  0000000140003AB9: 02 00              add         al,byte ptr [rax]
  0000000140003ABB: 00 00              add         byte ptr [rax],al
  0000000140003ABD: 00 00              add         byte ptr [rax],al
  0000000140003ABF: 00 60 02           add         byte ptr [rax+2],ah
  0000000140003AC2: 00 00              add         byte ptr [rax],al
  0000000140003AC4: 00 00              add         byte ptr [rax],al
  0000000140003AC6: 00 00              add         byte ptr [rax],al
  0000000140003AC8: 70 02              jo          0000000140003ACC
  0000000140003ACA: 00 00              add         byte ptr [rax],al
  0000000140003ACC: 00 00              add         byte ptr [rax],al
  0000000140003ACE: 00 00              add         byte ptr [rax],al
  0000000140003AD0: 50                 push        rax
  0000000140003AD1: 02 00              add         al,byte ptr [rax]
  0000000140003AD3: 00 00              add         byte ptr [rax],al
  0000000140003AD5: 00 00              add         byte ptr [rax],al
  0000000140003AD7: 00 40 02           add         byte ptr [rax+2],al
  0000000140003ADA: 00 00              add         byte ptr [rax],al
  0000000140003ADC: 00 00              add         byte ptr [rax],al
  0000000140003ADE: 00 00              add         byte ptr [rax],al
  0000000140003AE0: 30 02              xor         byte ptr [rdx],al
  0000000140003AE2: 00 00              add         byte ptr [rax],al
  0000000140003AE4: 00 00              add         byte ptr [rax],al
  0000000140003AE6: 00 00              add         byte ptr [rax],al
  0000000140003AE8: 20 02              and         byte ptr [rdx],al
  0000000140003AEA: 00 00              add         byte ptr [rax],al
  0000000140003AEC: 00 00              add         byte ptr [rax],al
  0000000140003AEE: 00 00              add         byte ptr [rax],al
  0000000140003AF0: 20 02              and         byte ptr [rdx],al
  0000000140003AF2: 00 00              add         byte ptr [rax],al
  0000000140003AF4: 00 00              add         byte ptr [rax],al
  0000000140003AF6: 00 00              add         byte ptr [rax],al
  0000000140003AF8: 20 02              and         byte ptr [rdx],al
  0000000140003AFA: 00 00              add         byte ptr [rax],al
  0000000140003AFC: 00 00              add         byte ptr [rax],al
  0000000140003AFE: 00 00              add         byte ptr [rax],al
  0000000140003B00: 10 02              adc         byte ptr [rdx],al
  0000000140003B02: 00 00              add         byte ptr [rax],al
  0000000140003B04: 00 00              add         byte ptr [rax],al
  0000000140003B06: 00 00              add         byte ptr [rax],al
  0000000140003B08: 00 02              add         byte ptr [rdx],al
  0000000140003B0A: 00 00              add         byte ptr [rax],al
  0000000140003B0C: 00 00              add         byte ptr [rax],al
  0000000140003B0E: 00 00              add         byte ptr [rax],al
  0000000140003B10: 00 02              add         byte ptr [rdx],al
  0000000140003B12: 00 00              add         byte ptr [rax],al
  0000000140003B14: 00 00              add         byte ptr [rax],al
  0000000140003B16: 00 00              add         byte ptr [rax],al
  0000000140003B18: 00 02              add         byte ptr [rdx],al
  0000000140003B1A: 00 00              add         byte ptr [rax],al
  0000000140003B1C: 00 00              add         byte ptr [rax],al
  0000000140003B1E: 00 00              add         byte ptr [rax],al
  0000000140003B20: 00 02              add         byte ptr [rdx],al
  0000000140003B22: 00 00              add         byte ptr [rax],al
  0000000140003B24: 00 00              add         byte ptr [rax],al
  0000000140003B26: 00 00              add         byte ptr [rax],al
  0000000140003B28: 00 02              add         byte ptr [rdx],al
  0000000140003B2A: 00 00              add         byte ptr [rax],al
  0000000140003B2C: 00 00              add         byte ptr [rax],al
  0000000140003B2E: 00 00              add         byte ptr [rax],al
  0000000140003B30: 00 02              add         byte ptr [rdx],al
  0000000140003B32: 00 00              add         byte ptr [rax],al
  0000000140003B34: 00 00              add         byte ptr [rax],al
  0000000140003B36: 00 00              add         byte ptr [rax],al
  0000000140003B38: 00 02              add         byte ptr [rdx],al
  0000000140003B3A: 00 00              add         byte ptr [rax],al
  0000000140003B3C: 00 00              add         byte ptr [rax],al
  0000000140003B3E: 00 00              add         byte ptr [rax],al
  0000000140003B40: F0 01 00           lock add    dword ptr [rax],eax
  0000000140003B43: 00 00              add         byte ptr [rax],al
  0000000140003B45: 00 00              add         byte ptr [rax],al
  0000000140003B47: 00 E0              add         al,ah
  0000000140003B49: 01 00              add         dword ptr [rax],eax
  0000000140003B4B: 00 00              add         byte ptr [rax],al
  0000000140003B4D: 00 00              add         byte ptr [rax],al
  0000000140003B4F: 00 E0              add         al,ah
  0000000140003B51: 01 00              add         dword ptr [rax],eax
  0000000140003B53: 00 00              add         byte ptr [rax],al
  0000000140003B55: 00 00              add         byte ptr [rax],al
  0000000140003B57: 00 E0              add         al,ah
  0000000140003B59: 01 00              add         dword ptr [rax],eax
  0000000140003B5B: 00 00              add         byte ptr [rax],al
  0000000140003B5D: 00 00              add         byte ptr [rax],al
  0000000140003B5F: 00 E0              add         al,ah
  0000000140003B61: 01 00              add         dword ptr [rax],eax
  0000000140003B63: 00 00              add         byte ptr [rax],al
  0000000140003B65: 00 00              add         byte ptr [rax],al
  0000000140003B67: 00 E0              add         al,ah
  0000000140003B69: 01 00              add         dword ptr [rax],eax
  0000000140003B6B: 00 00              add         byte ptr [rax],al
  0000000140003B6D: 00 00              add         byte ptr [rax],al
  0000000140003B6F: 00 E0              add         al,ah
  0000000140003B71: 01 00              add         dword ptr [rax],eax
  0000000140003B73: 00 00              add         byte ptr [rax],al
  0000000140003B75: 00 00              add         byte ptr [rax],al
  0000000140003B77: 00 E0              add         al,ah
  0000000140003B79: 01 00              add         dword ptr [rax],eax
  0000000140003B7B: 00 00              add         byte ptr [rax],al
  0000000140003B7D: 00 00              add         byte ptr [rax],al
  0000000140003B7F: 00 E0              add         al,ah
  0000000140003B81: 01 00              add         dword ptr [rax],eax
  0000000140003B83: 00 00              add         byte ptr [rax],al
  0000000140003B85: 00 00              add         byte ptr [rax],al
  0000000140003B87: 00 E0              add         al,ah
  0000000140003B89: 01 00              add         dword ptr [rax],eax
  0000000140003B8B: 00 00              add         byte ptr [rax],al
  0000000140003B8D: 00 00              add         byte ptr [rax],al
  0000000140003B8F: 00 E0              add         al,ah
  0000000140003B91: 01 00              add         dword ptr [rax],eax
  0000000140003B93: 00 00              add         byte ptr [rax],al
  0000000140003B95: 00 00              add         byte ptr [rax],al
  0000000140003B97: 00 E0              add         al,ah
  0000000140003B99: 01 00              add         dword ptr [rax],eax
  0000000140003B9B: 00 00              add         byte ptr [rax],al
  0000000140003B9D: 00 00              add         byte ptr [rax],al
  0000000140003B9F: 00 E0              add         al,ah
  0000000140003BA1: 01 00              add         dword ptr [rax],eax
  0000000140003BA3: 00 00              add         byte ptr [rax],al
  0000000140003BA5: 00 00              add         byte ptr [rax],al
  0000000140003BA7: 00 E0              add         al,ah
  0000000140003BA9: 01 00              add         dword ptr [rax],eax
  0000000140003BAB: 00 00              add         byte ptr [rax],al
  0000000140003BAD: 00 00              add         byte ptr [rax],al
  0000000140003BAF: 00 E0              add         al,ah
  0000000140003BB1: 01 00              add         dword ptr [rax],eax
  0000000140003BB3: 00 00              add         byte ptr [rax],al
  0000000140003BB5: 00 00              add         byte ptr [rax],al
  0000000140003BB7: 00 E0              add         al,ah
  0000000140003BB9: 01 00              add         dword ptr [rax],eax
  0000000140003BBB: 00 00              add         byte ptr [rax],al
  0000000140003BBD: 00 00              add         byte ptr [rax],al
  0000000140003BBF: 00 8E 02 00 00 00  add         byte ptr [rsi+0000000000000002h],cl
  0000000140003BC5: 00 00              add         byte ptr [rax],al
  0000000140003BC7: 00 8E 02 00 00 00  add         byte ptr [rsi+0000000000000002h],cl
  0000000140003BCD: 00 00              add         byte ptr [rax],al
  0000000140003BCF: 00 8E 02 00 00 00  add         byte ptr [rsi+0000000000000002h],cl
  0000000140003BD5: 00 00              add         byte ptr [rax],al
  0000000140003BD7: 00 8E 02 00 00 00  add         byte ptr [rsi+0000000000000002h],cl
  0000000140003BDD: 00 00              add         byte ptr [rax],al
  0000000140003BDF: 00 8E 02 00 00 00  add         byte ptr [rsi+0000000000000002h],cl
  0000000140003BE5: 00 00              add         byte ptr [rax],al
  0000000140003BE7: 00 8E 02 00 00 00  add         byte ptr [rsi+0000000000000002h],cl
  0000000140003BED: 00 00              add         byte ptr [rax],al
  0000000140003BEF: 00 8E 02 00 00 00  add         byte ptr [rsi+0000000000000002h],cl
  0000000140003BF5: 00 00              add         byte ptr [rax],al
  0000000140003BF7: 00 8E 02 00 00 00  add         byte ptr [rsi+0000000000000002h],cl
  0000000140003BFD: 00 00              add         byte ptr [rax],al
  0000000140003BFF: 00 8E 02 00 00 00  add         byte ptr [rsi+0000000000000002h],cl
  0000000140003C05: 00 00              add         byte ptr [rax],al
  0000000140003C07: 00 8E 02 00 00 00  add         byte ptr [rsi+0000000000000002h],cl
  0000000140003C0D: 00 00              add         byte ptr [rax],al
  0000000140003C0F: 00 8E 02 00 00 00  add         byte ptr [rsi+0000000000000002h],cl
  0000000140003C15: 00 00              add         byte ptr [rax],al
  0000000140003C17: 00 8E 02 00 00 00  add         byte ptr [rsi+0000000000000002h],cl
  0000000140003C1D: 00 00              add         byte ptr [rax],al
  0000000140003C1F: 00 8E 02 00 00 00  add         byte ptr [rsi+0000000000000002h],cl
  0000000140003C25: 00 00              add         byte ptr [rax],al
  0000000140003C27: 00 8E 02 00 00 00  add         byte ptr [rsi+0000000000000002h],cl
  0000000140003C2D: 00 00              add         byte ptr [rax],al
  0000000140003C2F: 00 8E 02 00 00 00  add         byte ptr [rsi+0000000000000002h],cl
  0000000140003C35: 00 00              add         byte ptr [rax],al
  0000000140003C37: 00 8E 02 00 00 00  add         byte ptr [rsi+0000000000000002h],cl
  0000000140003C3D: 00 00              add         byte ptr [rax],al
  0000000140003C3F: 00 8E 02 00 00 00  add         byte ptr [rsi+0000000000000002h],cl
  0000000140003C45: 00 00              add         byte ptr [rax],al
  0000000140003C47: 00 8E 02 00 00 00  add         byte ptr [rsi+0000000000000002h],cl
  0000000140003C4D: 00 00              add         byte ptr [rax],al
  0000000140003C4F: 00 8E 02 00 00 00  add         byte ptr [rsi+0000000000000002h],cl
  0000000140003C55: 00 00              add         byte ptr [rax],al
  0000000140003C57: 00 8E 02 00 00 00  add         byte ptr [rsi+0000000000000002h],cl
  0000000140003C5D: 00 00              add         byte ptr [rax],al
  0000000140003C5F: 00 8E 02 00 00 00  add         byte ptr [rsi+0000000000000002h],cl
  0000000140003C65: 00 00              add         byte ptr [rax],al
  0000000140003C67: 00 8E 02 00 00 00  add         byte ptr [rsi+0000000000000002h],cl
  0000000140003C6D: 00 00              add         byte ptr [rax],al
  0000000140003C6F: 00 8E 02 00 00 00  add         byte ptr [rsi+0000000000000002h],cl
  0000000140003C75: 00 00              add         byte ptr [rax],al
  0000000140003C77: 00 8E 02 00 00 00  add         byte ptr [rsi+0000000000000002h],cl
  0000000140003C7D: 00 00              add         byte ptr [rax],al
  0000000140003C7F: 00 8E 02 00 00 00  add         byte ptr [rsi+0000000000000002h],cl
  0000000140003C85: 00 00              add         byte ptr [rax],al
  0000000140003C87: 00 8E 02 00 00 00  add         byte ptr [rsi+0000000000000002h],cl
  0000000140003C8D: 00 00              add         byte ptr [rax],al
  0000000140003C8F: 00 8E 02 00 00 00  add         byte ptr [rsi+0000000000000002h],cl
  0000000140003C95: 00 00              add         byte ptr [rax],al
  0000000140003C97: 00 8E 02 00 00 00  add         byte ptr [rsi+0000000000000002h],cl
  0000000140003C9D: 00 00              add         byte ptr [rax],al
  0000000140003C9F: 00 8E 02 00 00 00  add         byte ptr [rsi+0000000000000002h],cl
  0000000140003CA5: 00 00              add         byte ptr [rax],al
  0000000140003CA7: 00 8E 02 00 00 00  add         byte ptr [rsi+0000000000000002h],cl
  0000000140003CAD: 00 00              add         byte ptr [rax],al
  0000000140003CAF: 00 8E 02 00 00 00  add         byte ptr [rsi+0000000000000002h],cl
  0000000140003CB5: 00 00              add         byte ptr [rax],al
  0000000140003CB7: 00 8E 02 00 00 00  add         byte ptr [rsi+0000000000000002h],cl
  0000000140003CBD: 00 00              add         byte ptr [rax],al
  0000000140003CBF: 00 94 02 00 00 00  add         byte ptr [rdx+rax+0000000000000000h],dl
                    00
  0000000140003CC6: 00 00              add         byte ptr [rax],al
  0000000140003CC8: 94                 xchg        eax,esp
  0000000140003CC9: 02 00              add         al,byte ptr [rax]
  0000000140003CCB: 00 00              add         byte ptr [rax],al
  0000000140003CCD: 00 00              add         byte ptr [rax],al
  0000000140003CCF: 00 94 02 00 00 00  add         byte ptr [rdx+rax+0000000000000000h],dl
                    00
  0000000140003CD6: 00 00              add         byte ptr [rax],al
  0000000140003CD8: 94                 xchg        eax,esp
  0000000140003CD9: 02 00              add         al,byte ptr [rax]
  0000000140003CDB: 00 00              add         byte ptr [rax],al
  0000000140003CDD: 00 00              add         byte ptr [rax],al
  0000000140003CDF: 00 94 02 00 00 00  add         byte ptr [rdx+rax+0000000000000000h],dl
                    00
  0000000140003CE6: 00 00              add         byte ptr [rax],al
  0000000140003CE8: 94                 xchg        eax,esp
  0000000140003CE9: 02 00              add         al,byte ptr [rax]
  0000000140003CEB: 00 00              add         byte ptr [rax],al
  0000000140003CED: 00 00              add         byte ptr [rax],al
  0000000140003CEF: 00 94 02 00 00 00  add         byte ptr [rdx+rax+0000000000000000h],dl
                    00
  0000000140003CF6: 00 00              add         byte ptr [rax],al
  0000000140003CF8: 94                 xchg        eax,esp
  0000000140003CF9: 02 00              add         al,byte ptr [rax]
  0000000140003CFB: 00 00              add         byte ptr [rax],al
  0000000140003CFD: 00 00              add         byte ptr [rax],al
  0000000140003CFF: 00 94 02 00 00 00  add         byte ptr [rdx+rax+0000000000000000h],dl
                    00
  0000000140003D06: 00 00              add         byte ptr [rax],al
  0000000140003D08: 94                 xchg        eax,esp
  0000000140003D09: 02 00              add         al,byte ptr [rax]
  0000000140003D0B: 00 00              add         byte ptr [rax],al
  0000000140003D0D: 00 00              add         byte ptr [rax],al
  0000000140003D0F: 00 94 02 00 00 00  add         byte ptr [rdx+rax+0000000000000000h],dl
                    00
  0000000140003D16: 00 00              add         byte ptr [rax],al
  0000000140003D18: 94                 xchg        eax,esp
  0000000140003D19: 02 00              add         al,byte ptr [rax]
  0000000140003D1B: 00 00              add         byte ptr [rax],al
  0000000140003D1D: 00 00              add         byte ptr [rax],al
  0000000140003D1F: 00 94 02 00 00 00  add         byte ptr [rdx+rax+0000000000000000h],dl
                    00
  0000000140003D26: 00 00              add         byte ptr [rax],al
  0000000140003D28: 94                 xchg        eax,esp
  0000000140003D29: 02 00              add         al,byte ptr [rax]
  0000000140003D2B: 00 00              add         byte ptr [rax],al
  0000000140003D2D: 00 00              add         byte ptr [rax],al
  0000000140003D2F: 00 94 02 00 00 00  add         byte ptr [rdx+rax+0000000000000000h],dl
                    00
  0000000140003D36: 00 00              add         byte ptr [rax],al
  0000000140003D38: 94                 xchg        eax,esp
  0000000140003D39: 02 00              add         al,byte ptr [rax]
  0000000140003D3B: 00 00              add         byte ptr [rax],al
  0000000140003D3D: 00 00              add         byte ptr [rax],al
  0000000140003D3F: 00 94 02 00 00 00  add         byte ptr [rdx+rax+0000000000000000h],dl
                    00
  0000000140003D46: 00 00              add         byte ptr [rax],al
  0000000140003D48: 94                 xchg        eax,esp
  0000000140003D49: 02 00              add         al,byte ptr [rax]
  0000000140003D4B: 00 00              add         byte ptr [rax],al
  0000000140003D4D: 00 00              add         byte ptr [rax],al
  0000000140003D4F: 00 94 02 00 00 00  add         byte ptr [rdx+rax+0000000000000000h],dl
                    00
  0000000140003D56: 00 00              add         byte ptr [rax],al
  0000000140003D58: 94                 xchg        eax,esp
  0000000140003D59: 02 00              add         al,byte ptr [rax]
  0000000140003D5B: 00 00              add         byte ptr [rax],al
  0000000140003D5D: 00 00              add         byte ptr [rax],al
  0000000140003D5F: 00 94 02 00 00 00  add         byte ptr [rdx+rax+0000000000000000h],dl
                    00
  0000000140003D66: 00 00              add         byte ptr [rax],al
  0000000140003D68: 94                 xchg        eax,esp
  0000000140003D69: 02 00              add         al,byte ptr [rax]
  0000000140003D6B: 00 00              add         byte ptr [rax],al
  0000000140003D6D: 00 00              add         byte ptr [rax],al
  0000000140003D6F: 00 94 02 00 00 00  add         byte ptr [rdx+rax+0000000000000000h],dl
                    00
  0000000140003D76: 00 00              add         byte ptr [rax],al
  0000000140003D78: 94                 xchg        eax,esp
  0000000140003D79: 02 00              add         al,byte ptr [rax]
  0000000140003D7B: 00 00              add         byte ptr [rax],al
  0000000140003D7D: 00 00              add         byte ptr [rax],al
  0000000140003D7F: 00 94 02 00 00 00  add         byte ptr [rdx+rax+0000000000000000h],dl
                    00
  0000000140003D86: 00 00              add         byte ptr [rax],al
  0000000140003D88: 94                 xchg        eax,esp
  0000000140003D89: 02 00              add         al,byte ptr [rax]
  0000000140003D8B: 00 00              add         byte ptr [rax],al
  0000000140003D8D: 00 00              add         byte ptr [rax],al
  0000000140003D8F: 00 94 02 00 00 00  add         byte ptr [rdx+rax+0000000000000000h],dl
                    00
  0000000140003D96: 00 00              add         byte ptr [rax],al
  0000000140003D98: 94                 xchg        eax,esp
  0000000140003D99: 02 00              add         al,byte ptr [rax]
  0000000140003D9B: 00 00              add         byte ptr [rax],al
  0000000140003D9D: 00 00              add         byte ptr [rax],al
  0000000140003D9F: 00 94 02 00 00 00  add         byte ptr [rdx+rax+0000000000000000h],dl
                    00
  0000000140003DA6: 00 00              add         byte ptr [rax],al
  0000000140003DA8: 94                 xchg        eax,esp
  0000000140003DA9: 02 00              add         al,byte ptr [rax]
  0000000140003DAB: 00 00              add         byte ptr [rax],al
  0000000140003DAD: 00 00              add         byte ptr [rax],al
  0000000140003DAF: 00 94 02 00 00 00  add         byte ptr [rdx+rax+0000000000000000h],dl
                    00
  0000000140003DB6: 00 00              add         byte ptr [rax],al
  0000000140003DB8: 94                 xchg        eax,esp
  0000000140003DB9: 02 00              add         al,byte ptr [rax]
  0000000140003DBB: 00 00              add         byte ptr [rax],al
  0000000140003DBD: 00 00              add         byte ptr [rax],al
  0000000140003DBF: 00 9A 02 00 00 00  add         byte ptr [rdx+0000000000000002h],bl
  0000000140003DC5: 00 00              add         byte ptr [rax],al
  0000000140003DC7: 00 9A 02 00 00 00  add         byte ptr [rdx+0000000000000002h],bl
  0000000140003DCD: 00 00              add         byte ptr [rax],al
  0000000140003DCF: 00 9A 02 00 00 00  add         byte ptr [rdx+0000000000000002h],bl
  0000000140003DD5: 00 00              add         byte ptr [rax],al
  0000000140003DD7: 00 9A 02 00 00 00  add         byte ptr [rdx+0000000000000002h],bl
  0000000140003DDD: 00 00              add         byte ptr [rax],al
  0000000140003DDF: 00 9A 02 00 00 00  add         byte ptr [rdx+0000000000000002h],bl
  0000000140003DE5: 00 00              add         byte ptr [rax],al
  0000000140003DE7: 00 9A 02 00 00 00  add         byte ptr [rdx+0000000000000002h],bl
  0000000140003DED: 00 00              add         byte ptr [rax],al
  0000000140003DEF: 00 9A 02 00 00 00  add         byte ptr [rdx+0000000000000002h],bl
  0000000140003DF5: 00 00              add         byte ptr [rax],al
  0000000140003DF7: 00 9A 02 00 00 00  add         byte ptr [rdx+0000000000000002h],bl
  0000000140003DFD: 00 00              add         byte ptr [rax],al
  0000000140003DFF: 00 9A 02 00 00 00  add         byte ptr [rdx+0000000000000002h],bl
  0000000140003E05: 00 00              add         byte ptr [rax],al
  0000000140003E07: 00 9A 02 00 00 00  add         byte ptr [rdx+0000000000000002h],bl
  0000000140003E0D: 00 00              add         byte ptr [rax],al
  0000000140003E0F: 00 9A 02 00 00 00  add         byte ptr [rdx+0000000000000002h],bl
  0000000140003E15: 00 00              add         byte ptr [rax],al
  0000000140003E17: 00 9A 02 00 00 00  add         byte ptr [rdx+0000000000000002h],bl
  0000000140003E1D: 00 00              add         byte ptr [rax],al
  0000000140003E1F: 00 9A 02 00 00 00  add         byte ptr [rdx+0000000000000002h],bl
  0000000140003E25: 00 00              add         byte ptr [rax],al
  0000000140003E27: 00 9A 02 00 00 00  add         byte ptr [rdx+0000000000000002h],bl
  0000000140003E2D: 00 00              add         byte ptr [rax],al
  0000000140003E2F: 00 9A 02 00 00 00  add         byte ptr [rdx+0000000000000002h],bl
  0000000140003E35: 00 00              add         byte ptr [rax],al
  0000000140003E37: 00 9A 02 00 00 00  add         byte ptr [rdx+0000000000000002h],bl
  0000000140003E3D: 00 00              add         byte ptr [rax],al
  0000000140003E3F: 00 9A 02 00 00 00  add         byte ptr [rdx+0000000000000002h],bl
  0000000140003E45: 00 00              add         byte ptr [rax],al
  0000000140003E47: 00 9A 02 00 00 00  add         byte ptr [rdx+0000000000000002h],bl
  0000000140003E4D: 00 00              add         byte ptr [rax],al
  0000000140003E4F: 00 9A 02 00 00 00  add         byte ptr [rdx+0000000000000002h],bl
  0000000140003E55: 00 00              add         byte ptr [rax],al
  0000000140003E57: 00 9A 02 00 00 00  add         byte ptr [rdx+0000000000000002h],bl
  0000000140003E5D: 00 00              add         byte ptr [rax],al
  0000000140003E5F: 00 9A 02 00 00 00  add         byte ptr [rdx+0000000000000002h],bl
  0000000140003E65: 00 00              add         byte ptr [rax],al
  0000000140003E67: 00 9A 02 00 00 00  add         byte ptr [rdx+0000000000000002h],bl
  0000000140003E6D: 00 00              add         byte ptr [rax],al
  0000000140003E6F: 00 9A 02 00 00 00  add         byte ptr [rdx+0000000000000002h],bl
  0000000140003E75: 00 00              add         byte ptr [rax],al
  0000000140003E77: 00 9A 02 00 00 00  add         byte ptr [rdx+0000000000000002h],bl
  0000000140003E7D: 00 00              add         byte ptr [rax],al
  0000000140003E7F: 00 9A 02 00 00 00  add         byte ptr [rdx+0000000000000002h],bl
  0000000140003E85: 00 00              add         byte ptr [rax],al
  0000000140003E87: 00 9A 02 00 00 00  add         byte ptr [rdx+0000000000000002h],bl
  0000000140003E8D: 00 00              add         byte ptr [rax],al
  0000000140003E8F: 00 9A 02 00 00 00  add         byte ptr [rdx+0000000000000002h],bl
  0000000140003E95: 00 00              add         byte ptr [rax],al
  0000000140003E97: 00 9A 02 00 00 00  add         byte ptr [rdx+0000000000000002h],bl
  0000000140003E9D: 00 00              add         byte ptr [rax],al
  0000000140003E9F: 00 9A 02 00 00 00  add         byte ptr [rdx+0000000000000002h],bl
  0000000140003EA5: 00 00              add         byte ptr [rax],al
  0000000140003EA7: 00 9A 02 00 00 00  add         byte ptr [rdx+0000000000000002h],bl
  0000000140003EAD: 00 00              add         byte ptr [rax],al
  0000000140003EAF: 00 9A 02 00 00 00  add         byte ptr [rdx+0000000000000002h],bl
  0000000140003EB5: 00 00              add         byte ptr [rax],al
  0000000140003EB7: 00 9A 02 00 00 00  add         byte ptr [rdx+0000000000000002h],bl
  0000000140003EBD: 00 00              add         byte ptr [rax],al
  0000000140003EBF: 00 A0 02 00 00 00  add         byte ptr [rax+0000000000000002h],ah
  0000000140003EC5: 00 00              add         byte ptr [rax],al
  0000000140003EC7: 00 A0 02 00 00 00  add         byte ptr [rax+0000000000000002h],ah
  0000000140003ECD: 00 00              add         byte ptr [rax],al
  0000000140003ECF: 00 A0 02 00 00 00  add         byte ptr [rax+0000000000000002h],ah
  0000000140003ED5: 00 00              add         byte ptr [rax],al
  0000000140003ED7: 00 A0 02 00 00 00  add         byte ptr [rax+0000000000000002h],ah
  0000000140003EDD: 00 00              add         byte ptr [rax],al
  0000000140003EDF: 00 A0 02 00 00 00  add         byte ptr [rax+0000000000000002h],ah
  0000000140003EE5: 00 00              add         byte ptr [rax],al
  0000000140003EE7: 00 A0 02 00 00 00  add         byte ptr [rax+0000000000000002h],ah
  0000000140003EED: 00 00              add         byte ptr [rax],al
  0000000140003EEF: 00 A0 02 00 00 00  add         byte ptr [rax+0000000000000002h],ah
  0000000140003EF5: 00 00              add         byte ptr [rax],al
  0000000140003EF7: 00 A0 02 00 00 00  add         byte ptr [rax+0000000000000002h],ah
  0000000140003EFD: 00 00              add         byte ptr [rax],al
  0000000140003EFF: 00 A0 02 00 00 00  add         byte ptr [rax+0000000000000002h],ah
  0000000140003F05: 00 00              add         byte ptr [rax],al
  0000000140003F07: 00 A0 02 00 00 00  add         byte ptr [rax+0000000000000002h],ah
  0000000140003F0D: 00 00              add         byte ptr [rax],al
  0000000140003F0F: 00 A0 02 00 00 00  add         byte ptr [rax+0000000000000002h],ah
  0000000140003F15: 00 00              add         byte ptr [rax],al
  0000000140003F17: 00 A0 02 00 00 00  add         byte ptr [rax+0000000000000002h],ah
  0000000140003F1D: 00 00              add         byte ptr [rax],al
  0000000140003F1F: 00 A0 02 00 00 00  add         byte ptr [rax+0000000000000002h],ah
  0000000140003F25: 00 00              add         byte ptr [rax],al
  0000000140003F27: 00 A0 02 00 00 00  add         byte ptr [rax+0000000000000002h],ah
  0000000140003F2D: 00 00              add         byte ptr [rax],al
  0000000140003F2F: 00 A0 02 00 00 00  add         byte ptr [rax+0000000000000002h],ah
  0000000140003F35: 00 00              add         byte ptr [rax],al
  0000000140003F37: 00 A0 02 00 00 00  add         byte ptr [rax+0000000000000002h],ah
  0000000140003F3D: 00 00              add         byte ptr [rax],al
  0000000140003F3F: 00 A0 02 00 00 00  add         byte ptr [rax+0000000000000002h],ah
  0000000140003F45: 00 00              add         byte ptr [rax],al
  0000000140003F47: 00 A0 02 00 00 00  add         byte ptr [rax+0000000000000002h],ah
  0000000140003F4D: 00 00              add         byte ptr [rax],al
  0000000140003F4F: 00 A0 02 00 00 00  add         byte ptr [rax+0000000000000002h],ah
  0000000140003F55: 00 00              add         byte ptr [rax],al
  0000000140003F57: 00 A0 02 00 00 00  add         byte ptr [rax+0000000000000002h],ah
  0000000140003F5D: 00 00              add         byte ptr [rax],al
  0000000140003F5F: 00 A0 02 00 00 00  add         byte ptr [rax+0000000000000002h],ah
  0000000140003F65: 00 00              add         byte ptr [rax],al
  0000000140003F67: 00 A0 02 00 00 00  add         byte ptr [rax+0000000000000002h],ah
  0000000140003F6D: 00 00              add         byte ptr [rax],al
  0000000140003F6F: 00 A0 02 00 00 00  add         byte ptr [rax+0000000000000002h],ah
  0000000140003F75: 00 00              add         byte ptr [rax],al
  0000000140003F77: 00 A0 02 00 00 00  add         byte ptr [rax+0000000000000002h],ah
  0000000140003F7D: 00 00              add         byte ptr [rax],al
  0000000140003F7F: 00 A0 02 00 00 00  add         byte ptr [rax+0000000000000002h],ah
  0000000140003F85: 00 00              add         byte ptr [rax],al
  0000000140003F87: 00 A0 02 00 00 00  add         byte ptr [rax+0000000000000002h],ah
  0000000140003F8D: 00 00              add         byte ptr [rax],al
  0000000140003F8F: 00 A0 02 00 00 00  add         byte ptr [rax+0000000000000002h],ah
  0000000140003F95: 00 00              add         byte ptr [rax],al
  0000000140003F97: 00 A0 02 00 00 00  add         byte ptr [rax+0000000000000002h],ah
  0000000140003F9D: 00 00              add         byte ptr [rax],al
  0000000140003F9F: 00 A0 02 00 00 00  add         byte ptr [rax+0000000000000002h],ah
  0000000140003FA5: 00 00              add         byte ptr [rax],al
  0000000140003FA7: 00 A0 02 00 00 00  add         byte ptr [rax+0000000000000002h],ah
  0000000140003FAD: 00 00              add         byte ptr [rax],al
  0000000140003FAF: 00 A0 02 00 00 00  add         byte ptr [rax+0000000000000002h],ah
  0000000140003FB5: 00 00              add         byte ptr [rax],al
  0000000140003FB7: 00 A0 02 00 00 00  add         byte ptr [rax+0000000000000002h],ah
  0000000140003FBD: 00 00              add         byte ptr [rax],al
  0000000140003FBF: 00 AE 02 00 00 00  add         byte ptr [rsi+0000000000000002h],ch
  0000000140003FC5: 00 00              add         byte ptr [rax],al
  0000000140003FC7: 00 AE 02 00 00 00  add         byte ptr [rsi+0000000000000002h],ch
  0000000140003FCD: 00 00              add         byte ptr [rax],al
  0000000140003FCF: 00 AE 02 00 00 00  add         byte ptr [rsi+0000000000000002h],ch
  0000000140003FD5: 00 00              add         byte ptr [rax],al
  0000000140003FD7: 00 AE 02 00 00 00  add         byte ptr [rsi+0000000000000002h],ch
  0000000140003FDD: 00 00              add         byte ptr [rax],al
  0000000140003FDF: 00 AE 02 00 00 00  add         byte ptr [rsi+0000000000000002h],ch
  0000000140003FE5: 00 00              add         byte ptr [rax],al
  0000000140003FE7: 00 AE 02 00 00 00  add         byte ptr [rsi+0000000000000002h],ch
  0000000140003FED: 00 00              add         byte ptr [rax],al
  0000000140003FEF: 00 AE 02 00 00 00  add         byte ptr [rsi+0000000000000002h],ch
  0000000140003FF5: 00 00              add         byte ptr [rax],al
  0000000140003FF7: 00 AE 02 00 00 00  add         byte ptr [rsi+0000000000000002h],ch
  0000000140003FFD: 00 00              add         byte ptr [rax],al
  0000000140003FFF: 00 AE 02 00 00 00  add         byte ptr [rsi+0000000000000002h],ch
  0000000140004005: 00 00              add         byte ptr [rax],al
  0000000140004007: 00 AE 02 00 00 00  add         byte ptr [rsi+0000000000000002h],ch
  000000014000400D: 00 00              add         byte ptr [rax],al
  000000014000400F: 00 AE 02 00 00 00  add         byte ptr [rsi+0000000000000002h],ch
  0000000140004015: 00 00              add         byte ptr [rax],al
  0000000140004017: 00 AE 02 00 00 00  add         byte ptr [rsi+0000000000000002h],ch
  000000014000401D: 00 00              add         byte ptr [rax],al
  000000014000401F: 00 AE 02 00 00 00  add         byte ptr [rsi+0000000000000002h],ch
  0000000140004025: 00 00              add         byte ptr [rax],al
  0000000140004027: 00 AE 02 00 00 00  add         byte ptr [rsi+0000000000000002h],ch
  000000014000402D: 00 00              add         byte ptr [rax],al
  000000014000402F: 00 AE 02 00 00 00  add         byte ptr [rsi+0000000000000002h],ch
  0000000140004035: 00 00              add         byte ptr [rax],al
  0000000140004037: 00 AE 02 00 00 00  add         byte ptr [rsi+0000000000000002h],ch
  000000014000403D: 00 00              add         byte ptr [rax],al
  000000014000403F: 00 AE 02 00 00 00  add         byte ptr [rsi+0000000000000002h],ch
  0000000140004045: 00 00              add         byte ptr [rax],al
  0000000140004047: 00 AE 02 00 00 00  add         byte ptr [rsi+0000000000000002h],ch
  000000014000404D: 00 00              add         byte ptr [rax],al
  000000014000404F: 00 AE 02 00 00 00  add         byte ptr [rsi+0000000000000002h],ch
  0000000140004055: 00 00              add         byte ptr [rax],al
  0000000140004057: 00 AE 02 00 00 00  add         byte ptr [rsi+0000000000000002h],ch
  000000014000405D: 00 00              add         byte ptr [rax],al
  000000014000405F: 00 AE 02 00 00 00  add         byte ptr [rsi+0000000000000002h],ch
  0000000140004065: 00 00              add         byte ptr [rax],al
  0000000140004067: 00 AE 02 00 00 00  add         byte ptr [rsi+0000000000000002h],ch
  000000014000406D: 00 00              add         byte ptr [rax],al
  000000014000406F: 00 AE 02 00 00 00  add         byte ptr [rsi+0000000000000002h],ch
  0000000140004075: 00 00              add         byte ptr [rax],al
  0000000140004077: 00 AE 02 00 00 00  add         byte ptr [rsi+0000000000000002h],ch
  000000014000407D: 00 00              add         byte ptr [rax],al
  000000014000407F: 00 AE 02 00 00 00  add         byte ptr [rsi+0000000000000002h],ch
  0000000140004085: 00 00              add         byte ptr [rax],al
  0000000140004087: 00 AE 02 00 00 00  add         byte ptr [rsi+0000000000000002h],ch
  000000014000408D: 00 00              add         byte ptr [rax],al
  000000014000408F: 00 AE 02 00 00 00  add         byte ptr [rsi+0000000000000002h],ch
  0000000140004095: 00 00              add         byte ptr [rax],al
  0000000140004097: 00 AE 02 00 00 00  add         byte ptr [rsi+0000000000000002h],ch
  000000014000409D: 00 00              add         byte ptr [rax],al
  000000014000409F: 00 AE 02 00 00 00  add         byte ptr [rsi+0000000000000002h],ch
  00000001400040A5: 00 00              add         byte ptr [rax],al
  00000001400040A7: 00 AE 02 00 00 00  add         byte ptr [rsi+0000000000000002h],ch
  00000001400040AD: 00 00              add         byte ptr [rax],al
  00000001400040AF: 00 AE 02 00 00 00  add         byte ptr [rsi+0000000000000002h],ch
  00000001400040B5: 00 00              add         byte ptr [rax],al
  00000001400040B7: 00 AE 02 00 00 00  add         byte ptr [rsi+0000000000000002h],ch
  00000001400040BD: 00 00              add         byte ptr [rax],al
  00000001400040BF: 00 B7 02 00 00 00  add         byte ptr [rdi+0000000000000002h],dh
  00000001400040C5: 00 00              add         byte ptr [rax],al
  00000001400040C7: 00 B7 02 00 00 00  add         byte ptr [rdi+0000000000000002h],dh
  00000001400040CD: 00 00              add         byte ptr [rax],al
  00000001400040CF: 00 B7 02 00 00 00  add         byte ptr [rdi+0000000000000002h],dh
  00000001400040D5: 00 00              add         byte ptr [rax],al
  00000001400040D7: 00 B7 02 00 00 00  add         byte ptr [rdi+0000000000000002h],dh
  00000001400040DD: 00 00              add         byte ptr [rax],al
  00000001400040DF: 00 B7 02 00 00 00  add         byte ptr [rdi+0000000000000002h],dh
  00000001400040E5: 00 00              add         byte ptr [rax],al
  00000001400040E7: 00 B7 02 00 00 00  add         byte ptr [rdi+0000000000000002h],dh
  00000001400040ED: 00 00              add         byte ptr [rax],al
  00000001400040EF: 00 B7 02 00 00 00  add         byte ptr [rdi+0000000000000002h],dh
  00000001400040F5: 00 00              add         byte ptr [rax],al
  00000001400040F7: 00 B7 02 00 00 00  add         byte ptr [rdi+0000000000000002h],dh
  00000001400040FD: 00 00              add         byte ptr [rax],al
  00000001400040FF: 00 B7 02 00 00 00  add         byte ptr [rdi+0000000000000002h],dh
  0000000140004105: 00 00              add         byte ptr [rax],al
  0000000140004107: 00 B7 02 00 00 00  add         byte ptr [rdi+0000000000000002h],dh
  000000014000410D: 00 00              add         byte ptr [rax],al
  000000014000410F: 00 B7 02 00 00 00  add         byte ptr [rdi+0000000000000002h],dh
  0000000140004115: 00 00              add         byte ptr [rax],al
  0000000140004117: 00 B7 02 00 00 00  add         byte ptr [rdi+0000000000000002h],dh
  000000014000411D: 00 00              add         byte ptr [rax],al
  000000014000411F: 00 B7 02 00 00 00  add         byte ptr [rdi+0000000000000002h],dh
  0000000140004125: 00 00              add         byte ptr [rax],al
  0000000140004127: 00 B7 02 00 00 00  add         byte ptr [rdi+0000000000000002h],dh
  000000014000412D: 00 00              add         byte ptr [rax],al
  000000014000412F: 00 B7 02 00 00 00  add         byte ptr [rdi+0000000000000002h],dh
  0000000140004135: 00 00              add         byte ptr [rax],al
  0000000140004137: 00 B7 02 00 00 00  add         byte ptr [rdi+0000000000000002h],dh
  000000014000413D: 00 00              add         byte ptr [rax],al
  000000014000413F: 00 B7 02 00 00 00  add         byte ptr [rdi+0000000000000002h],dh
  0000000140004145: 00 00              add         byte ptr [rax],al
  0000000140004147: 00 B7 02 00 00 00  add         byte ptr [rdi+0000000000000002h],dh
  000000014000414D: 00 00              add         byte ptr [rax],al
  000000014000414F: 00 B7 02 00 00 00  add         byte ptr [rdi+0000000000000002h],dh
  0000000140004155: 00 00              add         byte ptr [rax],al
  0000000140004157: 00 B7 02 00 00 00  add         byte ptr [rdi+0000000000000002h],dh
  000000014000415D: 00 00              add         byte ptr [rax],al
  000000014000415F: 00 B7 02 00 00 00  add         byte ptr [rdi+0000000000000002h],dh
  0000000140004165: 00 00              add         byte ptr [rax],al
  0000000140004167: 00 B7 02 00 00 00  add         byte ptr [rdi+0000000000000002h],dh
  000000014000416D: 00 00              add         byte ptr [rax],al
  000000014000416F: 00 B7 02 00 00 00  add         byte ptr [rdi+0000000000000002h],dh
  0000000140004175: 00 00              add         byte ptr [rax],al
  0000000140004177: 00 B7 02 00 00 00  add         byte ptr [rdi+0000000000000002h],dh
  000000014000417D: 00 00              add         byte ptr [rax],al
  000000014000417F: 00 B7 02 00 00 00  add         byte ptr [rdi+0000000000000002h],dh
  0000000140004185: 00 00              add         byte ptr [rax],al
  0000000140004187: 00 B7 02 00 00 00  add         byte ptr [rdi+0000000000000002h],dh
  000000014000418D: 00 00              add         byte ptr [rax],al
  000000014000418F: 00 B7 02 00 00 00  add         byte ptr [rdi+0000000000000002h],dh
  0000000140004195: 00 00              add         byte ptr [rax],al
  0000000140004197: 00 B7 02 00 00 00  add         byte ptr [rdi+0000000000000002h],dh
  000000014000419D: 00 00              add         byte ptr [rax],al
  000000014000419F: 00 B7 02 00 00 00  add         byte ptr [rdi+0000000000000002h],dh
  00000001400041A5: 00 00              add         byte ptr [rax],al
  00000001400041A7: 00 B7 02 00 00 00  add         byte ptr [rdi+0000000000000002h],dh
  00000001400041AD: 00 00              add         byte ptr [rax],al
  00000001400041AF: 00 B7 02 00 00 00  add         byte ptr [rdi+0000000000000002h],dh
  00000001400041B5: 00 00              add         byte ptr [rax],al
  00000001400041B7: 00 B7 02 00 00 00  add         byte ptr [rdi+0000000000000002h],dh
  00000001400041BD: 00 00              add         byte ptr [rax],al
  00000001400041BF: 00 C0              add         al,al
  00000001400041C1: 02 00              add         al,byte ptr [rax]
  00000001400041C3: 00 00              add         byte ptr [rax],al
  00000001400041C5: 00 00              add         byte ptr [rax],al
  00000001400041C7: 00 C0              add         al,al
  00000001400041C9: 02 00              add         al,byte ptr [rax]
  00000001400041CB: 00 00              add         byte ptr [rax],al
  00000001400041CD: 00 00              add         byte ptr [rax],al
  00000001400041CF: 00 C0              add         al,al
  00000001400041D1: 02 00              add         al,byte ptr [rax]
  00000001400041D3: 00 00              add         byte ptr [rax],al
  00000001400041D5: 00 00              add         byte ptr [rax],al
  00000001400041D7: 00 C0              add         al,al
  00000001400041D9: 02 00              add         al,byte ptr [rax]
  00000001400041DB: 00 00              add         byte ptr [rax],al
  00000001400041DD: 00 00              add         byte ptr [rax],al
  00000001400041DF: 00 C0              add         al,al
  00000001400041E1: 02 00              add         al,byte ptr [rax]
  00000001400041E3: 00 00              add         byte ptr [rax],al
  00000001400041E5: 00 00              add         byte ptr [rax],al
  00000001400041E7: 00 C0              add         al,al
  00000001400041E9: 02 00              add         al,byte ptr [rax]
  00000001400041EB: 00 00              add         byte ptr [rax],al
  00000001400041ED: 00 00              add         byte ptr [rax],al
  00000001400041EF: 00 C0              add         al,al
  00000001400041F1: 02 00              add         al,byte ptr [rax]
  00000001400041F3: 00 00              add         byte ptr [rax],al
  00000001400041F5: 00 00              add         byte ptr [rax],al
  00000001400041F7: 00 C0              add         al,al
  00000001400041F9: 02 00              add         al,byte ptr [rax]
  00000001400041FB: 00 00              add         byte ptr [rax],al
  00000001400041FD: 00 00              add         byte ptr [rax],al
  00000001400041FF: 00 C0              add         al,al
  0000000140004201: 02 00              add         al,byte ptr [rax]
  0000000140004203: 00 00              add         byte ptr [rax],al
  0000000140004205: 00 00              add         byte ptr [rax],al
  0000000140004207: 00 C0              add         al,al
  0000000140004209: 02 00              add         al,byte ptr [rax]
  000000014000420B: 00 00              add         byte ptr [rax],al
  000000014000420D: 00 00              add         byte ptr [rax],al
  000000014000420F: 00 C0              add         al,al
  0000000140004211: 02 00              add         al,byte ptr [rax]
  0000000140004213: 00 00              add         byte ptr [rax],al
  0000000140004215: 00 00              add         byte ptr [rax],al
  0000000140004217: 00 C0              add         al,al
  0000000140004219: 02 00              add         al,byte ptr [rax]
  000000014000421B: 00 00              add         byte ptr [rax],al
  000000014000421D: 00 00              add         byte ptr [rax],al
  000000014000421F: 00 C0              add         al,al
  0000000140004221: 02 00              add         al,byte ptr [rax]
  0000000140004223: 00 00              add         byte ptr [rax],al
  0000000140004225: 00 00              add         byte ptr [rax],al
  0000000140004227: 00 C0              add         al,al
  0000000140004229: 02 00              add         al,byte ptr [rax]
  000000014000422B: 00 00              add         byte ptr [rax],al
  000000014000422D: 00 00              add         byte ptr [rax],al
  000000014000422F: 00 C0              add         al,al
  0000000140004231: 02 00              add         al,byte ptr [rax]
  0000000140004233: 00 00              add         byte ptr [rax],al
  0000000140004235: 00 00              add         byte ptr [rax],al
  0000000140004237: 00 C0              add         al,al
  0000000140004239: 02 00              add         al,byte ptr [rax]
  000000014000423B: 00 00              add         byte ptr [rax],al
  000000014000423D: 00 00              add         byte ptr [rax],al
  000000014000423F: 00 C0              add         al,al
  0000000140004241: 02 00              add         al,byte ptr [rax]
  0000000140004243: 00 00              add         byte ptr [rax],al
  0000000140004245: 00 00              add         byte ptr [rax],al
  0000000140004247: 00 C0              add         al,al
  0000000140004249: 02 00              add         al,byte ptr [rax]
  000000014000424B: 00 00              add         byte ptr [rax],al
  000000014000424D: 00 00              add         byte ptr [rax],al
  000000014000424F: 00 C0              add         al,al
  0000000140004251: 02 00              add         al,byte ptr [rax]
  0000000140004253: 00 00              add         byte ptr [rax],al
  0000000140004255: 00 00              add         byte ptr [rax],al
  0000000140004257: 00 C0              add         al,al
  0000000140004259: 02 00              add         al,byte ptr [rax]
  000000014000425B: 00 00              add         byte ptr [rax],al
  000000014000425D: 00 00              add         byte ptr [rax],al
  000000014000425F: 00 C0              add         al,al
  0000000140004261: 02 00              add         al,byte ptr [rax]
  0000000140004263: 00 00              add         byte ptr [rax],al
  0000000140004265: 00 00              add         byte ptr [rax],al
  0000000140004267: 00 C0              add         al,al
  0000000140004269: 02 00              add         al,byte ptr [rax]
  000000014000426B: 00 00              add         byte ptr [rax],al
  000000014000426D: 00 00              add         byte ptr [rax],al
  000000014000426F: 00 C0              add         al,al
  0000000140004271: 02 00              add         al,byte ptr [rax]
  0000000140004273: 00 00              add         byte ptr [rax],al
  0000000140004275: 00 00              add         byte ptr [rax],al
  0000000140004277: 00 C0              add         al,al
  0000000140004279: 02 00              add         al,byte ptr [rax]
  000000014000427B: 00 00              add         byte ptr [rax],al
  000000014000427D: 00 00              add         byte ptr [rax],al
  000000014000427F: 00 C0              add         al,al
  0000000140004281: 02 00              add         al,byte ptr [rax]
  0000000140004283: 00 00              add         byte ptr [rax],al
  0000000140004285: 00 00              add         byte ptr [rax],al
  0000000140004287: 00 C0              add         al,al
  0000000140004289: 02 00              add         al,byte ptr [rax]
  000000014000428B: 00 00              add         byte ptr [rax],al
  000000014000428D: 00 00              add         byte ptr [rax],al
  000000014000428F: 00 C0              add         al,al
  0000000140004291: 02 00              add         al,byte ptr [rax]
  0000000140004293: 00 00              add         byte ptr [rax],al
  0000000140004295: 00 00              add         byte ptr [rax],al
  0000000140004297: 00 C0              add         al,al
  0000000140004299: 02 00              add         al,byte ptr [rax]
  000000014000429B: 00 00              add         byte ptr [rax],al
  000000014000429D: 00 00              add         byte ptr [rax],al
  000000014000429F: 00 C0              add         al,al
  00000001400042A1: 02 00              add         al,byte ptr [rax]
  00000001400042A3: 00 00              add         byte ptr [rax],al
  00000001400042A5: 00 00              add         byte ptr [rax],al
  00000001400042A7: 00 C0              add         al,al
  00000001400042A9: 02 00              add         al,byte ptr [rax]
  00000001400042AB: 00 00              add         byte ptr [rax],al
  00000001400042AD: 00 00              add         byte ptr [rax],al
  00000001400042AF: 00 C0              add         al,al
  00000001400042B1: 02 00              add         al,byte ptr [rax]
  00000001400042B3: 00 00              add         byte ptr [rax],al
  00000001400042B5: 00 00              add         byte ptr [rax],al
  00000001400042B7: 00 C0              add         al,al
  00000001400042B9: 02 00              add         al,byte ptr [rax]
  00000001400042BB: 00 00              add         byte ptr [rax],al
  00000001400042BD: 00 00              add         byte ptr [rax],al
  00000001400042BF: 00 60 0A           add         byte ptr [rax+0Ah],ah
  00000001400042C2: 00 00              add         byte ptr [rax],al
  00000001400042C4: 00 00              add         byte ptr [rax],al
  00000001400042C6: 00 00              add         byte ptr [rax],al
  00000001400042C8: 70 0A              jo          00000001400042D4
  00000001400042CA: 00 00              add         byte ptr [rax],al
  00000001400042CC: 00 00              add         byte ptr [rax],al
  00000001400042CE: 00 00              add         byte ptr [rax],al
  00000001400042D0: 50                 push        rax
  00000001400042D1: 0A 00              or          al,byte ptr [rax]
  00000001400042D3: 00 00              add         byte ptr [rax],al
  00000001400042D5: 00 00              add         byte ptr [rax],al
  00000001400042D7: 00 40 0A           add         byte ptr [rax+0Ah],al
  00000001400042DA: 00 00              add         byte ptr [rax],al
  00000001400042DC: 00 00              add         byte ptr [rax],al
  00000001400042DE: 00 00              add         byte ptr [rax],al
  00000001400042E0: 30 0A              xor         byte ptr [rdx],cl
  00000001400042E2: 00 00              add         byte ptr [rax],al
  00000001400042E4: 00 00              add         byte ptr [rax],al
  00000001400042E6: 00 00              add         byte ptr [rax],al
  00000001400042E8: 20 0A              and         byte ptr [rdx],cl
  00000001400042EA: 00 00              add         byte ptr [rax],al
  00000001400042EC: 00 00              add         byte ptr [rax],al
  00000001400042EE: 00 00              add         byte ptr [rax],al
  00000001400042F0: 20 0A              and         byte ptr [rdx],cl
  00000001400042F2: 00 00              add         byte ptr [rax],al
  00000001400042F4: 00 00              add         byte ptr [rax],al
  00000001400042F6: 00 00              add         byte ptr [rax],al
  00000001400042F8: 20 0A              and         byte ptr [rdx],cl
  00000001400042FA: 00 00              add         byte ptr [rax],al
  00000001400042FC: 00 00              add         byte ptr [rax],al
  00000001400042FE: 00 00              add         byte ptr [rax],al
  0000000140004300: 10 0A              adc         byte ptr [rdx],cl
  0000000140004302: 00 00              add         byte ptr [rax],al
  0000000140004304: 00 00              add         byte ptr [rax],al
  0000000140004306: 00 00              add         byte ptr [rax],al
  0000000140004308: 00 0A              add         byte ptr [rdx],cl
  000000014000430A: 00 00              add         byte ptr [rax],al
  000000014000430C: 00 00              add         byte ptr [rax],al
  000000014000430E: 00 00              add         byte ptr [rax],al
  0000000140004310: 00 0A              add         byte ptr [rdx],cl
  0000000140004312: 00 00              add         byte ptr [rax],al
  0000000140004314: 00 00              add         byte ptr [rax],al
  0000000140004316: 00 00              add         byte ptr [rax],al
  0000000140004318: 00 0A              add         byte ptr [rdx],cl
  000000014000431A: 00 00              add         byte ptr [rax],al
  000000014000431C: 00 00              add         byte ptr [rax],al
  000000014000431E: 00 00              add         byte ptr [rax],al
  0000000140004320: 00 0A              add         byte ptr [rdx],cl
  0000000140004322: 00 00              add         byte ptr [rax],al
  0000000140004324: 00 00              add         byte ptr [rax],al
  0000000140004326: 00 00              add         byte ptr [rax],al
  0000000140004328: 00 0A              add         byte ptr [rdx],cl
  000000014000432A: 00 00              add         byte ptr [rax],al
  000000014000432C: 00 00              add         byte ptr [rax],al
  000000014000432E: 00 00              add         byte ptr [rax],al
  0000000140004330: 00 0A              add         byte ptr [rdx],cl
  0000000140004332: 00 00              add         byte ptr [rax],al
  0000000140004334: 00 00              add         byte ptr [rax],al
  0000000140004336: 00 00              add         byte ptr [rax],al
  0000000140004338: 00 0A              add         byte ptr [rdx],cl
  000000014000433A: 00 00              add         byte ptr [rax],al
  000000014000433C: 00 00              add         byte ptr [rax],al
  000000014000433E: 00 00              add         byte ptr [rax],al
  0000000140004340: 30 09              xor         byte ptr [rcx],cl
  0000000140004342: 00 00              add         byte ptr [rax],al
  0000000140004344: 00 00              add         byte ptr [rax],al
  0000000140004346: 00 00              add         byte ptr [rax],al
  0000000140004348: 20 09              and         byte ptr [rcx],cl
  000000014000434A: 00 00              add         byte ptr [rax],al
  000000014000434C: 00 00              add         byte ptr [rax],al
  000000014000434E: 00 00              add         byte ptr [rax],al
  0000000140004350: 20 09              and         byte ptr [rcx],cl
  0000000140004352: 00 00              add         byte ptr [rax],al
  0000000140004354: 00 00              add         byte ptr [rax],al
  0000000140004356: 00 00              add         byte ptr [rax],al
  0000000140004358: 20 09              and         byte ptr [rcx],cl
  000000014000435A: 00 00              add         byte ptr [rax],al
  000000014000435C: 00 00              add         byte ptr [rax],al
  000000014000435E: 00 00              add         byte ptr [rax],al
  0000000140004360: 20 09              and         byte ptr [rcx],cl
  0000000140004362: 00 00              add         byte ptr [rax],al
  0000000140004364: 00 00              add         byte ptr [rax],al
  0000000140004366: 00 00              add         byte ptr [rax],al
  0000000140004368: 20 09              and         byte ptr [rcx],cl
  000000014000436A: 00 00              add         byte ptr [rax],al
  000000014000436C: 00 00              add         byte ptr [rax],al
  000000014000436E: 00 00              add         byte ptr [rax],al
  0000000140004370: 20 09              and         byte ptr [rcx],cl
  0000000140004372: 00 00              add         byte ptr [rax],al
  0000000140004374: 00 00              add         byte ptr [rax],al
  0000000140004376: 00 00              add         byte ptr [rax],al
  0000000140004378: 20 09              and         byte ptr [rcx],cl
  000000014000437A: 00 00              add         byte ptr [rax],al
  000000014000437C: 00 00              add         byte ptr [rax],al
  000000014000437E: 00 00              add         byte ptr [rax],al
  0000000140004380: 20 09              and         byte ptr [rcx],cl
  0000000140004382: 00 00              add         byte ptr [rax],al
  0000000140004384: 00 00              add         byte ptr [rax],al
  0000000140004386: 00 00              add         byte ptr [rax],al
  0000000140004388: 20 09              and         byte ptr [rcx],cl
  000000014000438A: 00 00              add         byte ptr [rax],al
  000000014000438C: 00 00              add         byte ptr [rax],al
  000000014000438E: 00 00              add         byte ptr [rax],al
  0000000140004390: 20 09              and         byte ptr [rcx],cl
  0000000140004392: 00 00              add         byte ptr [rax],al
  0000000140004394: 00 00              add         byte ptr [rax],al
  0000000140004396: 00 00              add         byte ptr [rax],al
  0000000140004398: 20 09              and         byte ptr [rcx],cl
  000000014000439A: 00 00              add         byte ptr [rax],al
  000000014000439C: 00 00              add         byte ptr [rax],al
  000000014000439E: 00 00              add         byte ptr [rax],al
  00000001400043A0: 20 09              and         byte ptr [rcx],cl
  00000001400043A2: 00 00              add         byte ptr [rax],al
  00000001400043A4: 00 00              add         byte ptr [rax],al
  00000001400043A6: 00 00              add         byte ptr [rax],al
  00000001400043A8: 20 09              and         byte ptr [rcx],cl
  00000001400043AA: 00 00              add         byte ptr [rax],al
  00000001400043AC: 00 00              add         byte ptr [rax],al
  00000001400043AE: 00 00              add         byte ptr [rax],al
  00000001400043B0: 20 09              and         byte ptr [rcx],cl
  00000001400043B2: 00 00              add         byte ptr [rax],al
  00000001400043B4: 00 00              add         byte ptr [rax],al
  00000001400043B6: 00 00              add         byte ptr [rax],al
  00000001400043B8: 20 09              and         byte ptr [rcx],cl
  00000001400043BA: 00 00              add         byte ptr [rax],al
  00000001400043BC: 00 00              add         byte ptr [rax],al
  00000001400043BE: 00 00              add         byte ptr [rax],al
  00000001400043C0: D0 09              ror         byte ptr [rcx],1
  00000001400043C2: 00 00              add         byte ptr [rax],al
  00000001400043C4: 00 00              add         byte ptr [rax],al
  00000001400043C6: 00 00              add         byte ptr [rax],al
  00000001400043C8: C0 09 00           ror         byte ptr [rcx],0
  00000001400043CB: 00 00              add         byte ptr [rax],al
  00000001400043CD: 00 00              add         byte ptr [rax],al
  00000001400043CF: 00 C0              add         al,al
  00000001400043D1: 09 00              or          dword ptr [rax],eax
  00000001400043D3: 00 00              add         byte ptr [rax],al
  00000001400043D5: 00 00              add         byte ptr [rax],al
  00000001400043D7: 00 C0              add         al,al
  00000001400043D9: 09 00              or          dword ptr [rax],eax
  00000001400043DB: 00 00              add         byte ptr [rax],al
  00000001400043DD: 00 00              add         byte ptr [rax],al
  00000001400043DF: 00 C0              add         al,al
  00000001400043E1: 09 00              or          dword ptr [rax],eax
  00000001400043E3: 00 00              add         byte ptr [rax],al
  00000001400043E5: 00 00              add         byte ptr [rax],al
  00000001400043E7: 00 C0              add         al,al
  00000001400043E9: 09 00              or          dword ptr [rax],eax
  00000001400043EB: 00 00              add         byte ptr [rax],al
  00000001400043ED: 00 00              add         byte ptr [rax],al
  00000001400043EF: 00 C0              add         al,al
  00000001400043F1: 09 00              or          dword ptr [rax],eax
  00000001400043F3: 00 00              add         byte ptr [rax],al
  00000001400043F5: 00 00              add         byte ptr [rax],al
  00000001400043F7: 00 C0              add         al,al
  00000001400043F9: 09 00              or          dword ptr [rax],eax
  00000001400043FB: 00 00              add         byte ptr [rax],al
  00000001400043FD: 00 00              add         byte ptr [rax],al
  00000001400043FF: 00 C0              add         al,al
  0000000140004401: 09 00              or          dword ptr [rax],eax
  0000000140004403: 00 00              add         byte ptr [rax],al
  0000000140004405: 00 00              add         byte ptr [rax],al
  0000000140004407: 00 C0              add         al,al
  0000000140004409: 09 00              or          dword ptr [rax],eax
  000000014000440B: 00 00              add         byte ptr [rax],al
  000000014000440D: 00 00              add         byte ptr [rax],al
  000000014000440F: 00 C0              add         al,al
  0000000140004411: 09 00              or          dword ptr [rax],eax
  0000000140004413: 00 00              add         byte ptr [rax],al
  0000000140004415: 00 00              add         byte ptr [rax],al
  0000000140004417: 00 C0              add         al,al
  0000000140004419: 09 00              or          dword ptr [rax],eax
  000000014000441B: 00 00              add         byte ptr [rax],al
  000000014000441D: 00 00              add         byte ptr [rax],al
  000000014000441F: 00 C0              add         al,al
  0000000140004421: 09 00              or          dword ptr [rax],eax
  0000000140004423: 00 00              add         byte ptr [rax],al
  0000000140004425: 00 00              add         byte ptr [rax],al
  0000000140004427: 00 C0              add         al,al
  0000000140004429: 09 00              or          dword ptr [rax],eax
  000000014000442B: 00 00              add         byte ptr [rax],al
  000000014000442D: 00 00              add         byte ptr [rax],al
  000000014000442F: 00 C0              add         al,al
  0000000140004431: 09 00              or          dword ptr [rax],eax
  0000000140004433: 00 00              add         byte ptr [rax],al
  0000000140004435: 00 00              add         byte ptr [rax],al
  0000000140004437: 00 C0              add         al,al
  0000000140004439: 09 00              or          dword ptr [rax],eax
  000000014000443B: 00 00              add         byte ptr [rax],al
  000000014000443D: 00 00              add         byte ptr [rax],al
  000000014000443F: 00 C0              add         al,al
  0000000140004441: 09 00              or          dword ptr [rax],eax
  0000000140004443: 00 00              add         byte ptr [rax],al
  0000000140004445: 00 00              add         byte ptr [rax],al
  0000000140004447: 00 C0              add         al,al
  0000000140004449: 09 00              or          dword ptr [rax],eax
  000000014000444B: 00 00              add         byte ptr [rax],al
  000000014000444D: 00 00              add         byte ptr [rax],al
  000000014000444F: 00 C0              add         al,al
  0000000140004451: 09 00              or          dword ptr [rax],eax
  0000000140004453: 00 00              add         byte ptr [rax],al
  0000000140004455: 00 00              add         byte ptr [rax],al
  0000000140004457: 00 C0              add         al,al
  0000000140004459: 09 00              or          dword ptr [rax],eax
  000000014000445B: 00 00              add         byte ptr [rax],al
  000000014000445D: 00 00              add         byte ptr [rax],al
  000000014000445F: 00 C0              add         al,al
  0000000140004461: 09 00              or          dword ptr [rax],eax
  0000000140004463: 00 00              add         byte ptr [rax],al
  0000000140004465: 00 00              add         byte ptr [rax],al
  0000000140004467: 00 C0              add         al,al
  0000000140004469: 09 00              or          dword ptr [rax],eax
  000000014000446B: 00 00              add         byte ptr [rax],al
  000000014000446D: 00 00              add         byte ptr [rax],al
  000000014000446F: 00 C0              add         al,al
  0000000140004471: 09 00              or          dword ptr [rax],eax
  0000000140004473: 00 00              add         byte ptr [rax],al
  0000000140004475: 00 00              add         byte ptr [rax],al
  0000000140004477: 00 C0              add         al,al
  0000000140004479: 09 00              or          dword ptr [rax],eax
  000000014000447B: 00 00              add         byte ptr [rax],al
  000000014000447D: 00 00              add         byte ptr [rax],al
  000000014000447F: 00 C0              add         al,al
  0000000140004481: 09 00              or          dword ptr [rax],eax
  0000000140004483: 00 00              add         byte ptr [rax],al
  0000000140004485: 00 00              add         byte ptr [rax],al
  0000000140004487: 00 C0              add         al,al
  0000000140004489: 09 00              or          dword ptr [rax],eax
  000000014000448B: 00 00              add         byte ptr [rax],al
  000000014000448D: 00 00              add         byte ptr [rax],al
  000000014000448F: 00 C0              add         al,al
  0000000140004491: 09 00              or          dword ptr [rax],eax
  0000000140004493: 00 00              add         byte ptr [rax],al
  0000000140004495: 00 00              add         byte ptr [rax],al
  0000000140004497: 00 C0              add         al,al
  0000000140004499: 09 00              or          dword ptr [rax],eax
  000000014000449B: 00 00              add         byte ptr [rax],al
  000000014000449D: 00 00              add         byte ptr [rax],al
  000000014000449F: 00 C0              add         al,al
  00000001400044A1: 09 00              or          dword ptr [rax],eax
  00000001400044A3: 00 00              add         byte ptr [rax],al
  00000001400044A5: 00 00              add         byte ptr [rax],al
  00000001400044A7: 00 C0              add         al,al
  00000001400044A9: 09 00              or          dword ptr [rax],eax
  00000001400044AB: 00 00              add         byte ptr [rax],al
  00000001400044AD: 00 00              add         byte ptr [rax],al
  00000001400044AF: 00 C0              add         al,al
  00000001400044B1: 09 00              or          dword ptr [rax],eax
  00000001400044B3: 00 00              add         byte ptr [rax],al
  00000001400044B5: 00 00              add         byte ptr [rax],al
  00000001400044B7: 00 C0              add         al,al
  00000001400044B9: 09 00              or          dword ptr [rax],eax
  00000001400044BB: 00 00              add         byte ptr [rax],al
  00000001400044BD: 00 00              add         byte ptr [rax],al
  00000001400044BF: 00 A0 09 00 00 00  add         byte ptr [rax+0000000000000009h],ah
  00000001400044C5: 00 00              add         byte ptr [rax],al
  00000001400044C7: 00 80 09 00 00 00  add         byte ptr [rax+0000000000000009h],al
  00000001400044CD: 00 00              add         byte ptr [rax],al
  00000001400044CF: 00 80 09 00 00 00  add         byte ptr [rax+0000000000000009h],al
  00000001400044D5: 00 00              add         byte ptr [rax],al
  00000001400044D7: 00 80 09 00 00 00  add         byte ptr [rax+0000000000000009h],al
  00000001400044DD: 00 00              add         byte ptr [rax],al
  00000001400044DF: 00 80 09 00 00 00  add         byte ptr [rax+0000000000000009h],al
  00000001400044E5: 00 00              add         byte ptr [rax],al
  00000001400044E7: 00 80 09 00 00 00  add         byte ptr [rax+0000000000000009h],al
  00000001400044ED: 00 00              add         byte ptr [rax],al
  00000001400044EF: 00 80 09 00 00 00  add         byte ptr [rax+0000000000000009h],al
  00000001400044F5: 00 00              add         byte ptr [rax],al
  00000001400044F7: 00 80 09 00 00 00  add         byte ptr [rax+0000000000000009h],al
  00000001400044FD: 00 00              add         byte ptr [rax],al
  00000001400044FF: 00 80 09 00 00 00  add         byte ptr [rax+0000000000000009h],al
  0000000140004505: 00 00              add         byte ptr [rax],al
  0000000140004507: 00 80 09 00 00 00  add         byte ptr [rax+0000000000000009h],al
  000000014000450D: 00 00              add         byte ptr [rax],al
  000000014000450F: 00 80 09 00 00 00  add         byte ptr [rax+0000000000000009h],al
  0000000140004515: 00 00              add         byte ptr [rax],al
  0000000140004517: 00 80 09 00 00 00  add         byte ptr [rax+0000000000000009h],al
  000000014000451D: 00 00              add         byte ptr [rax],al
  000000014000451F: 00 80 09 00 00 00  add         byte ptr [rax+0000000000000009h],al
  0000000140004525: 00 00              add         byte ptr [rax],al
  0000000140004527: 00 80 09 00 00 00  add         byte ptr [rax+0000000000000009h],al
  000000014000452D: 00 00              add         byte ptr [rax],al
  000000014000452F: 00 80 09 00 00 00  add         byte ptr [rax+0000000000000009h],al
  0000000140004535: 00 00              add         byte ptr [rax],al
  0000000140004537: 00 80 09 00 00 00  add         byte ptr [rax+0000000000000009h],al
  000000014000453D: 00 00              add         byte ptr [rax],al
  000000014000453F: 00 80 09 00 00 00  add         byte ptr [rax+0000000000000009h],al
  0000000140004545: 00 00              add         byte ptr [rax],al
  0000000140004547: 00 80 09 00 00 00  add         byte ptr [rax+0000000000000009h],al
  000000014000454D: 00 00              add         byte ptr [rax],al
  000000014000454F: 00 80 09 00 00 00  add         byte ptr [rax+0000000000000009h],al
  0000000140004555: 00 00              add         byte ptr [rax],al
  0000000140004557: 00 80 09 00 00 00  add         byte ptr [rax+0000000000000009h],al
  000000014000455D: 00 00              add         byte ptr [rax],al
  000000014000455F: 00 80 09 00 00 00  add         byte ptr [rax+0000000000000009h],al
  0000000140004565: 00 00              add         byte ptr [rax],al
  0000000140004567: 00 80 09 00 00 00  add         byte ptr [rax+0000000000000009h],al
  000000014000456D: 00 00              add         byte ptr [rax],al
  000000014000456F: 00 80 09 00 00 00  add         byte ptr [rax+0000000000000009h],al
  0000000140004575: 00 00              add         byte ptr [rax],al
  0000000140004577: 00 80 09 00 00 00  add         byte ptr [rax+0000000000000009h],al
  000000014000457D: 00 00              add         byte ptr [rax],al
  000000014000457F: 00 80 09 00 00 00  add         byte ptr [rax+0000000000000009h],al
  0000000140004585: 00 00              add         byte ptr [rax],al
  0000000140004587: 00 80 09 00 00 00  add         byte ptr [rax+0000000000000009h],al
  000000014000458D: 00 00              add         byte ptr [rax],al
  000000014000458F: 00 80 09 00 00 00  add         byte ptr [rax+0000000000000009h],al
  0000000140004595: 00 00              add         byte ptr [rax],al
  0000000140004597: 00 80 09 00 00 00  add         byte ptr [rax+0000000000000009h],al
  000000014000459D: 00 00              add         byte ptr [rax],al
  000000014000459F: 00 80 09 00 00 00  add         byte ptr [rax+0000000000000009h],al
  00000001400045A5: 00 00              add         byte ptr [rax],al
  00000001400045A7: 00 80 09 00 00 00  add         byte ptr [rax+0000000000000009h],al
  00000001400045AD: 00 00              add         byte ptr [rax],al
  00000001400045AF: 00 80 09 00 00 00  add         byte ptr [rax+0000000000000009h],al
  00000001400045B5: 00 00              add         byte ptr [rax],al
  00000001400045B7: 00 80 09 00 00 00  add         byte ptr [rax+0000000000000009h],al
  00000001400045BD: 00 00              add         byte ptr [rax],al
  00000001400045BF: 00 80 09 00 00 00  add         byte ptr [rax+0000000000000009h],al
  00000001400045C5: 00 00              add         byte ptr [rax],al
  00000001400045C7: 00 80 09 00 00 00  add         byte ptr [rax+0000000000000009h],al
  00000001400045CD: 00 00              add         byte ptr [rax],al
  00000001400045CF: 00 80 09 00 00 00  add         byte ptr [rax+0000000000000009h],al
  00000001400045D5: 00 00              add         byte ptr [rax],al
  00000001400045D7: 00 80 09 00 00 00  add         byte ptr [rax+0000000000000009h],al
  00000001400045DD: 00 00              add         byte ptr [rax],al
  00000001400045DF: 00 80 09 00 00 00  add         byte ptr [rax+0000000000000009h],al
  00000001400045E5: 00 00              add         byte ptr [rax],al
  00000001400045E7: 00 80 09 00 00 00  add         byte ptr [rax+0000000000000009h],al
  00000001400045ED: 00 00              add         byte ptr [rax],al
  00000001400045EF: 00 80 09 00 00 00  add         byte ptr [rax+0000000000000009h],al
  00000001400045F5: 00 00              add         byte ptr [rax],al
  00000001400045F7: 00 80 09 00 00 00  add         byte ptr [rax+0000000000000009h],al
  00000001400045FD: 00 00              add         byte ptr [rax],al
  00000001400045FF: 00 80 09 00 00 00  add         byte ptr [rax+0000000000000009h],al
  0000000140004605: 00 00              add         byte ptr [rax],al
  0000000140004607: 00 80 09 00 00 00  add         byte ptr [rax+0000000000000009h],al
  000000014000460D: 00 00              add         byte ptr [rax],al
  000000014000460F: 00 80 09 00 00 00  add         byte ptr [rax+0000000000000009h],al
  0000000140004615: 00 00              add         byte ptr [rax],al
  0000000140004617: 00 80 09 00 00 00  add         byte ptr [rax+0000000000000009h],al
  000000014000461D: 00 00              add         byte ptr [rax],al
  000000014000461F: 00 80 09 00 00 00  add         byte ptr [rax+0000000000000009h],al
  0000000140004625: 00 00              add         byte ptr [rax],al
  0000000140004627: 00 80 09 00 00 00  add         byte ptr [rax+0000000000000009h],al
  000000014000462D: 00 00              add         byte ptr [rax],al
  000000014000462F: 00 80 09 00 00 00  add         byte ptr [rax+0000000000000009h],al
  0000000140004635: 00 00              add         byte ptr [rax],al
  0000000140004637: 00 80 09 00 00 00  add         byte ptr [rax+0000000000000009h],al
  000000014000463D: 00 00              add         byte ptr [rax],al
  000000014000463F: 00 80 09 00 00 00  add         byte ptr [rax+0000000000000009h],al
  0000000140004645: 00 00              add         byte ptr [rax],al
  0000000140004647: 00 80 09 00 00 00  add         byte ptr [rax+0000000000000009h],al
  000000014000464D: 00 00              add         byte ptr [rax],al
  000000014000464F: 00 80 09 00 00 00  add         byte ptr [rax+0000000000000009h],al
  0000000140004655: 00 00              add         byte ptr [rax],al
  0000000140004657: 00 80 09 00 00 00  add         byte ptr [rax+0000000000000009h],al
  000000014000465D: 00 00              add         byte ptr [rax],al
  000000014000465F: 00 80 09 00 00 00  add         byte ptr [rax+0000000000000009h],al
  0000000140004665: 00 00              add         byte ptr [rax],al
  0000000140004667: 00 80 09 00 00 00  add         byte ptr [rax+0000000000000009h],al
  000000014000466D: 00 00              add         byte ptr [rax],al
  000000014000466F: 00 80 09 00 00 00  add         byte ptr [rax+0000000000000009h],al
  0000000140004675: 00 00              add         byte ptr [rax],al
  0000000140004677: 00 80 09 00 00 00  add         byte ptr [rax+0000000000000009h],al
  000000014000467D: 00 00              add         byte ptr [rax],al
  000000014000467F: 00 80 09 00 00 00  add         byte ptr [rax+0000000000000009h],al
  0000000140004685: 00 00              add         byte ptr [rax],al
  0000000140004687: 00 80 09 00 00 00  add         byte ptr [rax+0000000000000009h],al
  000000014000468D: 00 00              add         byte ptr [rax],al
  000000014000468F: 00 80 09 00 00 00  add         byte ptr [rax+0000000000000009h],al
  0000000140004695: 00 00              add         byte ptr [rax],al
  0000000140004697: 00 80 09 00 00 00  add         byte ptr [rax+0000000000000009h],al
  000000014000469D: 00 00              add         byte ptr [rax],al
  000000014000469F: 00 80 09 00 00 00  add         byte ptr [rax+0000000000000009h],al
  00000001400046A5: 00 00              add         byte ptr [rax],al
  00000001400046A7: 00 80 09 00 00 00  add         byte ptr [rax+0000000000000009h],al
  00000001400046AD: 00 00              add         byte ptr [rax],al
  00000001400046AF: 00 80 09 00 00 00  add         byte ptr [rax+0000000000000009h],al
  00000001400046B5: 00 00              add         byte ptr [rax],al
  00000001400046B7: 00 80 09 00 00 00  add         byte ptr [rax+0000000000000009h],al
  00000001400046BD: 00 00              add         byte ptr [rax],al
  00000001400046BF: 00 60 09           add         byte ptr [rax+9],ah
  00000001400046C2: 00 00              add         byte ptr [rax],al
  00000001400046C4: 00 00              add         byte ptr [rax],al
  00000001400046C6: 00 00              add         byte ptr [rax],al
  00000001400046C8: 60
  00000001400046C9: 09 00              or          dword ptr [rax],eax
  00000001400046CB: 00 00              add         byte ptr [rax],al
  00000001400046CD: 00 00              add         byte ptr [rax],al
  00000001400046CF: 00 C5              add         ch,al
  00000001400046D1: F8                 clc
  00000001400046D2: 77 4C              ja          0000000140004720
  00000001400046D4: 89 D8              mov         eax,ebx
  00000001400046D6: 41 5F              pop         r15
  00000001400046D8: 5F                 pop         rdi
  00000001400046D9: C3                 ret
  00000001400046DA: 66 0F 1F 44 00 00  nop         word ptr [rax+rax]
  00000001400046E0: CC                 int         3
  00000001400046E1: CC                 int         3
  00000001400046E2: CC                 int         3
  00000001400046E3: CC                 int         3
  00000001400046E4: CC                 int         3
  00000001400046E5: CC                 int         3
  00000001400046E6: CC                 int         3
  00000001400046E7: CC                 int         3
  00000001400046E8: CC                 int         3
  00000001400046E9: CC                 int         3
  00000001400046EA: CC                 int         3
  00000001400046EB: CC                 int         3
  00000001400046EC: CC                 int         3
  00000001400046ED: CC                 int         3
  00000001400046EE: CC                 int         3
  00000001400046EF: CC                 int         3
  00000001400046F0: CC                 int         3
  00000001400046F1: CC                 int         3
  00000001400046F2: CC                 int         3
  00000001400046F3: CC                 int         3
  00000001400046F4: CC                 int         3
  00000001400046F5: CC                 int         3
  00000001400046F6: CC                 int         3
  00000001400046F7: CC                 int         3
  00000001400046F8: CC                 int         3
  00000001400046F9: CC                 int         3
  00000001400046FA: CC                 int         3
  00000001400046FB: CC                 int         3
  00000001400046FC: CC                 int         3
  00000001400046FD: CC                 int         3
  00000001400046FE: CC                 int         3
  00000001400046FF: CC                 int         3
  0000000140004700: 4D 89 C2           mov         r10,r8
  0000000140004703: 49 89 C8           mov         r8,rcx
  0000000140004706: 48 B8 01 01 01 01  mov         rax,101010101010101h
                    01 01 01 01
  0000000140004710: 4C 0F B6 CA        movzx       r9,dl
  0000000140004714: 4C 0F AF C8        imul        r9,rax
  0000000140004718: 48 8D 15 A1 14 00  lea         rdx,[0000000140005BC0h]
                    00
  000000014000471F: 62 D2 7D 48 7C C1  vpbroadcastd zmm0,r9d
  0000000140004725: 49 81 FA 80 00 00  cmp         r10,80h
                    00
  000000014000472C: 7D 0C              jge         000000014000473A
  000000014000472E: 4C 89 C0           mov         rax,r8
  0000000140004731: 49 03 C2           add         rax,r10
  0000000140004734: 4A 2B 14 D2        sub         rdx,qword ptr [rdx+r10*8]
  0000000140004738: FF E2              jmp         rdx
  000000014000473A: 48 8D 15 7F 02 00  lea         rdx,[00000001400049C0h]
                    00
  0000000140004741: 4D 89 C3           mov         r11,r8
  0000000140004744: 49 F7 DB           neg         r11
  0000000140004747: 49 83 C3 40        add         r11,40h
  000000014000474B: 49 83 E3 3F        and         r11,3Fh
  000000014000474F: 74 12              je          0000000140004763
  0000000140004751: 4D 2B D3           sub         r10,r11
  0000000140004754: 4C 89 C0           mov         rax,r8
  0000000140004757: 49 03 C3           add         rax,r11
  000000014000475A: 4A 2B 14 DA        sub         rdx,qword ptr [rdx+r11*8]
  000000014000475E: FF E2              jmp         rdx
  0000000140004760: 4D 03 C3           add         r8,r11
  0000000140004763: 49 81 FA 00 02 00  cmp         r10,200h
                    00
  000000014000476A: 0F 8C 27 01 00 00  jl          0000000140004897
  0000000140004770: 4C 3B 15 E9 80 00  cmp         r10,qword ptr [000000014000C860h]
                    00
  0000000140004777: 73 53              jae         00000001400047CC
  0000000140004779: 62 D1 7C 48 29 00  vmovaps     zmmword ptr [r8],zmm0
  000000014000477F: 62 D1 7C 48 29 40  vmovaps     zmmword ptr [r8+40h],zmm0
                    01
  0000000140004786: 62 D1 7C 48 29 40  vmovaps     zmmword ptr [r8+80h],zmm0
                    02
  000000014000478D: 62 D1 7C 48 29 40  vmovaps     zmmword ptr [r8+0C0h],zmm0
                    03
  0000000140004794: 4D 8D 80 00 02 00  lea         r8,[r8+0000000000000200h]
                    00
  000000014000479B: 49 81 EA 00 02 00  sub         r10,200h
                    00
  00000001400047A2: 62 D1 7C 48 29 40  vmovaps     zmmword ptr [r8-100h],zmm0
                    FC
  00000001400047A9: 62 D1 7C 48 29 40  vmovaps     zmmword ptr [r8-0C0h],zmm0
                    FD
  00000001400047B0: 62 D1 7C 48 29 40  vmovaps     zmmword ptr [r8-80h],zmm0
                    FE
  00000001400047B7: 62 D1 7C 48 29 40  vmovaps     zmmword ptr [r8-40h],zmm0
                    FF
  00000001400047BE: 49 81 FA 00 02 00  cmp         r10,200h
                    00
  00000001400047C5: 7D B2              jge         0000000140004779
  00000001400047C7: E9 CB 00 00 00     jmp         0000000140004897
  00000001400047CC: 62 D1 7D 48 E7 00  vmovntdq    zmmword ptr [r8],zmm0
  00000001400047D2: 62 D1 7D 48 E7 40  vmovntdq    zmmword ptr [r8+40h],zmm0
                    01
  00000001400047D9: 62 D1 7D 48 E7 40  vmovntdq    zmmword ptr [r8+80h],zmm0
                    02
  00000001400047E0: 62 D1 7D 48 E7 40  vmovntdq    zmmword ptr [r8+0C0h],zmm0
                    03
  00000001400047E7: 4D 8D 80 00 02 00  lea         r8,[r8+0000000000000200h]
                    00
  00000001400047EE: 49 81 EA 00 02 00  sub         r10,200h
                    00
  00000001400047F5: 62 D1 7D 48 E7 40  vmovntdq    zmmword ptr [r8-100h],zmm0
                    FC
  00000001400047FC: 62 D1 7D 48 E7 40  vmovntdq    zmmword ptr [r8-0C0h],zmm0
                    FD
  0000000140004803: 62 D1 7D 48 E7 40  vmovntdq    zmmword ptr [r8-80h],zmm0
                    FE
  000000014000480A: 62 D1 7D 48 E7 40  vmovntdq    zmmword ptr [r8-40h],zmm0
                    FF
  0000000140004811: 49 81 FA 00 02 00  cmp         r10,200h
                    00
  0000000140004818: 7D B2              jge         00000001400047CC
  000000014000481A: 0F AE F8           sfence
  000000014000481D: EB 78              jmp         0000000140004897
  000000014000481F: 45 88 08           mov         byte ptr [r8],r9b
  0000000140004822: E9 39 FF FF FF     jmp         0000000140004760
  0000000140004827: 66 45 89 08        mov         word ptr [r8],r9w
  000000014000482B: E9 30 FF FF FF     jmp         0000000140004760
  0000000140004830: 66 45 89 08        mov         word ptr [r8],r9w
  0000000140004834: 45 88 48 02        mov         byte ptr [r8+2],r9b
  0000000140004838: E9 23 FF FF FF     jmp         0000000140004760
  000000014000483D: 45 89 08           mov         dword ptr [r8],r9d
  0000000140004840: E9 1B FF FF FF     jmp         0000000140004760
  0000000140004845: 45 89 08           mov         dword ptr [r8],r9d
  0000000140004848: 44 89 48 FC        mov         dword ptr [rax-4],r9d
  000000014000484C: E9 0F FF FF FF     jmp         0000000140004760
  0000000140004851: 4D 89 08           mov         qword ptr [r8],r9
  0000000140004854: E9 07 FF FF FF     jmp         0000000140004760
  0000000140004859: 4D 89 08           mov         qword ptr [r8],r9
  000000014000485C: 4C 89 48 F8        mov         qword ptr [rax-8],r9
  0000000140004860: E9 FB FE FF FF     jmp         0000000140004760
  0000000140004865: C4 C1 78 11 00     vmovups     xmmword ptr [r8],xmm0
  000000014000486A: E9 F1 FE FF FF     jmp         0000000140004760
  000000014000486F: C4 C1 78 11 00     vmovups     xmmword ptr [r8],xmm0
  0000000140004874: C5 F8 11 40 F0     vmovups     xmmword ptr [rax-10h],xmm0
  0000000140004879: E9 E2 FE FF FF     jmp         0000000140004760
  000000014000487E: C4 C1 7C 11 00     vmovups     ymmword ptr [r8],ymm0
  0000000140004883: E9 D8 FE FF FF     jmp         0000000140004760
  0000000140004888: C4 C1 7C 11 00     vmovups     ymmword ptr [r8],ymm0
  000000014000488D: C5 FC 11 40 E0     vmovups     ymmword ptr [rax-20h],ymm0
  0000000140004892: E9 C9 FE FF FF     jmp         0000000140004760
  0000000140004897: 4C 89 C0           mov         rax,r8
  000000014000489A: 49 03 C2           add         rax,r10
  000000014000489D: 4D 03 C2           add         r8,r10
  00000001400048A0: 49 83 E0 C0        and         r8,0FFFFFFFFFFFFFFC0h
  00000001400048A4: 48 8D 15 15 03 00  lea         rdx,[0000000140004BC0h]
                    00
  00000001400048AB: 4A 2B 14 D2        sub         rdx,qword ptr [rdx+r10*8]
  00000001400048AF: FF E2              jmp         rdx
  00000001400048B1: 62 D1 7C 48 29 40  vmovaps     zmmword ptr [r8-1C0h],zmm0
                    F9
  00000001400048B8: 62 D1 7C 48 29 40  vmovaps     zmmword ptr [r8-180h],zmm0
                    FA
  00000001400048BF: 62 D1 7C 48 29 40  vmovaps     zmmword ptr [r8-140h],zmm0
                    FB
  00000001400048C6: 62 D1 7C 48 29 40  vmovaps     zmmword ptr [r8-100h],zmm0
                    FC
  00000001400048CD: 62 D1 7C 48 29 40  vmovaps     zmmword ptr [r8-0C0h],zmm0
                    FD
  00000001400048D4: 62 D1 7C 48 29 40  vmovaps     zmmword ptr [r8-80h],zmm0
                    FE
  00000001400048DB: 62 D1 7C 48 29 40  vmovaps     zmmword ptr [r8-40h],zmm0
                    FF
  00000001400048E2: 49 89 C2           mov         r10,rax
  00000001400048E5: 49 83 E2 3F        and         r10,3Fh
  00000001400048E9: 48 8D 15 D0 02 00  lea         rdx,[0000000140004BC0h]
                    00
  00000001400048F0: 4A 2B 14 D2        sub         rdx,qword ptr [rdx+r10*8]
  00000001400048F4: FF E2              jmp         rdx
  00000001400048F6: 45 88 08           mov         byte ptr [r8],r9b
  00000001400048F9: E9 C2 16 00 00     jmp         0000000140005FC0
  00000001400048FE: E9 BD 16 00 00     jmp         0000000140005FC0
  0000000140004903: 66 45 89 08        mov         word ptr [r8],r9w
  0000000140004907: E9 B4 16 00 00     jmp         0000000140005FC0
  000000014000490C: 66 45 89 08        mov         word ptr [r8],r9w
  0000000140004910: 45 88 48 02        mov         byte ptr [r8+2],r9b
  0000000140004914: E9 A7 16 00 00     jmp         0000000140005FC0
  0000000140004919: 45 89 08           mov         dword ptr [r8],r9d
  000000014000491C: E9 9F 16 00 00     jmp         0000000140005FC0
  0000000140004921: 45 89 08           mov         dword ptr [r8],r9d
  0000000140004924: 44 89 48 FC        mov         dword ptr [rax-4],r9d
  0000000140004928: E9 93 16 00 00     jmp         0000000140005FC0
  000000014000492D: 4D 89 08           mov         qword ptr [r8],r9
  0000000140004930: E9 8B 16 00 00     jmp         0000000140005FC0
  0000000140004935: 4D 89 08           mov         qword ptr [r8],r9
  0000000140004938: 4C 89 48 F8        mov         qword ptr [rax-8],r9
  000000014000493C: E9 7F 16 00 00     jmp         0000000140005FC0
  0000000140004941: C4 C1 78 11 00     vmovups     xmmword ptr [r8],xmm0
  0000000140004946: E9 75 16 00 00     jmp         0000000140005FC0
  000000014000494B: C4 C1 78 11 00     vmovups     xmmword ptr [r8],xmm0
  0000000140004950: C5 F8 11 40 F0     vmovups     xmmword ptr [rax-10h],xmm0
  0000000140004955: E9 66 16 00 00     jmp         0000000140005FC0
  000000014000495A: C4 C1 7C 11 00     vmovups     ymmword ptr [r8],ymm0
  000000014000495F: E9 5C 16 00 00     jmp         0000000140005FC0
  0000000140004964: C4 C1 7C 11 00     vmovups     ymmword ptr [r8],ymm0
  0000000140004969: C5 FC 11 40 E0     vmovups     ymmword ptr [rax-20h],ymm0
  000000014000496E: E9 4D 16 00 00     jmp         0000000140005FC0
  0000000140004973: 62 D1 7C 48 11 00  vmovups     zmmword ptr [r8],zmm0
  0000000140004979: E9 42 16 00 00     jmp         0000000140005FC0
  000000014000497E: 62 D1 7C 48 11 00  vmovups     zmmword ptr [r8],zmm0
  0000000140004984: 62 F1 7C 48 11 40  vmovups     zmmword ptr [rax-40h],zmm0
                    FF
  000000014000498B: E9 30 16 00 00     jmp         0000000140005FC0
  0000000140004990: 0F 1F 84 00 00 00  nop         dword ptr [rax+rax+0000000000000000h]
                    00 00
  0000000140004998: 0F 1F 80 00 00 00  nop         dword ptr [rax+0000000000000000h]
                    00
  000000014000499F: 0F 1F 84 00 00 00  nop         dword ptr [rax+rax+0000000000000000h]
                    00 00
  00000001400049A7: 0F 1F 80 00 00 00  nop         dword ptr [rax+0000000000000000h]
                    00
  00000001400049AE: 0F 1F 84 00 00 00  nop         dword ptr [rax+rax+0000000000000000h]
                    00 00
  00000001400049B6: 0F 1F 80 00 00 00  nop         dword ptr [rax+0000000000000000h]
                    00
  00000001400049BD: 0F 1F 00           nop         dword ptr [rax]
  00000001400049C0: 9E                 sahf
  00000001400049C1: 01 00              add         dword ptr [rax],eax
  00000001400049C3: 00 00              add         byte ptr [rax],al
  00000001400049C5: 00 00              add         byte ptr [rax],al
  00000001400049C7: 00 A1 01 00 00 00  add         byte ptr [rcx+0000000000000001h],ah
  00000001400049CD: 00 00              add         byte ptr [rax],al
  00000001400049CF: 00 99 01 00 00 00  add         byte ptr [rcx+0000000000000001h],bl
  00000001400049D5: 00 00              add         byte ptr [rax],al
  00000001400049D7: 00 90 01 00 00 00  add         byte ptr [rax+0000000000000001h],dl
  00000001400049DD: 00 00              add         byte ptr [rax],al
  00000001400049DF: 00 83 01 00 00 00  add         byte ptr [rbx+0000000000000001h],al
  00000001400049E5: 00 00              add         byte ptr [rax],al
  00000001400049E7: 00 7B 01           add         byte ptr [rbx+1],bh
  00000001400049EA: 00 00              add         byte ptr [rax],al
  00000001400049EC: 00 00              add         byte ptr [rax],al
  00000001400049EE: 00 00              add         byte ptr [rax],al
  00000001400049F0: 7B 01              jnp         00000001400049F3
  00000001400049F2: 00 00              add         byte ptr [rax],al
  00000001400049F4: 00 00              add         byte ptr [rax],al
  00000001400049F6: 00 00              add         byte ptr [rax],al
  00000001400049F8: 7B 01              jnp         00000001400049FB
  00000001400049FA: 00 00              add         byte ptr [rax],al
  00000001400049FC: 00 00              add         byte ptr [rax],al
  00000001400049FE: 00 00              add         byte ptr [rax],al
  0000000140004A00: 6F                 outs        dx,dword ptr [rsi]
  0000000140004A01: 01 00              add         dword ptr [rax],eax
  0000000140004A03: 00 00              add         byte ptr [rax],al
  0000000140004A05: 00 00              add         byte ptr [rax],al
  0000000140004A07: 00 67 01           add         byte ptr [rdi+1],ah
  0000000140004A0A: 00 00              add         byte ptr [rax],al
  0000000140004A0C: 00 00              add         byte ptr [rax],al
  0000000140004A0E: 00 00              add         byte ptr [rax],al
  0000000140004A10: 67 01 00           add         dword ptr [eax],eax
  0000000140004A13: 00 00              add         byte ptr [rax],al
  0000000140004A15: 00 00              add         byte ptr [rax],al
  0000000140004A17: 00 67 01           add         byte ptr [rdi+1],ah
  0000000140004A1A: 00 00              add         byte ptr [rax],al
  0000000140004A1C: 00 00              add         byte ptr [rax],al
  0000000140004A1E: 00 00              add         byte ptr [rax],al
  0000000140004A20: 67 01 00           add         dword ptr [eax],eax
  0000000140004A23: 00 00              add         byte ptr [rax],al
  0000000140004A25: 00 00              add         byte ptr [rax],al
  0000000140004A27: 00 67 01           add         byte ptr [rdi+1],ah
  0000000140004A2A: 00 00              add         byte ptr [rax],al
  0000000140004A2C: 00 00              add         byte ptr [rax],al
  0000000140004A2E: 00 00              add         byte ptr [rax],al
  0000000140004A30: 67 01 00           add         dword ptr [eax],eax
  0000000140004A33: 00 00              add         byte ptr [rax],al
  0000000140004A35: 00 00              add         byte ptr [rax],al
  0000000140004A37: 00 67 01           add         byte ptr [rdi+1],ah
  0000000140004A3A: 00 00              add         byte ptr [rax],al
  0000000140004A3C: 00 00              add         byte ptr [rax],al
  0000000140004A3E: 00 00              add         byte ptr [rax],al
  0000000140004A40: 5B                 pop         rbx
  0000000140004A41: 01 00              add         dword ptr [rax],eax
  0000000140004A43: 00 00              add         byte ptr [rax],al
  0000000140004A45: 00 00              add         byte ptr [rax],al
  0000000140004A47: 00 51 01           add         byte ptr [rcx+1],dl
  0000000140004A4A: 00 00              add         byte ptr [rax],al
  0000000140004A4C: 00 00              add         byte ptr [rax],al
  0000000140004A4E: 00 00              add         byte ptr [rax],al
  0000000140004A50: 51                 push        rcx
  0000000140004A51: 01 00              add         dword ptr [rax],eax
  0000000140004A53: 00 00              add         byte ptr [rax],al
  0000000140004A55: 00 00              add         byte ptr [rax],al
  0000000140004A57: 00 51 01           add         byte ptr [rcx+1],dl
  0000000140004A5A: 00 00              add         byte ptr [rax],al
  0000000140004A5C: 00 00              add         byte ptr [rax],al
  0000000140004A5E: 00 00              add         byte ptr [rax],al
  0000000140004A60: 51                 push        rcx
  0000000140004A61: 01 00              add         dword ptr [rax],eax
  0000000140004A63: 00 00              add         byte ptr [rax],al
  0000000140004A65: 00 00              add         byte ptr [rax],al
  0000000140004A67: 00 51 01           add         byte ptr [rcx+1],dl
  0000000140004A6A: 00 00              add         byte ptr [rax],al
  0000000140004A6C: 00 00              add         byte ptr [rax],al
  0000000140004A6E: 00 00              add         byte ptr [rax],al
  0000000140004A70: 51                 push        rcx
  0000000140004A71: 01 00              add         dword ptr [rax],eax
  0000000140004A73: 00 00              add         byte ptr [rax],al
  0000000140004A75: 00 00              add         byte ptr [rax],al
  0000000140004A77: 00 51 01           add         byte ptr [rcx+1],dl
  0000000140004A7A: 00 00              add         byte ptr [rax],al
  0000000140004A7C: 00 00              add         byte ptr [rax],al
  0000000140004A7E: 00 00              add         byte ptr [rax],al
  0000000140004A80: 51                 push        rcx
  0000000140004A81: 01 00              add         dword ptr [rax],eax
  0000000140004A83: 00 00              add         byte ptr [rax],al
  0000000140004A85: 00 00              add         byte ptr [rax],al
  0000000140004A87: 00 51 01           add         byte ptr [rcx+1],dl
  0000000140004A8A: 00 00              add         byte ptr [rax],al
  0000000140004A8C: 00 00              add         byte ptr [rax],al
  0000000140004A8E: 00 00              add         byte ptr [rax],al
  0000000140004A90: 51                 push        rcx
  0000000140004A91: 01 00              add         dword ptr [rax],eax
  0000000140004A93: 00 00              add         byte ptr [rax],al
  0000000140004A95: 00 00              add         byte ptr [rax],al
  0000000140004A97: 00 51 01           add         byte ptr [rcx+1],dl
  0000000140004A9A: 00 00              add         byte ptr [rax],al
  0000000140004A9C: 00 00              add         byte ptr [rax],al
  0000000140004A9E: 00 00              add         byte ptr [rax],al
  0000000140004AA0: 51                 push        rcx
  0000000140004AA1: 01 00              add         dword ptr [rax],eax
  0000000140004AA3: 00 00              add         byte ptr [rax],al
  0000000140004AA5: 00 00              add         byte ptr [rax],al
  0000000140004AA7: 00 51 01           add         byte ptr [rcx+1],dl
  0000000140004AAA: 00 00              add         byte ptr [rax],al
  0000000140004AAC: 00 00              add         byte ptr [rax],al
  0000000140004AAE: 00 00              add         byte ptr [rax],al
  0000000140004AB0: 51                 push        rcx
  0000000140004AB1: 01 00              add         dword ptr [rax],eax
  0000000140004AB3: 00 00              add         byte ptr [rax],al
  0000000140004AB5: 00 00              add         byte ptr [rax],al
  0000000140004AB7: 00 51 01           add         byte ptr [rcx+1],dl
  0000000140004ABA: 00 00              add         byte ptr [rax],al
  0000000140004ABC: 00 00              add         byte ptr [rax],al
  0000000140004ABE: 00 00              add         byte ptr [rax],al
  0000000140004AC0: 42 01 00           add         dword ptr [rax],eax
  0000000140004AC3: 00 00              add         byte ptr [rax],al
  0000000140004AC5: 00 00              add         byte ptr [rax],al
  0000000140004AC7: 00 38              add         byte ptr [rax],bh
  0000000140004AC9: 01 00              add         dword ptr [rax],eax
  0000000140004ACB: 00 00              add         byte ptr [rax],al
  0000000140004ACD: 00 00              add         byte ptr [rax],al
  0000000140004ACF: 00 38              add         byte ptr [rax],bh
  0000000140004AD1: 01 00              add         dword ptr [rax],eax
  0000000140004AD3: 00 00              add         byte ptr [rax],al
  0000000140004AD5: 00 00              add         byte ptr [rax],al
  0000000140004AD7: 00 38              add         byte ptr [rax],bh
  0000000140004AD9: 01 00              add         dword ptr [rax],eax
  0000000140004ADB: 00 00              add         byte ptr [rax],al
  0000000140004ADD: 00 00              add         byte ptr [rax],al
  0000000140004ADF: 00 38              add         byte ptr [rax],bh
  0000000140004AE1: 01 00              add         dword ptr [rax],eax
  0000000140004AE3: 00 00              add         byte ptr [rax],al
  0000000140004AE5: 00 00              add         byte ptr [rax],al
  0000000140004AE7: 00 38              add         byte ptr [rax],bh
  0000000140004AE9: 01 00              add         dword ptr [rax],eax
  0000000140004AEB: 00 00              add         byte ptr [rax],al
  0000000140004AED: 00 00              add         byte ptr [rax],al
  0000000140004AEF: 00 38              add         byte ptr [rax],bh
  0000000140004AF1: 01 00              add         dword ptr [rax],eax
  0000000140004AF3: 00 00              add         byte ptr [rax],al
  0000000140004AF5: 00 00              add         byte ptr [rax],al
  0000000140004AF7: 00 38              add         byte ptr [rax],bh
  0000000140004AF9: 01 00              add         dword ptr [rax],eax
  0000000140004AFB: 00 00              add         byte ptr [rax],al
  0000000140004AFD: 00 00              add         byte ptr [rax],al
  0000000140004AFF: 00 38              add         byte ptr [rax],bh
  0000000140004B01: 01 00              add         dword ptr [rax],eax
  0000000140004B03: 00 00              add         byte ptr [rax],al
  0000000140004B05: 00 00              add         byte ptr [rax],al
  0000000140004B07: 00 38              add         byte ptr [rax],bh
  0000000140004B09: 01 00              add         dword ptr [rax],eax
  0000000140004B0B: 00 00              add         byte ptr [rax],al
  0000000140004B0D: 00 00              add         byte ptr [rax],al
  0000000140004B0F: 00 38              add         byte ptr [rax],bh
  0000000140004B11: 01 00              add         dword ptr [rax],eax
  0000000140004B13: 00 00              add         byte ptr [rax],al
  0000000140004B15: 00 00              add         byte ptr [rax],al
  0000000140004B17: 00 38              add         byte ptr [rax],bh
  0000000140004B19: 01 00              add         dword ptr [rax],eax
  0000000140004B1B: 00 00              add         byte ptr [rax],al
  0000000140004B1D: 00 00              add         byte ptr [rax],al
  0000000140004B1F: 00 38              add         byte ptr [rax],bh
  0000000140004B21: 01 00              add         dword ptr [rax],eax
  0000000140004B23: 00 00              add         byte ptr [rax],al
  0000000140004B25: 00 00              add         byte ptr [rax],al
  0000000140004B27: 00 38              add         byte ptr [rax],bh
  0000000140004B29: 01 00              add         dword ptr [rax],eax
  0000000140004B2B: 00 00              add         byte ptr [rax],al
  0000000140004B2D: 00 00              add         byte ptr [rax],al
  0000000140004B2F: 00 38              add         byte ptr [rax],bh
  0000000140004B31: 01 00              add         dword ptr [rax],eax
  0000000140004B33: 00 00              add         byte ptr [rax],al
  0000000140004B35: 00 00              add         byte ptr [rax],al
  0000000140004B37: 00 38              add         byte ptr [rax],bh
  0000000140004B39: 01 00              add         dword ptr [rax],eax
  0000000140004B3B: 00 00              add         byte ptr [rax],al
  0000000140004B3D: 00 00              add         byte ptr [rax],al
  0000000140004B3F: 00 38              add         byte ptr [rax],bh
  0000000140004B41: 01 00              add         dword ptr [rax],eax
  0000000140004B43: 00 00              add         byte ptr [rax],al
  0000000140004B45: 00 00              add         byte ptr [rax],al
  0000000140004B47: 00 38              add         byte ptr [rax],bh
  0000000140004B49: 01 00              add         dword ptr [rax],eax
  0000000140004B4B: 00 00              add         byte ptr [rax],al
  0000000140004B4D: 00 00              add         byte ptr [rax],al
  0000000140004B4F: 00 38              add         byte ptr [rax],bh
  0000000140004B51: 01 00              add         dword ptr [rax],eax
  0000000140004B53: 00 00              add         byte ptr [rax],al
  0000000140004B55: 00 00              add         byte ptr [rax],al
  0000000140004B57: 00 38              add         byte ptr [rax],bh
  0000000140004B59: 01 00              add         dword ptr [rax],eax
  0000000140004B5B: 00 00              add         byte ptr [rax],al
  0000000140004B5D: 00 00              add         byte ptr [rax],al
  0000000140004B5F: 00 38              add         byte ptr [rax],bh
  0000000140004B61: 01 00              add         dword ptr [rax],eax
  0000000140004B63: 00 00              add         byte ptr [rax],al
  0000000140004B65: 00 00              add         byte ptr [rax],al
  0000000140004B67: 00 38              add         byte ptr [rax],bh
  0000000140004B69: 01 00              add         dword ptr [rax],eax
  0000000140004B6B: 00 00              add         byte ptr [rax],al
  0000000140004B6D: 00 00              add         byte ptr [rax],al
  0000000140004B6F: 00 38              add         byte ptr [rax],bh
  0000000140004B71: 01 00              add         dword ptr [rax],eax
  0000000140004B73: 00 00              add         byte ptr [rax],al
  0000000140004B75: 00 00              add         byte ptr [rax],al
  0000000140004B77: 00 38              add         byte ptr [rax],bh
  0000000140004B79: 01 00              add         dword ptr [rax],eax
  0000000140004B7B: 00 00              add         byte ptr [rax],al
  0000000140004B7D: 00 00              add         byte ptr [rax],al
  0000000140004B7F: 00 38              add         byte ptr [rax],bh
  0000000140004B81: 01 00              add         dword ptr [rax],eax
  0000000140004B83: 00 00              add         byte ptr [rax],al
  0000000140004B85: 00 00              add         byte ptr [rax],al
  0000000140004B87: 00 38              add         byte ptr [rax],bh
  0000000140004B89: 01 00              add         dword ptr [rax],eax
  0000000140004B8B: 00 00              add         byte ptr [rax],al
  0000000140004B8D: 00 00              add         byte ptr [rax],al
  0000000140004B8F: 00 38              add         byte ptr [rax],bh
  0000000140004B91: 01 00              add         dword ptr [rax],eax
  0000000140004B93: 00 00              add         byte ptr [rax],al
  0000000140004B95: 00 00              add         byte ptr [rax],al
  0000000140004B97: 00 38              add         byte ptr [rax],bh
  0000000140004B99: 01 00              add         dword ptr [rax],eax
  0000000140004B9B: 00 00              add         byte ptr [rax],al
  0000000140004B9D: 00 00              add         byte ptr [rax],al
  0000000140004B9F: 00 38              add         byte ptr [rax],bh
  0000000140004BA1: 01 00              add         dword ptr [rax],eax
  0000000140004BA3: 00 00              add         byte ptr [rax],al
  0000000140004BA5: 00 00              add         byte ptr [rax],al
  0000000140004BA7: 00 38              add         byte ptr [rax],bh
  0000000140004BA9: 01 00              add         dword ptr [rax],eax
  0000000140004BAB: 00 00              add         byte ptr [rax],al
  0000000140004BAD: 00 00              add         byte ptr [rax],al
  0000000140004BAF: 00 38              add         byte ptr [rax],bh
  0000000140004BB1: 01 00              add         dword ptr [rax],eax
  0000000140004BB3: 00 00              add         byte ptr [rax],al
  0000000140004BB5: 00 00              add         byte ptr [rax],al
  0000000140004BB7: 00 38              add         byte ptr [rax],bh
  0000000140004BB9: 01 00              add         dword ptr [rax],eax
  0000000140004BBB: 00 00              add         byte ptr [rax],al
  0000000140004BBD: 00 00              add         byte ptr [rax],al
  0000000140004BBF: 00 C2              add         dl,al
  0000000140004BC1: 02 00              add         al,byte ptr [rax]
  0000000140004BC3: 00 00              add         byte ptr [rax],al
  0000000140004BC5: 00 00              add         byte ptr [rax],al
  0000000140004BC7: 00 CA              add         dl,cl
  0000000140004BC9: 02 00              add         al,byte ptr [rax]
  0000000140004BCB: 00 00              add         byte ptr [rax],al
  0000000140004BCD: 00 00              add         byte ptr [rax],al
  0000000140004BCF: 00 BD 02 00 00 00  add         byte ptr [rbp+0000000000000002h],bh
  0000000140004BD5: 00 00              add         byte ptr [rax],al
  0000000140004BD7: 00 B4 02 00 00 00  add         byte ptr [rdx+rax+0000000000000000h],dh
                    00
  0000000140004BDE: 00 00              add         byte ptr [rax],al
  0000000140004BE0: A7                 cmps        dword ptr [rsi],dword ptr [rdi]
  0000000140004BE1: 02 00              add         al,byte ptr [rax]
  0000000140004BE3: 00 00              add         byte ptr [rax],al
  0000000140004BE5: 00 00              add         byte ptr [rax],al
  0000000140004BE7: 00 9F 02 00 00 00  add         byte ptr [rdi+0000000000000002h],bl
  0000000140004BED: 00 00              add         byte ptr [rax],al
  0000000140004BEF: 00 9F 02 00 00 00  add         byte ptr [rdi+0000000000000002h],bl
  0000000140004BF5: 00 00              add         byte ptr [rax],al
  0000000140004BF7: 00 9F 02 00 00 00  add         byte ptr [rdi+0000000000000002h],bl
  0000000140004BFD: 00 00              add         byte ptr [rax],al
  0000000140004BFF: 00 93 02 00 00 00  add         byte ptr [rbx+0000000000000002h],dl
  0000000140004C05: 00 00              add         byte ptr [rax],al
  0000000140004C07: 00 8B 02 00 00 00  add         byte ptr [rbx+0000000000000002h],cl
  0000000140004C0D: 00 00              add         byte ptr [rax],al
  0000000140004C0F: 00 8B 02 00 00 00  add         byte ptr [rbx+0000000000000002h],cl
  0000000140004C15: 00 00              add         byte ptr [rax],al
  0000000140004C17: 00 8B 02 00 00 00  add         byte ptr [rbx+0000000000000002h],cl
  0000000140004C1D: 00 00              add         byte ptr [rax],al
  0000000140004C1F: 00 8B 02 00 00 00  add         byte ptr [rbx+0000000000000002h],cl
  0000000140004C25: 00 00              add         byte ptr [rax],al
  0000000140004C27: 00 8B 02 00 00 00  add         byte ptr [rbx+0000000000000002h],cl
  0000000140004C2D: 00 00              add         byte ptr [rax],al
  0000000140004C2F: 00 8B 02 00 00 00  add         byte ptr [rbx+0000000000000002h],cl
  0000000140004C35: 00 00              add         byte ptr [rax],al
  0000000140004C37: 00 8B 02 00 00 00  add         byte ptr [rbx+0000000000000002h],cl
  0000000140004C3D: 00 00              add         byte ptr [rax],al
  0000000140004C3F: 00 7F 02           add         byte ptr [rdi+2],bh
  0000000140004C42: 00 00              add         byte ptr [rax],al
  0000000140004C44: 00 00              add         byte ptr [rax],al
  0000000140004C46: 00 00              add         byte ptr [rax],al
  0000000140004C48: 75 02              jne         0000000140004C4C
  0000000140004C4A: 00 00              add         byte ptr [rax],al
  0000000140004C4C: 00 00              add         byte ptr [rax],al
  0000000140004C4E: 00 00              add         byte ptr [rax],al
  0000000140004C50: 75 02              jne         0000000140004C54
  0000000140004C52: 00 00              add         byte ptr [rax],al
  0000000140004C54: 00 00              add         byte ptr [rax],al
  0000000140004C56: 00 00              add         byte ptr [rax],al
  0000000140004C58: 75 02              jne         0000000140004C5C
  0000000140004C5A: 00 00              add         byte ptr [rax],al
  0000000140004C5C: 00 00              add         byte ptr [rax],al
  0000000140004C5E: 00 00              add         byte ptr [rax],al
  0000000140004C60: 75 02              jne         0000000140004C64
  0000000140004C62: 00 00              add         byte ptr [rax],al
  0000000140004C64: 00 00              add         byte ptr [rax],al
  0000000140004C66: 00 00              add         byte ptr [rax],al
  0000000140004C68: 75 02              jne         0000000140004C6C
  0000000140004C6A: 00 00              add         byte ptr [rax],al
  0000000140004C6C: 00 00              add         byte ptr [rax],al
  0000000140004C6E: 00 00              add         byte ptr [rax],al
  0000000140004C70: 75 02              jne         0000000140004C74
  0000000140004C72: 00 00              add         byte ptr [rax],al
  0000000140004C74: 00 00              add         byte ptr [rax],al
  0000000140004C76: 00 00              add         byte ptr [rax],al
  0000000140004C78: 75 02              jne         0000000140004C7C
  0000000140004C7A: 00 00              add         byte ptr [rax],al
  0000000140004C7C: 00 00              add         byte ptr [rax],al
  0000000140004C7E: 00 00              add         byte ptr [rax],al
  0000000140004C80: 75 02              jne         0000000140004C84
  0000000140004C82: 00 00              add         byte ptr [rax],al
  0000000140004C84: 00 00              add         byte ptr [rax],al
  0000000140004C86: 00 00              add         byte ptr [rax],al
  0000000140004C88: 75 02              jne         0000000140004C8C
  0000000140004C8A: 00 00              add         byte ptr [rax],al
  0000000140004C8C: 00 00              add         byte ptr [rax],al
  0000000140004C8E: 00 00              add         byte ptr [rax],al
  0000000140004C90: 75 02              jne         0000000140004C94
  0000000140004C92: 00 00              add         byte ptr [rax],al
  0000000140004C94: 00 00              add         byte ptr [rax],al
  0000000140004C96: 00 00              add         byte ptr [rax],al
  0000000140004C98: 75 02              jne         0000000140004C9C
  0000000140004C9A: 00 00              add         byte ptr [rax],al
  0000000140004C9C: 00 00              add         byte ptr [rax],al
  0000000140004C9E: 00 00              add         byte ptr [rax],al
  0000000140004CA0: 75 02              jne         0000000140004CA4
  0000000140004CA2: 00 00              add         byte ptr [rax],al
  0000000140004CA4: 00 00              add         byte ptr [rax],al
  0000000140004CA6: 00 00              add         byte ptr [rax],al
  0000000140004CA8: 75 02              jne         0000000140004CAC
  0000000140004CAA: 00 00              add         byte ptr [rax],al
  0000000140004CAC: 00 00              add         byte ptr [rax],al
  0000000140004CAE: 00 00              add         byte ptr [rax],al
  0000000140004CB0: 75 02              jne         0000000140004CB4
  0000000140004CB2: 00 00              add         byte ptr [rax],al
  0000000140004CB4: 00 00              add         byte ptr [rax],al
  0000000140004CB6: 00 00              add         byte ptr [rax],al
  0000000140004CB8: 75 02              jne         0000000140004CBC
  0000000140004CBA: 00 00              add         byte ptr [rax],al
  0000000140004CBC: 00 00              add         byte ptr [rax],al
  0000000140004CBE: 00 00              add         byte ptr [rax],al
  0000000140004CC0: 66 02 00           add         al,byte ptr [rax]
  0000000140004CC3: 00 00              add         byte ptr [rax],al
  0000000140004CC5: 00 00              add         byte ptr [rax],al
  0000000140004CC7: 00 5C 02 00        add         byte ptr [rdx+rax],bl
  0000000140004CCB: 00 00              add         byte ptr [rax],al
  0000000140004CCD: 00 00              add         byte ptr [rax],al
  0000000140004CCF: 00 5C 02 00        add         byte ptr [rdx+rax],bl
  0000000140004CD3: 00 00              add         byte ptr [rax],al
  0000000140004CD5: 00 00              add         byte ptr [rax],al
  0000000140004CD7: 00 5C 02 00        add         byte ptr [rdx+rax],bl
  0000000140004CDB: 00 00              add         byte ptr [rax],al
  0000000140004CDD: 00 00              add         byte ptr [rax],al
  0000000140004CDF: 00 5C 02 00        add         byte ptr [rdx+rax],bl
  0000000140004CE3: 00 00              add         byte ptr [rax],al
  0000000140004CE5: 00 00              add         byte ptr [rax],al
  0000000140004CE7: 00 5C 02 00        add         byte ptr [rdx+rax],bl
  0000000140004CEB: 00 00              add         byte ptr [rax],al
  0000000140004CED: 00 00              add         byte ptr [rax],al
  0000000140004CEF: 00 5C 02 00        add         byte ptr [rdx+rax],bl
  0000000140004CF3: 00 00              add         byte ptr [rax],al
  0000000140004CF5: 00 00              add         byte ptr [rax],al
  0000000140004CF7: 00 5C 02 00        add         byte ptr [rdx+rax],bl
  0000000140004CFB: 00 00              add         byte ptr [rax],al
  0000000140004CFD: 00 00              add         byte ptr [rax],al
  0000000140004CFF: 00 5C 02 00        add         byte ptr [rdx+rax],bl
  0000000140004D03: 00 00              add         byte ptr [rax],al
  0000000140004D05: 00 00              add         byte ptr [rax],al
  0000000140004D07: 00 5C 02 00        add         byte ptr [rdx+rax],bl
  0000000140004D0B: 00 00              add         byte ptr [rax],al
  0000000140004D0D: 00 00              add         byte ptr [rax],al
  0000000140004D0F: 00 5C 02 00        add         byte ptr [rdx+rax],bl
  0000000140004D13: 00 00              add         byte ptr [rax],al
  0000000140004D15: 00 00              add         byte ptr [rax],al
  0000000140004D17: 00 5C 02 00        add         byte ptr [rdx+rax],bl
  0000000140004D1B: 00 00              add         byte ptr [rax],al
  0000000140004D1D: 00 00              add         byte ptr [rax],al
  0000000140004D1F: 00 5C 02 00        add         byte ptr [rdx+rax],bl
  0000000140004D23: 00 00              add         byte ptr [rax],al
  0000000140004D25: 00 00              add         byte ptr [rax],al
  0000000140004D27: 00 5C 02 00        add         byte ptr [rdx+rax],bl
  0000000140004D2B: 00 00              add         byte ptr [rax],al
  0000000140004D2D: 00 00              add         byte ptr [rax],al
  0000000140004D2F: 00 5C 02 00        add         byte ptr [rdx+rax],bl
  0000000140004D33: 00 00              add         byte ptr [rax],al
  0000000140004D35: 00 00              add         byte ptr [rax],al
  0000000140004D37: 00 5C 02 00        add         byte ptr [rdx+rax],bl
  0000000140004D3B: 00 00              add         byte ptr [rax],al
  0000000140004D3D: 00 00              add         byte ptr [rax],al
  0000000140004D3F: 00 5C 02 00        add         byte ptr [rdx+rax],bl
  0000000140004D43: 00 00              add         byte ptr [rax],al
  0000000140004D45: 00 00              add         byte ptr [rax],al
  0000000140004D47: 00 5C 02 00        add         byte ptr [rdx+rax],bl
  0000000140004D4B: 00 00              add         byte ptr [rax],al
  0000000140004D4D: 00 00              add         byte ptr [rax],al
  0000000140004D4F: 00 5C 02 00        add         byte ptr [rdx+rax],bl
  0000000140004D53: 00 00              add         byte ptr [rax],al
  0000000140004D55: 00 00              add         byte ptr [rax],al
  0000000140004D57: 00 5C 02 00        add         byte ptr [rdx+rax],bl
  0000000140004D5B: 00 00              add         byte ptr [rax],al
  0000000140004D5D: 00 00              add         byte ptr [rax],al
  0000000140004D5F: 00 5C 02 00        add         byte ptr [rdx+rax],bl
  0000000140004D63: 00 00              add         byte ptr [rax],al
  0000000140004D65: 00 00              add         byte ptr [rax],al
  0000000140004D67: 00 5C 02 00        add         byte ptr [rdx+rax],bl
  0000000140004D6B: 00 00              add         byte ptr [rax],al
  0000000140004D6D: 00 00              add         byte ptr [rax],al
  0000000140004D6F: 00 5C 02 00        add         byte ptr [rdx+rax],bl
  0000000140004D73: 00 00              add         byte ptr [rax],al
  0000000140004D75: 00 00              add         byte ptr [rax],al
  0000000140004D77: 00 5C 02 00        add         byte ptr [rdx+rax],bl
  0000000140004D7B: 00 00              add         byte ptr [rax],al
  0000000140004D7D: 00 00              add         byte ptr [rax],al
  0000000140004D7F: 00 5C 02 00        add         byte ptr [rdx+rax],bl
  0000000140004D83: 00 00              add         byte ptr [rax],al
  0000000140004D85: 00 00              add         byte ptr [rax],al
  0000000140004D87: 00 5C 02 00        add         byte ptr [rdx+rax],bl
  0000000140004D8B: 00 00              add         byte ptr [rax],al
  0000000140004D8D: 00 00              add         byte ptr [rax],al
  0000000140004D8F: 00 5C 02 00        add         byte ptr [rdx+rax],bl
  0000000140004D93: 00 00              add         byte ptr [rax],al
  0000000140004D95: 00 00              add         byte ptr [rax],al
  0000000140004D97: 00 5C 02 00        add         byte ptr [rdx+rax],bl
  0000000140004D9B: 00 00              add         byte ptr [rax],al
  0000000140004D9D: 00 00              add         byte ptr [rax],al
  0000000140004D9F: 00 5C 02 00        add         byte ptr [rdx+rax],bl
  0000000140004DA3: 00 00              add         byte ptr [rax],al
  0000000140004DA5: 00 00              add         byte ptr [rax],al
  0000000140004DA7: 00 5C 02 00        add         byte ptr [rdx+rax],bl
  0000000140004DAB: 00 00              add         byte ptr [rax],al
  0000000140004DAD: 00 00              add         byte ptr [rax],al
  0000000140004DAF: 00 5C 02 00        add         byte ptr [rdx+rax],bl
  0000000140004DB3: 00 00              add         byte ptr [rax],al
  0000000140004DB5: 00 00              add         byte ptr [rax],al
  0000000140004DB7: 00 5C 02 00        add         byte ptr [rdx+rax],bl
  0000000140004DBB: 00 00              add         byte ptr [rax],al
  0000000140004DBD: 00 00              add         byte ptr [rax],al
  0000000140004DBF: 00 E5              add         ch,ah
  0000000140004DC1: 02 00              add         al,byte ptr [rax]
  0000000140004DC3: 00 00              add         byte ptr [rax],al
  0000000140004DC5: 00 00              add         byte ptr [rax],al
  0000000140004DC7: 00 E5              add         ch,ah
  0000000140004DC9: 02 00              add         al,byte ptr [rax]
  0000000140004DCB: 00 00              add         byte ptr [rax],al
  0000000140004DCD: 00 00              add         byte ptr [rax],al
  0000000140004DCF: 00 E5              add         ch,ah
  0000000140004DD1: 02 00              add         al,byte ptr [rax]
  0000000140004DD3: 00 00              add         byte ptr [rax],al
  0000000140004DD5: 00 00              add         byte ptr [rax],al
  0000000140004DD7: 00 E5              add         ch,ah
  0000000140004DD9: 02 00              add         al,byte ptr [rax]
  0000000140004DDB: 00 00              add         byte ptr [rax],al
  0000000140004DDD: 00 00              add         byte ptr [rax],al
  0000000140004DDF: 00 E5              add         ch,ah
  0000000140004DE1: 02 00              add         al,byte ptr [rax]
  0000000140004DE3: 00 00              add         byte ptr [rax],al
  0000000140004DE5: 00 00              add         byte ptr [rax],al
  0000000140004DE7: 00 E5              add         ch,ah
  0000000140004DE9: 02 00              add         al,byte ptr [rax]
  0000000140004DEB: 00 00              add         byte ptr [rax],al
  0000000140004DED: 00 00              add         byte ptr [rax],al
  0000000140004DEF: 00 E5              add         ch,ah
  0000000140004DF1: 02 00              add         al,byte ptr [rax]
  0000000140004DF3: 00 00              add         byte ptr [rax],al
  0000000140004DF5: 00 00              add         byte ptr [rax],al
  0000000140004DF7: 00 E5              add         ch,ah
  0000000140004DF9: 02 00              add         al,byte ptr [rax]
  0000000140004DFB: 00 00              add         byte ptr [rax],al
  0000000140004DFD: 00 00              add         byte ptr [rax],al
  0000000140004DFF: 00 E5              add         ch,ah
  0000000140004E01: 02 00              add         al,byte ptr [rax]
  0000000140004E03: 00 00              add         byte ptr [rax],al
  0000000140004E05: 00 00              add         byte ptr [rax],al
  0000000140004E07: 00 E5              add         ch,ah
  0000000140004E09: 02 00              add         al,byte ptr [rax]
  0000000140004E0B: 00 00              add         byte ptr [rax],al
  0000000140004E0D: 00 00              add         byte ptr [rax],al
  0000000140004E0F: 00 E5              add         ch,ah
  0000000140004E11: 02 00              add         al,byte ptr [rax]
  0000000140004E13: 00 00              add         byte ptr [rax],al
  0000000140004E15: 00 00              add         byte ptr [rax],al
  0000000140004E17: 00 E5              add         ch,ah
  0000000140004E19: 02 00              add         al,byte ptr [rax]
  0000000140004E1B: 00 00              add         byte ptr [rax],al
  0000000140004E1D: 00 00              add         byte ptr [rax],al
  0000000140004E1F: 00 E5              add         ch,ah
  0000000140004E21: 02 00              add         al,byte ptr [rax]
  0000000140004E23: 00 00              add         byte ptr [rax],al
  0000000140004E25: 00 00              add         byte ptr [rax],al
  0000000140004E27: 00 E5              add         ch,ah
  0000000140004E29: 02 00              add         al,byte ptr [rax]
  0000000140004E2B: 00 00              add         byte ptr [rax],al
  0000000140004E2D: 00 00              add         byte ptr [rax],al
  0000000140004E2F: 00 E5              add         ch,ah
  0000000140004E31: 02 00              add         al,byte ptr [rax]
  0000000140004E33: 00 00              add         byte ptr [rax],al
  0000000140004E35: 00 00              add         byte ptr [rax],al
  0000000140004E37: 00 E5              add         ch,ah
  0000000140004E39: 02 00              add         al,byte ptr [rax]
  0000000140004E3B: 00 00              add         byte ptr [rax],al
  0000000140004E3D: 00 00              add         byte ptr [rax],al
  0000000140004E3F: 00 E5              add         ch,ah
  0000000140004E41: 02 00              add         al,byte ptr [rax]
  0000000140004E43: 00 00              add         byte ptr [rax],al
  0000000140004E45: 00 00              add         byte ptr [rax],al
  0000000140004E47: 00 E5              add         ch,ah
  0000000140004E49: 02 00              add         al,byte ptr [rax]
  0000000140004E4B: 00 00              add         byte ptr [rax],al
  0000000140004E4D: 00 00              add         byte ptr [rax],al
  0000000140004E4F: 00 E5              add         ch,ah
  0000000140004E51: 02 00              add         al,byte ptr [rax]
  0000000140004E53: 00 00              add         byte ptr [rax],al
  0000000140004E55: 00 00              add         byte ptr [rax],al
  0000000140004E57: 00 E5              add         ch,ah
  0000000140004E59: 02 00              add         al,byte ptr [rax]
  0000000140004E5B: 00 00              add         byte ptr [rax],al
  0000000140004E5D: 00 00              add         byte ptr [rax],al
  0000000140004E5F: 00 E5              add         ch,ah
  0000000140004E61: 02 00              add         al,byte ptr [rax]
  0000000140004E63: 00 00              add         byte ptr [rax],al
  0000000140004E65: 00 00              add         byte ptr [rax],al
  0000000140004E67: 00 E5              add         ch,ah
  0000000140004E69: 02 00              add         al,byte ptr [rax]
  0000000140004E6B: 00 00              add         byte ptr [rax],al
  0000000140004E6D: 00 00              add         byte ptr [rax],al
  0000000140004E6F: 00 E5              add         ch,ah
  0000000140004E71: 02 00              add         al,byte ptr [rax]
  0000000140004E73: 00 00              add         byte ptr [rax],al
  0000000140004E75: 00 00              add         byte ptr [rax],al
  0000000140004E77: 00 E5              add         ch,ah
  0000000140004E79: 02 00              add         al,byte ptr [rax]
  0000000140004E7B: 00 00              add         byte ptr [rax],al
  0000000140004E7D: 00 00              add         byte ptr [rax],al
  0000000140004E7F: 00 E5              add         ch,ah
  0000000140004E81: 02 00              add         al,byte ptr [rax]
  0000000140004E83: 00 00              add         byte ptr [rax],al
  0000000140004E85: 00 00              add         byte ptr [rax],al
  0000000140004E87: 00 E5              add         ch,ah
  0000000140004E89: 02 00              add         al,byte ptr [rax]
  0000000140004E8B: 00 00              add         byte ptr [rax],al
  0000000140004E8D: 00 00              add         byte ptr [rax],al
  0000000140004E8F: 00 E5              add         ch,ah
  0000000140004E91: 02 00              add         al,byte ptr [rax]
  0000000140004E93: 00 00              add         byte ptr [rax],al
  0000000140004E95: 00 00              add         byte ptr [rax],al
  0000000140004E97: 00 E5              add         ch,ah
  0000000140004E99: 02 00              add         al,byte ptr [rax]
  0000000140004E9B: 00 00              add         byte ptr [rax],al
  0000000140004E9D: 00 00              add         byte ptr [rax],al
  0000000140004E9F: 00 E5              add         ch,ah
  0000000140004EA1: 02 00              add         al,byte ptr [rax]
  0000000140004EA3: 00 00              add         byte ptr [rax],al
  0000000140004EA5: 00 00              add         byte ptr [rax],al
  0000000140004EA7: 00 E5              add         ch,ah
  0000000140004EA9: 02 00              add         al,byte ptr [rax]
  0000000140004EAB: 00 00              add         byte ptr [rax],al
  0000000140004EAD: 00 00              add         byte ptr [rax],al
  0000000140004EAF: 00 E5              add         ch,ah
  0000000140004EB1: 02 00              add         al,byte ptr [rax]
  0000000140004EB3: 00 00              add         byte ptr [rax],al
  0000000140004EB5: 00 00              add         byte ptr [rax],al
  0000000140004EB7: 00 E5              add         ch,ah
  0000000140004EB9: 02 00              add         al,byte ptr [rax]
  0000000140004EBB: 00 00              add         byte ptr [rax],al
  0000000140004EBD: 00 00              add         byte ptr [rax],al
  0000000140004EBF: 00 E5              add         ch,ah
  0000000140004EC1: 02 00              add         al,byte ptr [rax]
  0000000140004EC3: 00 00              add         byte ptr [rax],al
  0000000140004EC5: 00 00              add         byte ptr [rax],al
  0000000140004EC7: 00 E5              add         ch,ah
  0000000140004EC9: 02 00              add         al,byte ptr [rax]
  0000000140004ECB: 00 00              add         byte ptr [rax],al
  0000000140004ECD: 00 00              add         byte ptr [rax],al
  0000000140004ECF: 00 E5              add         ch,ah
  0000000140004ED1: 02 00              add         al,byte ptr [rax]
  0000000140004ED3: 00 00              add         byte ptr [rax],al
  0000000140004ED5: 00 00              add         byte ptr [rax],al
  0000000140004ED7: 00 E5              add         ch,ah
  0000000140004ED9: 02 00              add         al,byte ptr [rax]
  0000000140004EDB: 00 00              add         byte ptr [rax],al
  0000000140004EDD: 00 00              add         byte ptr [rax],al
  0000000140004EDF: 00 E5              add         ch,ah
  0000000140004EE1: 02 00              add         al,byte ptr [rax]
  0000000140004EE3: 00 00              add         byte ptr [rax],al
  0000000140004EE5: 00 00              add         byte ptr [rax],al
  0000000140004EE7: 00 E5              add         ch,ah
  0000000140004EE9: 02 00              add         al,byte ptr [rax]
  0000000140004EEB: 00 00              add         byte ptr [rax],al
  0000000140004EED: 00 00              add         byte ptr [rax],al
  0000000140004EEF: 00 E5              add         ch,ah
  0000000140004EF1: 02 00              add         al,byte ptr [rax]
  0000000140004EF3: 00 00              add         byte ptr [rax],al
  0000000140004EF5: 00 00              add         byte ptr [rax],al
  0000000140004EF7: 00 E5              add         ch,ah
  0000000140004EF9: 02 00              add         al,byte ptr [rax]
  0000000140004EFB: 00 00              add         byte ptr [rax],al
  0000000140004EFD: 00 00              add         byte ptr [rax],al
  0000000140004EFF: 00 E5              add         ch,ah
  0000000140004F01: 02 00              add         al,byte ptr [rax]
  0000000140004F03: 00 00              add         byte ptr [rax],al
  0000000140004F05: 00 00              add         byte ptr [rax],al
  0000000140004F07: 00 E5              add         ch,ah
  0000000140004F09: 02 00              add         al,byte ptr [rax]
  0000000140004F0B: 00 00              add         byte ptr [rax],al
  0000000140004F0D: 00 00              add         byte ptr [rax],al
  0000000140004F0F: 00 E5              add         ch,ah
  0000000140004F11: 02 00              add         al,byte ptr [rax]
  0000000140004F13: 00 00              add         byte ptr [rax],al
  0000000140004F15: 00 00              add         byte ptr [rax],al
  0000000140004F17: 00 E5              add         ch,ah
  0000000140004F19: 02 00              add         al,byte ptr [rax]
  0000000140004F1B: 00 00              add         byte ptr [rax],al
  0000000140004F1D: 00 00              add         byte ptr [rax],al
  0000000140004F1F: 00 E5              add         ch,ah
  0000000140004F21: 02 00              add         al,byte ptr [rax]
  0000000140004F23: 00 00              add         byte ptr [rax],al
  0000000140004F25: 00 00              add         byte ptr [rax],al
  0000000140004F27: 00 E5              add         ch,ah
  0000000140004F29: 02 00              add         al,byte ptr [rax]
  0000000140004F2B: 00 00              add         byte ptr [rax],al
  0000000140004F2D: 00 00              add         byte ptr [rax],al
  0000000140004F2F: 00 E5              add         ch,ah
  0000000140004F31: 02 00              add         al,byte ptr [rax]
  0000000140004F33: 00 00              add         byte ptr [rax],al
  0000000140004F35: 00 00              add         byte ptr [rax],al
  0000000140004F37: 00 E5              add         ch,ah
  0000000140004F39: 02 00              add         al,byte ptr [rax]
  0000000140004F3B: 00 00              add         byte ptr [rax],al
  0000000140004F3D: 00 00              add         byte ptr [rax],al
  0000000140004F3F: 00 E5              add         ch,ah
  0000000140004F41: 02 00              add         al,byte ptr [rax]
  0000000140004F43: 00 00              add         byte ptr [rax],al
  0000000140004F45: 00 00              add         byte ptr [rax],al
  0000000140004F47: 00 E5              add         ch,ah
  0000000140004F49: 02 00              add         al,byte ptr [rax]
  0000000140004F4B: 00 00              add         byte ptr [rax],al
  0000000140004F4D: 00 00              add         byte ptr [rax],al
  0000000140004F4F: 00 E5              add         ch,ah
  0000000140004F51: 02 00              add         al,byte ptr [rax]
  0000000140004F53: 00 00              add         byte ptr [rax],al
  0000000140004F55: 00 00              add         byte ptr [rax],al
  0000000140004F57: 00 E5              add         ch,ah
  0000000140004F59: 02 00              add         al,byte ptr [rax]
  0000000140004F5B: 00 00              add         byte ptr [rax],al
  0000000140004F5D: 00 00              add         byte ptr [rax],al
  0000000140004F5F: 00 E5              add         ch,ah
  0000000140004F61: 02 00              add         al,byte ptr [rax]
  0000000140004F63: 00 00              add         byte ptr [rax],al
  0000000140004F65: 00 00              add         byte ptr [rax],al
  0000000140004F67: 00 E5              add         ch,ah
  0000000140004F69: 02 00              add         al,byte ptr [rax]
  0000000140004F6B: 00 00              add         byte ptr [rax],al
  0000000140004F6D: 00 00              add         byte ptr [rax],al
  0000000140004F6F: 00 E5              add         ch,ah
  0000000140004F71: 02 00              add         al,byte ptr [rax]
  0000000140004F73: 00 00              add         byte ptr [rax],al
  0000000140004F75: 00 00              add         byte ptr [rax],al
  0000000140004F77: 00 E5              add         ch,ah
  0000000140004F79: 02 00              add         al,byte ptr [rax]
  0000000140004F7B: 00 00              add         byte ptr [rax],al
  0000000140004F7D: 00 00              add         byte ptr [rax],al
  0000000140004F7F: 00 E5              add         ch,ah
  0000000140004F81: 02 00              add         al,byte ptr [rax]
  0000000140004F83: 00 00              add         byte ptr [rax],al
  0000000140004F85: 00 00              add         byte ptr [rax],al
  0000000140004F87: 00 E5              add         ch,ah
  0000000140004F89: 02 00              add         al,byte ptr [rax]
  0000000140004F8B: 00 00              add         byte ptr [rax],al
  0000000140004F8D: 00 00              add         byte ptr [rax],al
  0000000140004F8F: 00 E5              add         ch,ah
  0000000140004F91: 02 00              add         al,byte ptr [rax]
  0000000140004F93: 00 00              add         byte ptr [rax],al
  0000000140004F95: 00 00              add         byte ptr [rax],al
  0000000140004F97: 00 E5              add         ch,ah
  0000000140004F99: 02 00              add         al,byte ptr [rax]
  0000000140004F9B: 00 00              add         byte ptr [rax],al
  0000000140004F9D: 00 00              add         byte ptr [rax],al
  0000000140004F9F: 00 E5              add         ch,ah
  0000000140004FA1: 02 00              add         al,byte ptr [rax]
  0000000140004FA3: 00 00              add         byte ptr [rax],al
  0000000140004FA5: 00 00              add         byte ptr [rax],al
  0000000140004FA7: 00 E5              add         ch,ah
  0000000140004FA9: 02 00              add         al,byte ptr [rax]
  0000000140004FAB: 00 00              add         byte ptr [rax],al
  0000000140004FAD: 00 00              add         byte ptr [rax],al
  0000000140004FAF: 00 E5              add         ch,ah
  0000000140004FB1: 02 00              add         al,byte ptr [rax]
  0000000140004FB3: 00 00              add         byte ptr [rax],al
  0000000140004FB5: 00 00              add         byte ptr [rax],al
  0000000140004FB7: 00 E5              add         ch,ah
  0000000140004FB9: 02 00              add         al,byte ptr [rax]
  0000000140004FBB: 00 00              add         byte ptr [rax],al
  0000000140004FBD: 00 00              add         byte ptr [rax],al
  0000000140004FBF: 00 EC              add         ah,ch
  0000000140004FC1: 02 00              add         al,byte ptr [rax]
  0000000140004FC3: 00 00              add         byte ptr [rax],al
  0000000140004FC5: 00 00              add         byte ptr [rax],al
  0000000140004FC7: 00 EC              add         ah,ch
  0000000140004FC9: 02 00              add         al,byte ptr [rax]
  0000000140004FCB: 00 00              add         byte ptr [rax],al
  0000000140004FCD: 00 00              add         byte ptr [rax],al
  0000000140004FCF: 00 EC              add         ah,ch
  0000000140004FD1: 02 00              add         al,byte ptr [rax]
  0000000140004FD3: 00 00              add         byte ptr [rax],al
  0000000140004FD5: 00 00              add         byte ptr [rax],al
  0000000140004FD7: 00 EC              add         ah,ch
  0000000140004FD9: 02 00              add         al,byte ptr [rax]
  0000000140004FDB: 00 00              add         byte ptr [rax],al
  0000000140004FDD: 00 00              add         byte ptr [rax],al
  0000000140004FDF: 00 EC              add         ah,ch
  0000000140004FE1: 02 00              add         al,byte ptr [rax]
  0000000140004FE3: 00 00              add         byte ptr [rax],al
  0000000140004FE5: 00 00              add         byte ptr [rax],al
  0000000140004FE7: 00 EC              add         ah,ch
  0000000140004FE9: 02 00              add         al,byte ptr [rax]
  0000000140004FEB: 00 00              add         byte ptr [rax],al
  0000000140004FED: 00 00              add         byte ptr [rax],al
  0000000140004FEF: 00 EC              add         ah,ch
  0000000140004FF1: 02 00              add         al,byte ptr [rax]
  0000000140004FF3: 00 00              add         byte ptr [rax],al
  0000000140004FF5: 00 00              add         byte ptr [rax],al
  0000000140004FF7: 00 EC              add         ah,ch
  0000000140004FF9: 02 00              add         al,byte ptr [rax]
  0000000140004FFB: 00 00              add         byte ptr [rax],al
  0000000140004FFD: 00 00              add         byte ptr [rax],al
  0000000140004FFF: 00 EC              add         ah,ch
  0000000140005001: 02 00              add         al,byte ptr [rax]
  0000000140005003: 00 00              add         byte ptr [rax],al
  0000000140005005: 00 00              add         byte ptr [rax],al
  0000000140005007: 00 EC              add         ah,ch
  0000000140005009: 02 00              add         al,byte ptr [rax]
  000000014000500B: 00 00              add         byte ptr [rax],al
  000000014000500D: 00 00              add         byte ptr [rax],al
  000000014000500F: 00 EC              add         ah,ch
  0000000140005011: 02 00              add         al,byte ptr [rax]
  0000000140005013: 00 00              add         byte ptr [rax],al
  0000000140005015: 00 00              add         byte ptr [rax],al
  0000000140005017: 00 EC              add         ah,ch
  0000000140005019: 02 00              add         al,byte ptr [rax]
  000000014000501B: 00 00              add         byte ptr [rax],al
  000000014000501D: 00 00              add         byte ptr [rax],al
  000000014000501F: 00 EC              add         ah,ch
  0000000140005021: 02 00              add         al,byte ptr [rax]
  0000000140005023: 00 00              add         byte ptr [rax],al
  0000000140005025: 00 00              add         byte ptr [rax],al
  0000000140005027: 00 EC              add         ah,ch
  0000000140005029: 02 00              add         al,byte ptr [rax]
  000000014000502B: 00 00              add         byte ptr [rax],al
  000000014000502D: 00 00              add         byte ptr [rax],al
  000000014000502F: 00 EC              add         ah,ch
  0000000140005031: 02 00              add         al,byte ptr [rax]
  0000000140005033: 00 00              add         byte ptr [rax],al
  0000000140005035: 00 00              add         byte ptr [rax],al
  0000000140005037: 00 EC              add         ah,ch
  0000000140005039: 02 00              add         al,byte ptr [rax]
  000000014000503B: 00 00              add         byte ptr [rax],al
  000000014000503D: 00 00              add         byte ptr [rax],al
  000000014000503F: 00 EC              add         ah,ch
  0000000140005041: 02 00              add         al,byte ptr [rax]
  0000000140005043: 00 00              add         byte ptr [rax],al
  0000000140005045: 00 00              add         byte ptr [rax],al
  0000000140005047: 00 EC              add         ah,ch
  0000000140005049: 02 00              add         al,byte ptr [rax]
  000000014000504B: 00 00              add         byte ptr [rax],al
  000000014000504D: 00 00              add         byte ptr [rax],al
  000000014000504F: 00 EC              add         ah,ch
  0000000140005051: 02 00              add         al,byte ptr [rax]
  0000000140005053: 00 00              add         byte ptr [rax],al
  0000000140005055: 00 00              add         byte ptr [rax],al
  0000000140005057: 00 EC              add         ah,ch
  0000000140005059: 02 00              add         al,byte ptr [rax]
  000000014000505B: 00 00              add         byte ptr [rax],al
  000000014000505D: 00 00              add         byte ptr [rax],al
  000000014000505F: 00 EC              add         ah,ch
  0000000140005061: 02 00              add         al,byte ptr [rax]
  0000000140005063: 00 00              add         byte ptr [rax],al
  0000000140005065: 00 00              add         byte ptr [rax],al
  0000000140005067: 00 EC              add         ah,ch
  0000000140005069: 02 00              add         al,byte ptr [rax]
  000000014000506B: 00 00              add         byte ptr [rax],al
  000000014000506D: 00 00              add         byte ptr [rax],al
  000000014000506F: 00 EC              add         ah,ch
  0000000140005071: 02 00              add         al,byte ptr [rax]
  0000000140005073: 00 00              add         byte ptr [rax],al
  0000000140005075: 00 00              add         byte ptr [rax],al
  0000000140005077: 00 EC              add         ah,ch
  0000000140005079: 02 00              add         al,byte ptr [rax]
  000000014000507B: 00 00              add         byte ptr [rax],al
  000000014000507D: 00 00              add         byte ptr [rax],al
  000000014000507F: 00 EC              add         ah,ch
  0000000140005081: 02 00              add         al,byte ptr [rax]
  0000000140005083: 00 00              add         byte ptr [rax],al
  0000000140005085: 00 00              add         byte ptr [rax],al
  0000000140005087: 00 EC              add         ah,ch
  0000000140005089: 02 00              add         al,byte ptr [rax]
  000000014000508B: 00 00              add         byte ptr [rax],al
  000000014000508D: 00 00              add         byte ptr [rax],al
  000000014000508F: 00 EC              add         ah,ch
  0000000140005091: 02 00              add         al,byte ptr [rax]
  0000000140005093: 00 00              add         byte ptr [rax],al
  0000000140005095: 00 00              add         byte ptr [rax],al
  0000000140005097: 00 EC              add         ah,ch
  0000000140005099: 02 00              add         al,byte ptr [rax]
  000000014000509B: 00 00              add         byte ptr [rax],al
  000000014000509D: 00 00              add         byte ptr [rax],al
  000000014000509F: 00 EC              add         ah,ch
  00000001400050A1: 02 00              add         al,byte ptr [rax]
  00000001400050A3: 00 00              add         byte ptr [rax],al
  00000001400050A5: 00 00              add         byte ptr [rax],al
  00000001400050A7: 00 EC              add         ah,ch
  00000001400050A9: 02 00              add         al,byte ptr [rax]
  00000001400050AB: 00 00              add         byte ptr [rax],al
  00000001400050AD: 00 00              add         byte ptr [rax],al
  00000001400050AF: 00 EC              add         ah,ch
  00000001400050B1: 02 00              add         al,byte ptr [rax]
  00000001400050B3: 00 00              add         byte ptr [rax],al
  00000001400050B5: 00 00              add         byte ptr [rax],al
  00000001400050B7: 00 EC              add         ah,ch
  00000001400050B9: 02 00              add         al,byte ptr [rax]
  00000001400050BB: 00 00              add         byte ptr [rax],al
  00000001400050BD: 00 00              add         byte ptr [rax],al
  00000001400050BF: 00 EC              add         ah,ch
  00000001400050C1: 02 00              add         al,byte ptr [rax]
  00000001400050C3: 00 00              add         byte ptr [rax],al
  00000001400050C5: 00 00              add         byte ptr [rax],al
  00000001400050C7: 00 EC              add         ah,ch
  00000001400050C9: 02 00              add         al,byte ptr [rax]
  00000001400050CB: 00 00              add         byte ptr [rax],al
  00000001400050CD: 00 00              add         byte ptr [rax],al
  00000001400050CF: 00 EC              add         ah,ch
  00000001400050D1: 02 00              add         al,byte ptr [rax]
  00000001400050D3: 00 00              add         byte ptr [rax],al
  00000001400050D5: 00 00              add         byte ptr [rax],al
  00000001400050D7: 00 EC              add         ah,ch
  00000001400050D9: 02 00              add         al,byte ptr [rax]
  00000001400050DB: 00 00              add         byte ptr [rax],al
  00000001400050DD: 00 00              add         byte ptr [rax],al
  00000001400050DF: 00 EC              add         ah,ch
  00000001400050E1: 02 00              add         al,byte ptr [rax]
  00000001400050E3: 00 00              add         byte ptr [rax],al
  00000001400050E5: 00 00              add         byte ptr [rax],al
  00000001400050E7: 00 EC              add         ah,ch
  00000001400050E9: 02 00              add         al,byte ptr [rax]
  00000001400050EB: 00 00              add         byte ptr [rax],al
  00000001400050ED: 00 00              add         byte ptr [rax],al
  00000001400050EF: 00 EC              add         ah,ch
  00000001400050F1: 02 00              add         al,byte ptr [rax]
  00000001400050F3: 00 00              add         byte ptr [rax],al
  00000001400050F5: 00 00              add         byte ptr [rax],al
  00000001400050F7: 00 EC              add         ah,ch
  00000001400050F9: 02 00              add         al,byte ptr [rax]
  00000001400050FB: 00 00              add         byte ptr [rax],al
  00000001400050FD: 00 00              add         byte ptr [rax],al
  00000001400050FF: 00 EC              add         ah,ch
  0000000140005101: 02 00              add         al,byte ptr [rax]
  0000000140005103: 00 00              add         byte ptr [rax],al
  0000000140005105: 00 00              add         byte ptr [rax],al
  0000000140005107: 00 EC              add         ah,ch
  0000000140005109: 02 00              add         al,byte ptr [rax]
  000000014000510B: 00 00              add         byte ptr [rax],al
  000000014000510D: 00 00              add         byte ptr [rax],al
  000000014000510F: 00 EC              add         ah,ch
  0000000140005111: 02 00              add         al,byte ptr [rax]
  0000000140005113: 00 00              add         byte ptr [rax],al
  0000000140005115: 00 00              add         byte ptr [rax],al
  0000000140005117: 00 EC              add         ah,ch
  0000000140005119: 02 00              add         al,byte ptr [rax]
  000000014000511B: 00 00              add         byte ptr [rax],al
  000000014000511D: 00 00              add         byte ptr [rax],al
  000000014000511F: 00 EC              add         ah,ch
  0000000140005121: 02 00              add         al,byte ptr [rax]
  0000000140005123: 00 00              add         byte ptr [rax],al
  0000000140005125: 00 00              add         byte ptr [rax],al
  0000000140005127: 00 EC              add         ah,ch
  0000000140005129: 02 00              add         al,byte ptr [rax]
  000000014000512B: 00 00              add         byte ptr [rax],al
  000000014000512D: 00 00              add         byte ptr [rax],al
  000000014000512F: 00 EC              add         ah,ch
  0000000140005131: 02 00              add         al,byte ptr [rax]
  0000000140005133: 00 00              add         byte ptr [rax],al
  0000000140005135: 00 00              add         byte ptr [rax],al
  0000000140005137: 00 EC              add         ah,ch
  0000000140005139: 02 00              add         al,byte ptr [rax]
  000000014000513B: 00 00              add         byte ptr [rax],al
  000000014000513D: 00 00              add         byte ptr [rax],al
  000000014000513F: 00 EC              add         ah,ch
  0000000140005141: 02 00              add         al,byte ptr [rax]
  0000000140005143: 00 00              add         byte ptr [rax],al
  0000000140005145: 00 00              add         byte ptr [rax],al
  0000000140005147: 00 EC              add         ah,ch
  0000000140005149: 02 00              add         al,byte ptr [rax]
  000000014000514B: 00 00              add         byte ptr [rax],al
  000000014000514D: 00 00              add         byte ptr [rax],al
  000000014000514F: 00 EC              add         ah,ch
  0000000140005151: 02 00              add         al,byte ptr [rax]
  0000000140005153: 00 00              add         byte ptr [rax],al
  0000000140005155: 00 00              add         byte ptr [rax],al
  0000000140005157: 00 EC              add         ah,ch
  0000000140005159: 02 00              add         al,byte ptr [rax]
  000000014000515B: 00 00              add         byte ptr [rax],al
  000000014000515D: 00 00              add         byte ptr [rax],al
  000000014000515F: 00 EC              add         ah,ch
  0000000140005161: 02 00              add         al,byte ptr [rax]
  0000000140005163: 00 00              add         byte ptr [rax],al
  0000000140005165: 00 00              add         byte ptr [rax],al
  0000000140005167: 00 EC              add         ah,ch
  0000000140005169: 02 00              add         al,byte ptr [rax]
  000000014000516B: 00 00              add         byte ptr [rax],al
  000000014000516D: 00 00              add         byte ptr [rax],al
  000000014000516F: 00 EC              add         ah,ch
  0000000140005171: 02 00              add         al,byte ptr [rax]
  0000000140005173: 00 00              add         byte ptr [rax],al
  0000000140005175: 00 00              add         byte ptr [rax],al
  0000000140005177: 00 EC              add         ah,ch
  0000000140005179: 02 00              add         al,byte ptr [rax]
  000000014000517B: 00 00              add         byte ptr [rax],al
  000000014000517D: 00 00              add         byte ptr [rax],al
  000000014000517F: 00 EC              add         ah,ch
  0000000140005181: 02 00              add         al,byte ptr [rax]
  0000000140005183: 00 00              add         byte ptr [rax],al
  0000000140005185: 00 00              add         byte ptr [rax],al
  0000000140005187: 00 EC              add         ah,ch
  0000000140005189: 02 00              add         al,byte ptr [rax]
  000000014000518B: 00 00              add         byte ptr [rax],al
  000000014000518D: 00 00              add         byte ptr [rax],al
  000000014000518F: 00 EC              add         ah,ch
  0000000140005191: 02 00              add         al,byte ptr [rax]
  0000000140005193: 00 00              add         byte ptr [rax],al
  0000000140005195: 00 00              add         byte ptr [rax],al
  0000000140005197: 00 EC              add         ah,ch
  0000000140005199: 02 00              add         al,byte ptr [rax]
  000000014000519B: 00 00              add         byte ptr [rax],al
  000000014000519D: 00 00              add         byte ptr [rax],al
  000000014000519F: 00 EC              add         ah,ch
  00000001400051A1: 02 00              add         al,byte ptr [rax]
  00000001400051A3: 00 00              add         byte ptr [rax],al
  00000001400051A5: 00 00              add         byte ptr [rax],al
  00000001400051A7: 00 EC              add         ah,ch
  00000001400051A9: 02 00              add         al,byte ptr [rax]
  00000001400051AB: 00 00              add         byte ptr [rax],al
  00000001400051AD: 00 00              add         byte ptr [rax],al
  00000001400051AF: 00 EC              add         ah,ch
  00000001400051B1: 02 00              add         al,byte ptr [rax]
  00000001400051B3: 00 00              add         byte ptr [rax],al
  00000001400051B5: 00 00              add         byte ptr [rax],al
  00000001400051B7: 00 EC              add         ah,ch
  00000001400051B9: 02 00              add         al,byte ptr [rax]
  00000001400051BB: 00 00              add         byte ptr [rax],al
  00000001400051BD: 00 00              add         byte ptr [rax],al
  00000001400051BF: 00 F3              add         bl,dh
  00000001400051C1: 02 00              add         al,byte ptr [rax]
  00000001400051C3: 00 00              add         byte ptr [rax],al
  00000001400051C5: 00 00              add         byte ptr [rax],al
  00000001400051C7: 00 F3              add         bl,dh
  00000001400051C9: 02 00              add         al,byte ptr [rax]
  00000001400051CB: 00 00              add         byte ptr [rax],al
  00000001400051CD: 00 00              add         byte ptr [rax],al
  00000001400051CF: 00 F3              add         bl,dh
  00000001400051D1: 02 00              add         al,byte ptr [rax]
  00000001400051D3: 00 00              add         byte ptr [rax],al
  00000001400051D5: 00 00              add         byte ptr [rax],al
  00000001400051D7: 00 F3              add         bl,dh
  00000001400051D9: 02 00              add         al,byte ptr [rax]
  00000001400051DB: 00 00              add         byte ptr [rax],al
  00000001400051DD: 00 00              add         byte ptr [rax],al
  00000001400051DF: 00 F3              add         bl,dh
  00000001400051E1: 02 00              add         al,byte ptr [rax]
  00000001400051E3: 00 00              add         byte ptr [rax],al
  00000001400051E5: 00 00              add         byte ptr [rax],al
  00000001400051E7: 00 F3              add         bl,dh
  00000001400051E9: 02 00              add         al,byte ptr [rax]
  00000001400051EB: 00 00              add         byte ptr [rax],al
  00000001400051ED: 00 00              add         byte ptr [rax],al
  00000001400051EF: 00 F3              add         bl,dh
  00000001400051F1: 02 00              add         al,byte ptr [rax]
  00000001400051F3: 00 00              add         byte ptr [rax],al
  00000001400051F5: 00 00              add         byte ptr [rax],al
  00000001400051F7: 00 F3              add         bl,dh
  00000001400051F9: 02 00              add         al,byte ptr [rax]
  00000001400051FB: 00 00              add         byte ptr [rax],al
  00000001400051FD: 00 00              add         byte ptr [rax],al
  00000001400051FF: 00 F3              add         bl,dh
  0000000140005201: 02 00              add         al,byte ptr [rax]
  0000000140005203: 00 00              add         byte ptr [rax],al
  0000000140005205: 00 00              add         byte ptr [rax],al
  0000000140005207: 00 F3              add         bl,dh
  0000000140005209: 02 00              add         al,byte ptr [rax]
  000000014000520B: 00 00              add         byte ptr [rax],al
  000000014000520D: 00 00              add         byte ptr [rax],al
  000000014000520F: 00 F3              add         bl,dh
  0000000140005211: 02 00              add         al,byte ptr [rax]
  0000000140005213: 00 00              add         byte ptr [rax],al
  0000000140005215: 00 00              add         byte ptr [rax],al
  0000000140005217: 00 F3              add         bl,dh
  0000000140005219: 02 00              add         al,byte ptr [rax]
  000000014000521B: 00 00              add         byte ptr [rax],al
  000000014000521D: 00 00              add         byte ptr [rax],al
  000000014000521F: 00 F3              add         bl,dh
  0000000140005221: 02 00              add         al,byte ptr [rax]
  0000000140005223: 00 00              add         byte ptr [rax],al
  0000000140005225: 00 00              add         byte ptr [rax],al
  0000000140005227: 00 F3              add         bl,dh
  0000000140005229: 02 00              add         al,byte ptr [rax]
  000000014000522B: 00 00              add         byte ptr [rax],al
  000000014000522D: 00 00              add         byte ptr [rax],al
  000000014000522F: 00 F3              add         bl,dh
  0000000140005231: 02 00              add         al,byte ptr [rax]
  0000000140005233: 00 00              add         byte ptr [rax],al
  0000000140005235: 00 00              add         byte ptr [rax],al
  0000000140005237: 00 F3              add         bl,dh
  0000000140005239: 02 00              add         al,byte ptr [rax]
  000000014000523B: 00 00              add         byte ptr [rax],al
  000000014000523D: 00 00              add         byte ptr [rax],al
  000000014000523F: 00 F3              add         bl,dh
  0000000140005241: 02 00              add         al,byte ptr [rax]
  0000000140005243: 00 00              add         byte ptr [rax],al
  0000000140005245: 00 00              add         byte ptr [rax],al
  0000000140005247: 00 F3              add         bl,dh
  0000000140005249: 02 00              add         al,byte ptr [rax]
  000000014000524B: 00 00              add         byte ptr [rax],al
  000000014000524D: 00 00              add         byte ptr [rax],al
  000000014000524F: 00 F3              add         bl,dh
  0000000140005251: 02 00              add         al,byte ptr [rax]
  0000000140005253: 00 00              add         byte ptr [rax],al
  0000000140005255: 00 00              add         byte ptr [rax],al
  0000000140005257: 00 F3              add         bl,dh
  0000000140005259: 02 00              add         al,byte ptr [rax]
  000000014000525B: 00 00              add         byte ptr [rax],al
  000000014000525D: 00 00              add         byte ptr [rax],al
  000000014000525F: 00 F3              add         bl,dh
  0000000140005261: 02 00              add         al,byte ptr [rax]
  0000000140005263: 00 00              add         byte ptr [rax],al
  0000000140005265: 00 00              add         byte ptr [rax],al
  0000000140005267: 00 F3              add         bl,dh
  0000000140005269: 02 00              add         al,byte ptr [rax]
  000000014000526B: 00 00              add         byte ptr [rax],al
  000000014000526D: 00 00              add         byte ptr [rax],al
  000000014000526F: 00 F3              add         bl,dh
  0000000140005271: 02 00              add         al,byte ptr [rax]
  0000000140005273: 00 00              add         byte ptr [rax],al
  0000000140005275: 00 00              add         byte ptr [rax],al
  0000000140005277: 00 F3              add         bl,dh
  0000000140005279: 02 00              add         al,byte ptr [rax]
  000000014000527B: 00 00              add         byte ptr [rax],al
  000000014000527D: 00 00              add         byte ptr [rax],al
  000000014000527F: 00 F3              add         bl,dh
  0000000140005281: 02 00              add         al,byte ptr [rax]
  0000000140005283: 00 00              add         byte ptr [rax],al
  0000000140005285: 00 00              add         byte ptr [rax],al
  0000000140005287: 00 F3              add         bl,dh
  0000000140005289: 02 00              add         al,byte ptr [rax]
  000000014000528B: 00 00              add         byte ptr [rax],al
  000000014000528D: 00 00              add         byte ptr [rax],al
  000000014000528F: 00 F3              add         bl,dh
  0000000140005291: 02 00              add         al,byte ptr [rax]
  0000000140005293: 00 00              add         byte ptr [rax],al
  0000000140005295: 00 00              add         byte ptr [rax],al
  0000000140005297: 00 F3              add         bl,dh
  0000000140005299: 02 00              add         al,byte ptr [rax]
  000000014000529B: 00 00              add         byte ptr [rax],al
  000000014000529D: 00 00              add         byte ptr [rax],al
  000000014000529F: 00 F3              add         bl,dh
  00000001400052A1: 02 00              add         al,byte ptr [rax]
  00000001400052A3: 00 00              add         byte ptr [rax],al
  00000001400052A5: 00 00              add         byte ptr [rax],al
  00000001400052A7: 00 F3              add         bl,dh
  00000001400052A9: 02 00              add         al,byte ptr [rax]
  00000001400052AB: 00 00              add         byte ptr [rax],al
  00000001400052AD: 00 00              add         byte ptr [rax],al
  00000001400052AF: 00 F3              add         bl,dh
  00000001400052B1: 02 00              add         al,byte ptr [rax]
  00000001400052B3: 00 00              add         byte ptr [rax],al
  00000001400052B5: 00 00              add         byte ptr [rax],al
  00000001400052B7: 00 F3              add         bl,dh
  00000001400052B9: 02 00              add         al,byte ptr [rax]
  00000001400052BB: 00 00              add         byte ptr [rax],al
  00000001400052BD: 00 00              add         byte ptr [rax],al
  00000001400052BF: 00 F3              add         bl,dh
  00000001400052C1: 02 00              add         al,byte ptr [rax]
  00000001400052C3: 00 00              add         byte ptr [rax],al
  00000001400052C5: 00 00              add         byte ptr [rax],al
  00000001400052C7: 00 F3              add         bl,dh
  00000001400052C9: 02 00              add         al,byte ptr [rax]
  00000001400052CB: 00 00              add         byte ptr [rax],al
  00000001400052CD: 00 00              add         byte ptr [rax],al
  00000001400052CF: 00 F3              add         bl,dh
  00000001400052D1: 02 00              add         al,byte ptr [rax]
  00000001400052D3: 00 00              add         byte ptr [rax],al
  00000001400052D5: 00 00              add         byte ptr [rax],al
  00000001400052D7: 00 F3              add         bl,dh
  00000001400052D9: 02 00              add         al,byte ptr [rax]
  00000001400052DB: 00 00              add         byte ptr [rax],al
  00000001400052DD: 00 00              add         byte ptr [rax],al
  00000001400052DF: 00 F3              add         bl,dh
  00000001400052E1: 02 00              add         al,byte ptr [rax]
  00000001400052E3: 00 00              add         byte ptr [rax],al
  00000001400052E5: 00 00              add         byte ptr [rax],al
  00000001400052E7: 00 F3              add         bl,dh
  00000001400052E9: 02 00              add         al,byte ptr [rax]
  00000001400052EB: 00 00              add         byte ptr [rax],al
  00000001400052ED: 00 00              add         byte ptr [rax],al
  00000001400052EF: 00 F3              add         bl,dh
  00000001400052F1: 02 00              add         al,byte ptr [rax]
  00000001400052F3: 00 00              add         byte ptr [rax],al
  00000001400052F5: 00 00              add         byte ptr [rax],al
  00000001400052F7: 00 F3              add         bl,dh
  00000001400052F9: 02 00              add         al,byte ptr [rax]
  00000001400052FB: 00 00              add         byte ptr [rax],al
  00000001400052FD: 00 00              add         byte ptr [rax],al
  00000001400052FF: 00 F3              add         bl,dh
  0000000140005301: 02 00              add         al,byte ptr [rax]
  0000000140005303: 00 00              add         byte ptr [rax],al
  0000000140005305: 00 00              add         byte ptr [rax],al
  0000000140005307: 00 F3              add         bl,dh
  0000000140005309: 02 00              add         al,byte ptr [rax]
  000000014000530B: 00 00              add         byte ptr [rax],al
  000000014000530D: 00 00              add         byte ptr [rax],al
  000000014000530F: 00 F3              add         bl,dh
  0000000140005311: 02 00              add         al,byte ptr [rax]
  0000000140005313: 00 00              add         byte ptr [rax],al
  0000000140005315: 00 00              add         byte ptr [rax],al
  0000000140005317: 00 F3              add         bl,dh
  0000000140005319: 02 00              add         al,byte ptr [rax]
  000000014000531B: 00 00              add         byte ptr [rax],al
  000000014000531D: 00 00              add         byte ptr [rax],al
  000000014000531F: 00 F3              add         bl,dh
  0000000140005321: 02 00              add         al,byte ptr [rax]
  0000000140005323: 00 00              add         byte ptr [rax],al
  0000000140005325: 00 00              add         byte ptr [rax],al
  0000000140005327: 00 F3              add         bl,dh
  0000000140005329: 02 00              add         al,byte ptr [rax]
  000000014000532B: 00 00              add         byte ptr [rax],al
  000000014000532D: 00 00              add         byte ptr [rax],al
  000000014000532F: 00 F3              add         bl,dh
  0000000140005331: 02 00              add         al,byte ptr [rax]
  0000000140005333: 00 00              add         byte ptr [rax],al
  0000000140005335: 00 00              add         byte ptr [rax],al
  0000000140005337: 00 F3              add         bl,dh
  0000000140005339: 02 00              add         al,byte ptr [rax]
  000000014000533B: 00 00              add         byte ptr [rax],al
  000000014000533D: 00 00              add         byte ptr [rax],al
  000000014000533F: 00 F3              add         bl,dh
  0000000140005341: 02 00              add         al,byte ptr [rax]
  0000000140005343: 00 00              add         byte ptr [rax],al
  0000000140005345: 00 00              add         byte ptr [rax],al
  0000000140005347: 00 F3              add         bl,dh
  0000000140005349: 02 00              add         al,byte ptr [rax]
  000000014000534B: 00 00              add         byte ptr [rax],al
  000000014000534D: 00 00              add         byte ptr [rax],al
  000000014000534F: 00 F3              add         bl,dh
  0000000140005351: 02 00              add         al,byte ptr [rax]
  0000000140005353: 00 00              add         byte ptr [rax],al
  0000000140005355: 00 00              add         byte ptr [rax],al
  0000000140005357: 00 F3              add         bl,dh
  0000000140005359: 02 00              add         al,byte ptr [rax]
  000000014000535B: 00 00              add         byte ptr [rax],al
  000000014000535D: 00 00              add         byte ptr [rax],al
  000000014000535F: 00 F3              add         bl,dh
  0000000140005361: 02 00              add         al,byte ptr [rax]
  0000000140005363: 00 00              add         byte ptr [rax],al
  0000000140005365: 00 00              add         byte ptr [rax],al
  0000000140005367: 00 F3              add         bl,dh
  0000000140005369: 02 00              add         al,byte ptr [rax]
  000000014000536B: 00 00              add         byte ptr [rax],al
  000000014000536D: 00 00              add         byte ptr [rax],al
  000000014000536F: 00 F3              add         bl,dh
  0000000140005371: 02 00              add         al,byte ptr [rax]
  0000000140005373: 00 00              add         byte ptr [rax],al
  0000000140005375: 00 00              add         byte ptr [rax],al
  0000000140005377: 00 F3              add         bl,dh
  0000000140005379: 02 00              add         al,byte ptr [rax]
  000000014000537B: 00 00              add         byte ptr [rax],al
  000000014000537D: 00 00              add         byte ptr [rax],al
  000000014000537F: 00 F3              add         bl,dh
  0000000140005381: 02 00              add         al,byte ptr [rax]
  0000000140005383: 00 00              add         byte ptr [rax],al
  0000000140005385: 00 00              add         byte ptr [rax],al
  0000000140005387: 00 F3              add         bl,dh
  0000000140005389: 02 00              add         al,byte ptr [rax]
  000000014000538B: 00 00              add         byte ptr [rax],al
  000000014000538D: 00 00              add         byte ptr [rax],al
  000000014000538F: 00 F3              add         bl,dh
  0000000140005391: 02 00              add         al,byte ptr [rax]
  0000000140005393: 00 00              add         byte ptr [rax],al
  0000000140005395: 00 00              add         byte ptr [rax],al
  0000000140005397: 00 F3              add         bl,dh
  0000000140005399: 02 00              add         al,byte ptr [rax]
  000000014000539B: 00 00              add         byte ptr [rax],al
  000000014000539D: 00 00              add         byte ptr [rax],al
  000000014000539F: 00 F3              add         bl,dh
  00000001400053A1: 02 00              add         al,byte ptr [rax]
  00000001400053A3: 00 00              add         byte ptr [rax],al
  00000001400053A5: 00 00              add         byte ptr [rax],al
  00000001400053A7: 00 F3              add         bl,dh
  00000001400053A9: 02 00              add         al,byte ptr [rax]
  00000001400053AB: 00 00              add         byte ptr [rax],al
  00000001400053AD: 00 00              add         byte ptr [rax],al
  00000001400053AF: 00 F3              add         bl,dh
  00000001400053B1: 02 00              add         al,byte ptr [rax]
  00000001400053B3: 00 00              add         byte ptr [rax],al
  00000001400053B5: 00 00              add         byte ptr [rax],al
  00000001400053B7: 00 F3              add         bl,dh
  00000001400053B9: 02 00              add         al,byte ptr [rax]
  00000001400053BB: 00 00              add         byte ptr [rax],al
  00000001400053BD: 00 00              add         byte ptr [rax],al
  00000001400053BF: 00 FA              add         dl,bh
  00000001400053C1: 02 00              add         al,byte ptr [rax]
  00000001400053C3: 00 00              add         byte ptr [rax],al
  00000001400053C5: 00 00              add         byte ptr [rax],al
  00000001400053C7: 00 FA              add         dl,bh
  00000001400053C9: 02 00              add         al,byte ptr [rax]
  00000001400053CB: 00 00              add         byte ptr [rax],al
  00000001400053CD: 00 00              add         byte ptr [rax],al
  00000001400053CF: 00 FA              add         dl,bh
  00000001400053D1: 02 00              add         al,byte ptr [rax]
  00000001400053D3: 00 00              add         byte ptr [rax],al
  00000001400053D5: 00 00              add         byte ptr [rax],al
  00000001400053D7: 00 FA              add         dl,bh
  00000001400053D9: 02 00              add         al,byte ptr [rax]
  00000001400053DB: 00 00              add         byte ptr [rax],al
  00000001400053DD: 00 00              add         byte ptr [rax],al
  00000001400053DF: 00 FA              add         dl,bh
  00000001400053E1: 02 00              add         al,byte ptr [rax]
  00000001400053E3: 00 00              add         byte ptr [rax],al
  00000001400053E5: 00 00              add         byte ptr [rax],al
  00000001400053E7: 00 FA              add         dl,bh
  00000001400053E9: 02 00              add         al,byte ptr [rax]
  00000001400053EB: 00 00              add         byte ptr [rax],al
  00000001400053ED: 00 00              add         byte ptr [rax],al
  00000001400053EF: 00 FA              add         dl,bh
  00000001400053F1: 02 00              add         al,byte ptr [rax]
  00000001400053F3: 00 00              add         byte ptr [rax],al
  00000001400053F5: 00 00              add         byte ptr [rax],al
  00000001400053F7: 00 FA              add         dl,bh
  00000001400053F9: 02 00              add         al,byte ptr [rax]
  00000001400053FB: 00 00              add         byte ptr [rax],al
  00000001400053FD: 00 00              add         byte ptr [rax],al
  00000001400053FF: 00 FA              add         dl,bh
  0000000140005401: 02 00              add         al,byte ptr [rax]
  0000000140005403: 00 00              add         byte ptr [rax],al
  0000000140005405: 00 00              add         byte ptr [rax],al
  0000000140005407: 00 FA              add         dl,bh
  0000000140005409: 02 00              add         al,byte ptr [rax]
  000000014000540B: 00 00              add         byte ptr [rax],al
  000000014000540D: 00 00              add         byte ptr [rax],al
  000000014000540F: 00 FA              add         dl,bh
  0000000140005411: 02 00              add         al,byte ptr [rax]
  0000000140005413: 00 00              add         byte ptr [rax],al
  0000000140005415: 00 00              add         byte ptr [rax],al
  0000000140005417: 00 FA              add         dl,bh
  0000000140005419: 02 00              add         al,byte ptr [rax]
  000000014000541B: 00 00              add         byte ptr [rax],al
  000000014000541D: 00 00              add         byte ptr [rax],al
  000000014000541F: 00 FA              add         dl,bh
  0000000140005421: 02 00              add         al,byte ptr [rax]
  0000000140005423: 00 00              add         byte ptr [rax],al
  0000000140005425: 00 00              add         byte ptr [rax],al
  0000000140005427: 00 FA              add         dl,bh
  0000000140005429: 02 00              add         al,byte ptr [rax]
  000000014000542B: 00 00              add         byte ptr [rax],al
  000000014000542D: 00 00              add         byte ptr [rax],al
  000000014000542F: 00 FA              add         dl,bh
  0000000140005431: 02 00              add         al,byte ptr [rax]
  0000000140005433: 00 00              add         byte ptr [rax],al
  0000000140005435: 00 00              add         byte ptr [rax],al
  0000000140005437: 00 FA              add         dl,bh
  0000000140005439: 02 00              add         al,byte ptr [rax]
  000000014000543B: 00 00              add         byte ptr [rax],al
  000000014000543D: 00 00              add         byte ptr [rax],al
  000000014000543F: 00 FA              add         dl,bh
  0000000140005441: 02 00              add         al,byte ptr [rax]
  0000000140005443: 00 00              add         byte ptr [rax],al
  0000000140005445: 00 00              add         byte ptr [rax],al
  0000000140005447: 00 FA              add         dl,bh
  0000000140005449: 02 00              add         al,byte ptr [rax]
  000000014000544B: 00 00              add         byte ptr [rax],al
  000000014000544D: 00 00              add         byte ptr [rax],al
  000000014000544F: 00 FA              add         dl,bh
  0000000140005451: 02 00              add         al,byte ptr [rax]
  0000000140005453: 00 00              add         byte ptr [rax],al
  0000000140005455: 00 00              add         byte ptr [rax],al
  0000000140005457: 00 FA              add         dl,bh
  0000000140005459: 02 00              add         al,byte ptr [rax]
  000000014000545B: 00 00              add         byte ptr [rax],al
  000000014000545D: 00 00              add         byte ptr [rax],al
  000000014000545F: 00 FA              add         dl,bh
  0000000140005461: 02 00              add         al,byte ptr [rax]
  0000000140005463: 00 00              add         byte ptr [rax],al
  0000000140005465: 00 00              add         byte ptr [rax],al
  0000000140005467: 00 FA              add         dl,bh
  0000000140005469: 02 00              add         al,byte ptr [rax]
  000000014000546B: 00 00              add         byte ptr [rax],al
  000000014000546D: 00 00              add         byte ptr [rax],al
  000000014000546F: 00 FA              add         dl,bh
  0000000140005471: 02 00              add         al,byte ptr [rax]
  0000000140005473: 00 00              add         byte ptr [rax],al
  0000000140005475: 00 00              add         byte ptr [rax],al
  0000000140005477: 00 FA              add         dl,bh
  0000000140005479: 02 00              add         al,byte ptr [rax]
  000000014000547B: 00 00              add         byte ptr [rax],al
  000000014000547D: 00 00              add         byte ptr [rax],al
  000000014000547F: 00 FA              add         dl,bh
  0000000140005481: 02 00              add         al,byte ptr [rax]
  0000000140005483: 00 00              add         byte ptr [rax],al
  0000000140005485: 00 00              add         byte ptr [rax],al
  0000000140005487: 00 FA              add         dl,bh
  0000000140005489: 02 00              add         al,byte ptr [rax]
  000000014000548B: 00 00              add         byte ptr [rax],al
  000000014000548D: 00 00              add         byte ptr [rax],al
  000000014000548F: 00 FA              add         dl,bh
  0000000140005491: 02 00              add         al,byte ptr [rax]
  0000000140005493: 00 00              add         byte ptr [rax],al
  0000000140005495: 00 00              add         byte ptr [rax],al
  0000000140005497: 00 FA              add         dl,bh
  0000000140005499: 02 00              add         al,byte ptr [rax]
  000000014000549B: 00 00              add         byte ptr [rax],al
  000000014000549D: 00 00              add         byte ptr [rax],al
  000000014000549F: 00 FA              add         dl,bh
  00000001400054A1: 02 00              add         al,byte ptr [rax]
  00000001400054A3: 00 00              add         byte ptr [rax],al
  00000001400054A5: 00 00              add         byte ptr [rax],al
  00000001400054A7: 00 FA              add         dl,bh
  00000001400054A9: 02 00              add         al,byte ptr [rax]
  00000001400054AB: 00 00              add         byte ptr [rax],al
  00000001400054AD: 00 00              add         byte ptr [rax],al
  00000001400054AF: 00 FA              add         dl,bh
  00000001400054B1: 02 00              add         al,byte ptr [rax]
  00000001400054B3: 00 00              add         byte ptr [rax],al
  00000001400054B5: 00 00              add         byte ptr [rax],al
  00000001400054B7: 00 FA              add         dl,bh
  00000001400054B9: 02 00              add         al,byte ptr [rax]
  00000001400054BB: 00 00              add         byte ptr [rax],al
  00000001400054BD: 00 00              add         byte ptr [rax],al
  00000001400054BF: 00 FA              add         dl,bh
  00000001400054C1: 02 00              add         al,byte ptr [rax]
  00000001400054C3: 00 00              add         byte ptr [rax],al
  00000001400054C5: 00 00              add         byte ptr [rax],al
  00000001400054C7: 00 FA              add         dl,bh
  00000001400054C9: 02 00              add         al,byte ptr [rax]
  00000001400054CB: 00 00              add         byte ptr [rax],al
  00000001400054CD: 00 00              add         byte ptr [rax],al
  00000001400054CF: 00 FA              add         dl,bh
  00000001400054D1: 02 00              add         al,byte ptr [rax]
  00000001400054D3: 00 00              add         byte ptr [rax],al
  00000001400054D5: 00 00              add         byte ptr [rax],al
  00000001400054D7: 00 FA              add         dl,bh
  00000001400054D9: 02 00              add         al,byte ptr [rax]
  00000001400054DB: 00 00              add         byte ptr [rax],al
  00000001400054DD: 00 00              add         byte ptr [rax],al
  00000001400054DF: 00 FA              add         dl,bh
  00000001400054E1: 02 00              add         al,byte ptr [rax]
  00000001400054E3: 00 00              add         byte ptr [rax],al
  00000001400054E5: 00 00              add         byte ptr [rax],al
  00000001400054E7: 00 FA              add         dl,bh
  00000001400054E9: 02 00              add         al,byte ptr [rax]
  00000001400054EB: 00 00              add         byte ptr [rax],al
  00000001400054ED: 00 00              add         byte ptr [rax],al
  00000001400054EF: 00 FA              add         dl,bh
  00000001400054F1: 02 00              add         al,byte ptr [rax]
  00000001400054F3: 00 00              add         byte ptr [rax],al
  00000001400054F5: 00 00              add         byte ptr [rax],al
  00000001400054F7: 00 FA              add         dl,bh
  00000001400054F9: 02 00              add         al,byte ptr [rax]
  00000001400054FB: 00 00              add         byte ptr [rax],al
  00000001400054FD: 00 00              add         byte ptr [rax],al
  00000001400054FF: 00 FA              add         dl,bh
  0000000140005501: 02 00              add         al,byte ptr [rax]
  0000000140005503: 00 00              add         byte ptr [rax],al
  0000000140005505: 00 00              add         byte ptr [rax],al
  0000000140005507: 00 FA              add         dl,bh
  0000000140005509: 02 00              add         al,byte ptr [rax]
  000000014000550B: 00 00              add         byte ptr [rax],al
  000000014000550D: 00 00              add         byte ptr [rax],al
  000000014000550F: 00 FA              add         dl,bh
  0000000140005511: 02 00              add         al,byte ptr [rax]
  0000000140005513: 00 00              add         byte ptr [rax],al
  0000000140005515: 00 00              add         byte ptr [rax],al
  0000000140005517: 00 FA              add         dl,bh
  0000000140005519: 02 00              add         al,byte ptr [rax]
  000000014000551B: 00 00              add         byte ptr [rax],al
  000000014000551D: 00 00              add         byte ptr [rax],al
  000000014000551F: 00 FA              add         dl,bh
  0000000140005521: 02 00              add         al,byte ptr [rax]
  0000000140005523: 00 00              add         byte ptr [rax],al
  0000000140005525: 00 00              add         byte ptr [rax],al
  0000000140005527: 00 FA              add         dl,bh
  0000000140005529: 02 00              add         al,byte ptr [rax]
  000000014000552B: 00 00              add         byte ptr [rax],al
  000000014000552D: 00 00              add         byte ptr [rax],al
  000000014000552F: 00 FA              add         dl,bh
  0000000140005531: 02 00              add         al,byte ptr [rax]
  0000000140005533: 00 00              add         byte ptr [rax],al
  0000000140005535: 00 00              add         byte ptr [rax],al
  0000000140005537: 00 FA              add         dl,bh
  0000000140005539: 02 00              add         al,byte ptr [rax]
  000000014000553B: 00 00              add         byte ptr [rax],al
  000000014000553D: 00 00              add         byte ptr [rax],al
  000000014000553F: 00 FA              add         dl,bh
  0000000140005541: 02 00              add         al,byte ptr [rax]
  0000000140005543: 00 00              add         byte ptr [rax],al
  0000000140005545: 00 00              add         byte ptr [rax],al
  0000000140005547: 00 FA              add         dl,bh
  0000000140005549: 02 00              add         al,byte ptr [rax]
  000000014000554B: 00 00              add         byte ptr [rax],al
  000000014000554D: 00 00              add         byte ptr [rax],al
  000000014000554F: 00 FA              add         dl,bh
  0000000140005551: 02 00              add         al,byte ptr [rax]
  0000000140005553: 00 00              add         byte ptr [rax],al
  0000000140005555: 00 00              add         byte ptr [rax],al
  0000000140005557: 00 FA              add         dl,bh
  0000000140005559: 02 00              add         al,byte ptr [rax]
  000000014000555B: 00 00              add         byte ptr [rax],al
  000000014000555D: 00 00              add         byte ptr [rax],al
  000000014000555F: 00 FA              add         dl,bh
  0000000140005561: 02 00              add         al,byte ptr [rax]
  0000000140005563: 00 00              add         byte ptr [rax],al
  0000000140005565: 00 00              add         byte ptr [rax],al
  0000000140005567: 00 FA              add         dl,bh
  0000000140005569: 02 00              add         al,byte ptr [rax]
  000000014000556B: 00 00              add         byte ptr [rax],al
  000000014000556D: 00 00              add         byte ptr [rax],al
  000000014000556F: 00 FA              add         dl,bh
  0000000140005571: 02 00              add         al,byte ptr [rax]
  0000000140005573: 00 00              add         byte ptr [rax],al
  0000000140005575: 00 00              add         byte ptr [rax],al
  0000000140005577: 00 FA              add         dl,bh
  0000000140005579: 02 00              add         al,byte ptr [rax]
  000000014000557B: 00 00              add         byte ptr [rax],al
  000000014000557D: 00 00              add         byte ptr [rax],al
  000000014000557F: 00 FA              add         dl,bh
  0000000140005581: 02 00              add         al,byte ptr [rax]
  0000000140005583: 00 00              add         byte ptr [rax],al
  0000000140005585: 00 00              add         byte ptr [rax],al
  0000000140005587: 00 FA              add         dl,bh
  0000000140005589: 02 00              add         al,byte ptr [rax]
  000000014000558B: 00 00              add         byte ptr [rax],al
  000000014000558D: 00 00              add         byte ptr [rax],al
  000000014000558F: 00 FA              add         dl,bh
  0000000140005591: 02 00              add         al,byte ptr [rax]
  0000000140005593: 00 00              add         byte ptr [rax],al
  0000000140005595: 00 00              add         byte ptr [rax],al
  0000000140005597: 00 FA              add         dl,bh
  0000000140005599: 02 00              add         al,byte ptr [rax]
  000000014000559B: 00 00              add         byte ptr [rax],al
  000000014000559D: 00 00              add         byte ptr [rax],al
  000000014000559F: 00 FA              add         dl,bh
  00000001400055A1: 02 00              add         al,byte ptr [rax]
  00000001400055A3: 00 00              add         byte ptr [rax],al
  00000001400055A5: 00 00              add         byte ptr [rax],al
  00000001400055A7: 00 FA              add         dl,bh
  00000001400055A9: 02 00              add         al,byte ptr [rax]
  00000001400055AB: 00 00              add         byte ptr [rax],al
  00000001400055AD: 00 00              add         byte ptr [rax],al
  00000001400055AF: 00 FA              add         dl,bh
  00000001400055B1: 02 00              add         al,byte ptr [rax]
  00000001400055B3: 00 00              add         byte ptr [rax],al
  00000001400055B5: 00 00              add         byte ptr [rax],al
  00000001400055B7: 00 FA              add         dl,bh
  00000001400055B9: 02 00              add         al,byte ptr [rax]
  00000001400055BB: 00 00              add         byte ptr [rax],al
  00000001400055BD: 00 00              add         byte ptr [rax],al
  00000001400055BF: 00 01              add         byte ptr [rcx],al
  00000001400055C1: 03 00              add         eax,dword ptr [rax]
  00000001400055C3: 00 00              add         byte ptr [rax],al
  00000001400055C5: 00 00              add         byte ptr [rax],al
  00000001400055C7: 00 01              add         byte ptr [rcx],al
  00000001400055C9: 03 00              add         eax,dword ptr [rax]
  00000001400055CB: 00 00              add         byte ptr [rax],al
  00000001400055CD: 00 00              add         byte ptr [rax],al
  00000001400055CF: 00 01              add         byte ptr [rcx],al
  00000001400055D1: 03 00              add         eax,dword ptr [rax]
  00000001400055D3: 00 00              add         byte ptr [rax],al
  00000001400055D5: 00 00              add         byte ptr [rax],al
  00000001400055D7: 00 01              add         byte ptr [rcx],al
  00000001400055D9: 03 00              add         eax,dword ptr [rax]
  00000001400055DB: 00 00              add         byte ptr [rax],al
  00000001400055DD: 00 00              add         byte ptr [rax],al
  00000001400055DF: 00 01              add         byte ptr [rcx],al
  00000001400055E1: 03 00              add         eax,dword ptr [rax]
  00000001400055E3: 00 00              add         byte ptr [rax],al
  00000001400055E5: 00 00              add         byte ptr [rax],al
  00000001400055E7: 00 01              add         byte ptr [rcx],al
  00000001400055E9: 03 00              add         eax,dword ptr [rax]
  00000001400055EB: 00 00              add         byte ptr [rax],al
  00000001400055ED: 00 00              add         byte ptr [rax],al
  00000001400055EF: 00 01              add         byte ptr [rcx],al
  00000001400055F1: 03 00              add         eax,dword ptr [rax]
  00000001400055F3: 00 00              add         byte ptr [rax],al
  00000001400055F5: 00 00              add         byte ptr [rax],al
  00000001400055F7: 00 01              add         byte ptr [rcx],al
  00000001400055F9: 03 00              add         eax,dword ptr [rax]
  00000001400055FB: 00 00              add         byte ptr [rax],al
  00000001400055FD: 00 00              add         byte ptr [rax],al
  00000001400055FF: 00 01              add         byte ptr [rcx],al
  0000000140005601: 03 00              add         eax,dword ptr [rax]
  0000000140005603: 00 00              add         byte ptr [rax],al
  0000000140005605: 00 00              add         byte ptr [rax],al
  0000000140005607: 00 01              add         byte ptr [rcx],al
  0000000140005609: 03 00              add         eax,dword ptr [rax]
  000000014000560B: 00 00              add         byte ptr [rax],al
  000000014000560D: 00 00              add         byte ptr [rax],al
  000000014000560F: 00 01              add         byte ptr [rcx],al
  0000000140005611: 03 00              add         eax,dword ptr [rax]
  0000000140005613: 00 00              add         byte ptr [rax],al
  0000000140005615: 00 00              add         byte ptr [rax],al
  0000000140005617: 00 01              add         byte ptr [rcx],al
  0000000140005619: 03 00              add         eax,dword ptr [rax]
  000000014000561B: 00 00              add         byte ptr [rax],al
  000000014000561D: 00 00              add         byte ptr [rax],al
  000000014000561F: 00 01              add         byte ptr [rcx],al
  0000000140005621: 03 00              add         eax,dword ptr [rax]
  0000000140005623: 00 00              add         byte ptr [rax],al
  0000000140005625: 00 00              add         byte ptr [rax],al
  0000000140005627: 00 01              add         byte ptr [rcx],al
  0000000140005629: 03 00              add         eax,dword ptr [rax]
  000000014000562B: 00 00              add         byte ptr [rax],al
  000000014000562D: 00 00              add         byte ptr [rax],al
  000000014000562F: 00 01              add         byte ptr [rcx],al
  0000000140005631: 03 00              add         eax,dword ptr [rax]
  0000000140005633: 00 00              add         byte ptr [rax],al
  0000000140005635: 00 00              add         byte ptr [rax],al
  0000000140005637: 00 01              add         byte ptr [rcx],al
  0000000140005639: 03 00              add         eax,dword ptr [rax]
  000000014000563B: 00 00              add         byte ptr [rax],al
  000000014000563D: 00 00              add         byte ptr [rax],al
  000000014000563F: 00 01              add         byte ptr [rcx],al
  0000000140005641: 03 00              add         eax,dword ptr [rax]
  0000000140005643: 00 00              add         byte ptr [rax],al
  0000000140005645: 00 00              add         byte ptr [rax],al
  0000000140005647: 00 01              add         byte ptr [rcx],al
  0000000140005649: 03 00              add         eax,dword ptr [rax]
  000000014000564B: 00 00              add         byte ptr [rax],al
  000000014000564D: 00 00              add         byte ptr [rax],al
  000000014000564F: 00 01              add         byte ptr [rcx],al
  0000000140005651: 03 00              add         eax,dword ptr [rax]
  0000000140005653: 00 00              add         byte ptr [rax],al
  0000000140005655: 00 00              add         byte ptr [rax],al
  0000000140005657: 00 01              add         byte ptr [rcx],al
  0000000140005659: 03 00              add         eax,dword ptr [rax]
  000000014000565B: 00 00              add         byte ptr [rax],al
  000000014000565D: 00 00              add         byte ptr [rax],al
  000000014000565F: 00 01              add         byte ptr [rcx],al
  0000000140005661: 03 00              add         eax,dword ptr [rax]
  0000000140005663: 00 00              add         byte ptr [rax],al
  0000000140005665: 00 00              add         byte ptr [rax],al
  0000000140005667: 00 01              add         byte ptr [rcx],al
  0000000140005669: 03 00              add         eax,dword ptr [rax]
  000000014000566B: 00 00              add         byte ptr [rax],al
  000000014000566D: 00 00              add         byte ptr [rax],al
  000000014000566F: 00 01              add         byte ptr [rcx],al
  0000000140005671: 03 00              add         eax,dword ptr [rax]
  0000000140005673: 00 00              add         byte ptr [rax],al
  0000000140005675: 00 00              add         byte ptr [rax],al
  0000000140005677: 00 01              add         byte ptr [rcx],al
  0000000140005679: 03 00              add         eax,dword ptr [rax]
  000000014000567B: 00 00              add         byte ptr [rax],al
  000000014000567D: 00 00              add         byte ptr [rax],al
  000000014000567F: 00 01              add         byte ptr [rcx],al
  0000000140005681: 03 00              add         eax,dword ptr [rax]
  0000000140005683: 00 00              add         byte ptr [rax],al
  0000000140005685: 00 00              add         byte ptr [rax],al
  0000000140005687: 00 01              add         byte ptr [rcx],al
  0000000140005689: 03 00              add         eax,dword ptr [rax]
  000000014000568B: 00 00              add         byte ptr [rax],al
  000000014000568D: 00 00              add         byte ptr [rax],al
  000000014000568F: 00 01              add         byte ptr [rcx],al
  0000000140005691: 03 00              add         eax,dword ptr [rax]
  0000000140005693: 00 00              add         byte ptr [rax],al
  0000000140005695: 00 00              add         byte ptr [rax],al
  0000000140005697: 00 01              add         byte ptr [rcx],al
  0000000140005699: 03 00              add         eax,dword ptr [rax]
  000000014000569B: 00 00              add         byte ptr [rax],al
  000000014000569D: 00 00              add         byte ptr [rax],al
  000000014000569F: 00 01              add         byte ptr [rcx],al
  00000001400056A1: 03 00              add         eax,dword ptr [rax]
  00000001400056A3: 00 00              add         byte ptr [rax],al
  00000001400056A5: 00 00              add         byte ptr [rax],al
  00000001400056A7: 00 01              add         byte ptr [rcx],al
  00000001400056A9: 03 00              add         eax,dword ptr [rax]
  00000001400056AB: 00 00              add         byte ptr [rax],al
  00000001400056AD: 00 00              add         byte ptr [rax],al
  00000001400056AF: 00 01              add         byte ptr [rcx],al
  00000001400056B1: 03 00              add         eax,dword ptr [rax]
  00000001400056B3: 00 00              add         byte ptr [rax],al
  00000001400056B5: 00 00              add         byte ptr [rax],al
  00000001400056B7: 00 01              add         byte ptr [rcx],al
  00000001400056B9: 03 00              add         eax,dword ptr [rax]
  00000001400056BB: 00 00              add         byte ptr [rax],al
  00000001400056BD: 00 00              add         byte ptr [rax],al
  00000001400056BF: 00 01              add         byte ptr [rcx],al
  00000001400056C1: 03 00              add         eax,dword ptr [rax]
  00000001400056C3: 00 00              add         byte ptr [rax],al
  00000001400056C5: 00 00              add         byte ptr [rax],al
  00000001400056C7: 00 01              add         byte ptr [rcx],al
  00000001400056C9: 03 00              add         eax,dword ptr [rax]
  00000001400056CB: 00 00              add         byte ptr [rax],al
  00000001400056CD: 00 00              add         byte ptr [rax],al
  00000001400056CF: 00 01              add         byte ptr [rcx],al
  00000001400056D1: 03 00              add         eax,dword ptr [rax]
  00000001400056D3: 00 00              add         byte ptr [rax],al
  00000001400056D5: 00 00              add         byte ptr [rax],al
  00000001400056D7: 00 01              add         byte ptr [rcx],al
  00000001400056D9: 03 00              add         eax,dword ptr [rax]
  00000001400056DB: 00 00              add         byte ptr [rax],al
  00000001400056DD: 00 00              add         byte ptr [rax],al
  00000001400056DF: 00 01              add         byte ptr [rcx],al
  00000001400056E1: 03 00              add         eax,dword ptr [rax]
  00000001400056E3: 00 00              add         byte ptr [rax],al
  00000001400056E5: 00 00              add         byte ptr [rax],al
  00000001400056E7: 00 01              add         byte ptr [rcx],al
  00000001400056E9: 03 00              add         eax,dword ptr [rax]
  00000001400056EB: 00 00              add         byte ptr [rax],al
  00000001400056ED: 00 00              add         byte ptr [rax],al
  00000001400056EF: 00 01              add         byte ptr [rcx],al
  00000001400056F1: 03 00              add         eax,dword ptr [rax]
  00000001400056F3: 00 00              add         byte ptr [rax],al
  00000001400056F5: 00 00              add         byte ptr [rax],al
  00000001400056F7: 00 01              add         byte ptr [rcx],al
  00000001400056F9: 03 00              add         eax,dword ptr [rax]
  00000001400056FB: 00 00              add         byte ptr [rax],al
  00000001400056FD: 00 00              add         byte ptr [rax],al
  00000001400056FF: 00 01              add         byte ptr [rcx],al
  0000000140005701: 03 00              add         eax,dword ptr [rax]
  0000000140005703: 00 00              add         byte ptr [rax],al
  0000000140005705: 00 00              add         byte ptr [rax],al
  0000000140005707: 00 01              add         byte ptr [rcx],al
  0000000140005709: 03 00              add         eax,dword ptr [rax]
  000000014000570B: 00 00              add         byte ptr [rax],al
  000000014000570D: 00 00              add         byte ptr [rax],al
  000000014000570F: 00 01              add         byte ptr [rcx],al
  0000000140005711: 03 00              add         eax,dword ptr [rax]
  0000000140005713: 00 00              add         byte ptr [rax],al
  0000000140005715: 00 00              add         byte ptr [rax],al
  0000000140005717: 00 01              add         byte ptr [rcx],al
  0000000140005719: 03 00              add         eax,dword ptr [rax]
  000000014000571B: 00 00              add         byte ptr [rax],al
  000000014000571D: 00 00              add         byte ptr [rax],al
  000000014000571F: 00 01              add         byte ptr [rcx],al
  0000000140005721: 03 00              add         eax,dword ptr [rax]
  0000000140005723: 00 00              add         byte ptr [rax],al
  0000000140005725: 00 00              add         byte ptr [rax],al
  0000000140005727: 00 01              add         byte ptr [rcx],al
  0000000140005729: 03 00              add         eax,dword ptr [rax]
  000000014000572B: 00 00              add         byte ptr [rax],al
  000000014000572D: 00 00              add         byte ptr [rax],al
  000000014000572F: 00 01              add         byte ptr [rcx],al
  0000000140005731: 03 00              add         eax,dword ptr [rax]
  0000000140005733: 00 00              add         byte ptr [rax],al
  0000000140005735: 00 00              add         byte ptr [rax],al
  0000000140005737: 00 01              add         byte ptr [rcx],al
  0000000140005739: 03 00              add         eax,dword ptr [rax]
  000000014000573B: 00 00              add         byte ptr [rax],al
  000000014000573D: 00 00              add         byte ptr [rax],al
  000000014000573F: 00 01              add         byte ptr [rcx],al
  0000000140005741: 03 00              add         eax,dword ptr [rax]
  0000000140005743: 00 00              add         byte ptr [rax],al
  0000000140005745: 00 00              add         byte ptr [rax],al
  0000000140005747: 00 01              add         byte ptr [rcx],al
  0000000140005749: 03 00              add         eax,dword ptr [rax]
  000000014000574B: 00 00              add         byte ptr [rax],al
  000000014000574D: 00 00              add         byte ptr [rax],al
  000000014000574F: 00 01              add         byte ptr [rcx],al
  0000000140005751: 03 00              add         eax,dword ptr [rax]
  0000000140005753: 00 00              add         byte ptr [rax],al
  0000000140005755: 00 00              add         byte ptr [rax],al
  0000000140005757: 00 01              add         byte ptr [rcx],al
  0000000140005759: 03 00              add         eax,dword ptr [rax]
  000000014000575B: 00 00              add         byte ptr [rax],al
  000000014000575D: 00 00              add         byte ptr [rax],al
  000000014000575F: 00 01              add         byte ptr [rcx],al
  0000000140005761: 03 00              add         eax,dword ptr [rax]
  0000000140005763: 00 00              add         byte ptr [rax],al
  0000000140005765: 00 00              add         byte ptr [rax],al
  0000000140005767: 00 01              add         byte ptr [rcx],al
  0000000140005769: 03 00              add         eax,dword ptr [rax]
  000000014000576B: 00 00              add         byte ptr [rax],al
  000000014000576D: 00 00              add         byte ptr [rax],al
  000000014000576F: 00 01              add         byte ptr [rcx],al
  0000000140005771: 03 00              add         eax,dword ptr [rax]
  0000000140005773: 00 00              add         byte ptr [rax],al
  0000000140005775: 00 00              add         byte ptr [rax],al
  0000000140005777: 00 01              add         byte ptr [rcx],al
  0000000140005779: 03 00              add         eax,dword ptr [rax]
  000000014000577B: 00 00              add         byte ptr [rax],al
  000000014000577D: 00 00              add         byte ptr [rax],al
  000000014000577F: 00 01              add         byte ptr [rcx],al
  0000000140005781: 03 00              add         eax,dword ptr [rax]
  0000000140005783: 00 00              add         byte ptr [rax],al
  0000000140005785: 00 00              add         byte ptr [rax],al
  0000000140005787: 00 01              add         byte ptr [rcx],al
  0000000140005789: 03 00              add         eax,dword ptr [rax]
  000000014000578B: 00 00              add         byte ptr [rax],al
  000000014000578D: 00 00              add         byte ptr [rax],al
  000000014000578F: 00 01              add         byte ptr [rcx],al
  0000000140005791: 03 00              add         eax,dword ptr [rax]
  0000000140005793: 00 00              add         byte ptr [rax],al
  0000000140005795: 00 00              add         byte ptr [rax],al
  0000000140005797: 00 01              add         byte ptr [rcx],al
  0000000140005799: 03 00              add         eax,dword ptr [rax]
  000000014000579B: 00 00              add         byte ptr [rax],al
  000000014000579D: 00 00              add         byte ptr [rax],al
  000000014000579F: 00 01              add         byte ptr [rcx],al
  00000001400057A1: 03 00              add         eax,dword ptr [rax]
  00000001400057A3: 00 00              add         byte ptr [rax],al
  00000001400057A5: 00 00              add         byte ptr [rax],al
  00000001400057A7: 00 01              add         byte ptr [rcx],al
  00000001400057A9: 03 00              add         eax,dword ptr [rax]
  00000001400057AB: 00 00              add         byte ptr [rax],al
  00000001400057AD: 00 00              add         byte ptr [rax],al
  00000001400057AF: 00 01              add         byte ptr [rcx],al
  00000001400057B1: 03 00              add         eax,dword ptr [rax]
  00000001400057B3: 00 00              add         byte ptr [rax],al
  00000001400057B5: 00 00              add         byte ptr [rax],al
  00000001400057B7: 00 01              add         byte ptr [rcx],al
  00000001400057B9: 03 00              add         eax,dword ptr [rax]
  00000001400057BB: 00 00              add         byte ptr [rax],al
  00000001400057BD: 00 00              add         byte ptr [rax],al
  00000001400057BF: 00 08              add         byte ptr [rax],cl
  00000001400057C1: 03 00              add         eax,dword ptr [rax]
  00000001400057C3: 00 00              add         byte ptr [rax],al
  00000001400057C5: 00 00              add         byte ptr [rax],al
  00000001400057C7: 00 08              add         byte ptr [rax],cl
  00000001400057C9: 03 00              add         eax,dword ptr [rax]
  00000001400057CB: 00 00              add         byte ptr [rax],al
  00000001400057CD: 00 00              add         byte ptr [rax],al
  00000001400057CF: 00 08              add         byte ptr [rax],cl
  00000001400057D1: 03 00              add         eax,dword ptr [rax]
  00000001400057D3: 00 00              add         byte ptr [rax],al
  00000001400057D5: 00 00              add         byte ptr [rax],al
  00000001400057D7: 00 08              add         byte ptr [rax],cl
  00000001400057D9: 03 00              add         eax,dword ptr [rax]
  00000001400057DB: 00 00              add         byte ptr [rax],al
  00000001400057DD: 00 00              add         byte ptr [rax],al
  00000001400057DF: 00 08              add         byte ptr [rax],cl
  00000001400057E1: 03 00              add         eax,dword ptr [rax]
  00000001400057E3: 00 00              add         byte ptr [rax],al
  00000001400057E5: 00 00              add         byte ptr [rax],al
  00000001400057E7: 00 08              add         byte ptr [rax],cl
  00000001400057E9: 03 00              add         eax,dword ptr [rax]
  00000001400057EB: 00 00              add         byte ptr [rax],al
  00000001400057ED: 00 00              add         byte ptr [rax],al
  00000001400057EF: 00 08              add         byte ptr [rax],cl
  00000001400057F1: 03 00              add         eax,dword ptr [rax]
  00000001400057F3: 00 00              add         byte ptr [rax],al
  00000001400057F5: 00 00              add         byte ptr [rax],al
  00000001400057F7: 00 08              add         byte ptr [rax],cl
  00000001400057F9: 03 00              add         eax,dword ptr [rax]
  00000001400057FB: 00 00              add         byte ptr [rax],al
  00000001400057FD: 00 00              add         byte ptr [rax],al
  00000001400057FF: 00 08              add         byte ptr [rax],cl
  0000000140005801: 03 00              add         eax,dword ptr [rax]
  0000000140005803: 00 00              add         byte ptr [rax],al
  0000000140005805: 00 00              add         byte ptr [rax],al
  0000000140005807: 00 08              add         byte ptr [rax],cl
  0000000140005809: 03 00              add         eax,dword ptr [rax]
  000000014000580B: 00 00              add         byte ptr [rax],al
  000000014000580D: 00 00              add         byte ptr [rax],al
  000000014000580F: 00 08              add         byte ptr [rax],cl
  0000000140005811: 03 00              add         eax,dword ptr [rax]
  0000000140005813: 00 00              add         byte ptr [rax],al
  0000000140005815: 00 00              add         byte ptr [rax],al
  0000000140005817: 00 08              add         byte ptr [rax],cl
  0000000140005819: 03 00              add         eax,dword ptr [rax]
  000000014000581B: 00 00              add         byte ptr [rax],al
  000000014000581D: 00 00              add         byte ptr [rax],al
  000000014000581F: 00 08              add         byte ptr [rax],cl
  0000000140005821: 03 00              add         eax,dword ptr [rax]
  0000000140005823: 00 00              add         byte ptr [rax],al
  0000000140005825: 00 00              add         byte ptr [rax],al
  0000000140005827: 00 08              add         byte ptr [rax],cl
  0000000140005829: 03 00              add         eax,dword ptr [rax]
  000000014000582B: 00 00              add         byte ptr [rax],al
  000000014000582D: 00 00              add         byte ptr [rax],al
  000000014000582F: 00 08              add         byte ptr [rax],cl
  0000000140005831: 03 00              add         eax,dword ptr [rax]
  0000000140005833: 00 00              add         byte ptr [rax],al
  0000000140005835: 00 00              add         byte ptr [rax],al
  0000000140005837: 00 08              add         byte ptr [rax],cl
  0000000140005839: 03 00              add         eax,dword ptr [rax]
  000000014000583B: 00 00              add         byte ptr [rax],al
  000000014000583D: 00 00              add         byte ptr [rax],al
  000000014000583F: 00 08              add         byte ptr [rax],cl
  0000000140005841: 03 00              add         eax,dword ptr [rax]
  0000000140005843: 00 00              add         byte ptr [rax],al
  0000000140005845: 00 00              add         byte ptr [rax],al
  0000000140005847: 00 08              add         byte ptr [rax],cl
  0000000140005849: 03 00              add         eax,dword ptr [rax]
  000000014000584B: 00 00              add         byte ptr [rax],al
  000000014000584D: 00 00              add         byte ptr [rax],al
  000000014000584F: 00 08              add         byte ptr [rax],cl
  0000000140005851: 03 00              add         eax,dword ptr [rax]
  0000000140005853: 00 00              add         byte ptr [rax],al
  0000000140005855: 00 00              add         byte ptr [rax],al
  0000000140005857: 00 08              add         byte ptr [rax],cl
  0000000140005859: 03 00              add         eax,dword ptr [rax]
  000000014000585B: 00 00              add         byte ptr [rax],al
  000000014000585D: 00 00              add         byte ptr [rax],al
  000000014000585F: 00 08              add         byte ptr [rax],cl
  0000000140005861: 03 00              add         eax,dword ptr [rax]
  0000000140005863: 00 00              add         byte ptr [rax],al
  0000000140005865: 00 00              add         byte ptr [rax],al
  0000000140005867: 00 08              add         byte ptr [rax],cl
  0000000140005869: 03 00              add         eax,dword ptr [rax]
  000000014000586B: 00 00              add         byte ptr [rax],al
  000000014000586D: 00 00              add         byte ptr [rax],al
  000000014000586F: 00 08              add         byte ptr [rax],cl
  0000000140005871: 03 00              add         eax,dword ptr [rax]
  0000000140005873: 00 00              add         byte ptr [rax],al
  0000000140005875: 00 00              add         byte ptr [rax],al
  0000000140005877: 00 08              add         byte ptr [rax],cl
  0000000140005879: 03 00              add         eax,dword ptr [rax]
  000000014000587B: 00 00              add         byte ptr [rax],al
  000000014000587D: 00 00              add         byte ptr [rax],al
  000000014000587F: 00 08              add         byte ptr [rax],cl
  0000000140005881: 03 00              add         eax,dword ptr [rax]
  0000000140005883: 00 00              add         byte ptr [rax],al
  0000000140005885: 00 00              add         byte ptr [rax],al
  0000000140005887: 00 08              add         byte ptr [rax],cl
  0000000140005889: 03 00              add         eax,dword ptr [rax]
  000000014000588B: 00 00              add         byte ptr [rax],al
  000000014000588D: 00 00              add         byte ptr [rax],al
  000000014000588F: 00 08              add         byte ptr [rax],cl
  0000000140005891: 03 00              add         eax,dword ptr [rax]
  0000000140005893: 00 00              add         byte ptr [rax],al
  0000000140005895: 00 00              add         byte ptr [rax],al
  0000000140005897: 00 08              add         byte ptr [rax],cl
  0000000140005899: 03 00              add         eax,dword ptr [rax]
  000000014000589B: 00 00              add         byte ptr [rax],al
  000000014000589D: 00 00              add         byte ptr [rax],al
  000000014000589F: 00 08              add         byte ptr [rax],cl
  00000001400058A1: 03 00              add         eax,dword ptr [rax]
  00000001400058A3: 00 00              add         byte ptr [rax],al
  00000001400058A5: 00 00              add         byte ptr [rax],al
  00000001400058A7: 00 08              add         byte ptr [rax],cl
  00000001400058A9: 03 00              add         eax,dword ptr [rax]
  00000001400058AB: 00 00              add         byte ptr [rax],al
  00000001400058AD: 00 00              add         byte ptr [rax],al
  00000001400058AF: 00 08              add         byte ptr [rax],cl
  00000001400058B1: 03 00              add         eax,dword ptr [rax]
  00000001400058B3: 00 00              add         byte ptr [rax],al
  00000001400058B5: 00 00              add         byte ptr [rax],al
  00000001400058B7: 00 08              add         byte ptr [rax],cl
  00000001400058B9: 03 00              add         eax,dword ptr [rax]
  00000001400058BB: 00 00              add         byte ptr [rax],al
  00000001400058BD: 00 00              add         byte ptr [rax],al
  00000001400058BF: 00 08              add         byte ptr [rax],cl
  00000001400058C1: 03 00              add         eax,dword ptr [rax]
  00000001400058C3: 00 00              add         byte ptr [rax],al
  00000001400058C5: 00 00              add         byte ptr [rax],al
  00000001400058C7: 00 08              add         byte ptr [rax],cl
  00000001400058C9: 03 00              add         eax,dword ptr [rax]
  00000001400058CB: 00 00              add         byte ptr [rax],al
  00000001400058CD: 00 00              add         byte ptr [rax],al
  00000001400058CF: 00 08              add         byte ptr [rax],cl
  00000001400058D1: 03 00              add         eax,dword ptr [rax]
  00000001400058D3: 00 00              add         byte ptr [rax],al
  00000001400058D5: 00 00              add         byte ptr [rax],al
  00000001400058D7: 00 08              add         byte ptr [rax],cl
  00000001400058D9: 03 00              add         eax,dword ptr [rax]
  00000001400058DB: 00 00              add         byte ptr [rax],al
  00000001400058DD: 00 00              add         byte ptr [rax],al
  00000001400058DF: 00 08              add         byte ptr [rax],cl
  00000001400058E1: 03 00              add         eax,dword ptr [rax]
  00000001400058E3: 00 00              add         byte ptr [rax],al
  00000001400058E5: 00 00              add         byte ptr [rax],al
  00000001400058E7: 00 08              add         byte ptr [rax],cl
  00000001400058E9: 03 00              add         eax,dword ptr [rax]
  00000001400058EB: 00 00              add         byte ptr [rax],al
  00000001400058ED: 00 00              add         byte ptr [rax],al
  00000001400058EF: 00 08              add         byte ptr [rax],cl
  00000001400058F1: 03 00              add         eax,dword ptr [rax]
  00000001400058F3: 00 00              add         byte ptr [rax],al
  00000001400058F5: 00 00              add         byte ptr [rax],al
  00000001400058F7: 00 08              add         byte ptr [rax],cl
  00000001400058F9: 03 00              add         eax,dword ptr [rax]
  00000001400058FB: 00 00              add         byte ptr [rax],al
  00000001400058FD: 00 00              add         byte ptr [rax],al
  00000001400058FF: 00 08              add         byte ptr [rax],cl
  0000000140005901: 03 00              add         eax,dword ptr [rax]
  0000000140005903: 00 00              add         byte ptr [rax],al
  0000000140005905: 00 00              add         byte ptr [rax],al
  0000000140005907: 00 08              add         byte ptr [rax],cl
  0000000140005909: 03 00              add         eax,dword ptr [rax]
  000000014000590B: 00 00              add         byte ptr [rax],al
  000000014000590D: 00 00              add         byte ptr [rax],al
  000000014000590F: 00 08              add         byte ptr [rax],cl
  0000000140005911: 03 00              add         eax,dword ptr [rax]
  0000000140005913: 00 00              add         byte ptr [rax],al
  0000000140005915: 00 00              add         byte ptr [rax],al
  0000000140005917: 00 08              add         byte ptr [rax],cl
  0000000140005919: 03 00              add         eax,dword ptr [rax]
  000000014000591B: 00 00              add         byte ptr [rax],al
  000000014000591D: 00 00              add         byte ptr [rax],al
  000000014000591F: 00 08              add         byte ptr [rax],cl
  0000000140005921: 03 00              add         eax,dword ptr [rax]
  0000000140005923: 00 00              add         byte ptr [rax],al
  0000000140005925: 00 00              add         byte ptr [rax],al
  0000000140005927: 00 08              add         byte ptr [rax],cl
  0000000140005929: 03 00              add         eax,dword ptr [rax]
  000000014000592B: 00 00              add         byte ptr [rax],al
  000000014000592D: 00 00              add         byte ptr [rax],al
  000000014000592F: 00 08              add         byte ptr [rax],cl
  0000000140005931: 03 00              add         eax,dword ptr [rax]
  0000000140005933: 00 00              add         byte ptr [rax],al
  0000000140005935: 00 00              add         byte ptr [rax],al
  0000000140005937: 00 08              add         byte ptr [rax],cl
  0000000140005939: 03 00              add         eax,dword ptr [rax]
  000000014000593B: 00 00              add         byte ptr [rax],al
  000000014000593D: 00 00              add         byte ptr [rax],al
  000000014000593F: 00 08              add         byte ptr [rax],cl
  0000000140005941: 03 00              add         eax,dword ptr [rax]
  0000000140005943: 00 00              add         byte ptr [rax],al
  0000000140005945: 00 00              add         byte ptr [rax],al
  0000000140005947: 00 08              add         byte ptr [rax],cl
  0000000140005949: 03 00              add         eax,dword ptr [rax]
  000000014000594B: 00 00              add         byte ptr [rax],al
  000000014000594D: 00 00              add         byte ptr [rax],al
  000000014000594F: 00 08              add         byte ptr [rax],cl
  0000000140005951: 03 00              add         eax,dword ptr [rax]
  0000000140005953: 00 00              add         byte ptr [rax],al
  0000000140005955: 00 00              add         byte ptr [rax],al
  0000000140005957: 00 08              add         byte ptr [rax],cl
  0000000140005959: 03 00              add         eax,dword ptr [rax]
  000000014000595B: 00 00              add         byte ptr [rax],al
  000000014000595D: 00 00              add         byte ptr [rax],al
  000000014000595F: 00 08              add         byte ptr [rax],cl
  0000000140005961: 03 00              add         eax,dword ptr [rax]
  0000000140005963: 00 00              add         byte ptr [rax],al
  0000000140005965: 00 00              add         byte ptr [rax],al
  0000000140005967: 00 08              add         byte ptr [rax],cl
  0000000140005969: 03 00              add         eax,dword ptr [rax]
  000000014000596B: 00 00              add         byte ptr [rax],al
  000000014000596D: 00 00              add         byte ptr [rax],al
  000000014000596F: 00 08              add         byte ptr [rax],cl
  0000000140005971: 03 00              add         eax,dword ptr [rax]
  0000000140005973: 00 00              add         byte ptr [rax],al
  0000000140005975: 00 00              add         byte ptr [rax],al
  0000000140005977: 00 08              add         byte ptr [rax],cl
  0000000140005979: 03 00              add         eax,dword ptr [rax]
  000000014000597B: 00 00              add         byte ptr [rax],al
  000000014000597D: 00 00              add         byte ptr [rax],al
  000000014000597F: 00 08              add         byte ptr [rax],cl
  0000000140005981: 03 00              add         eax,dword ptr [rax]
  0000000140005983: 00 00              add         byte ptr [rax],al
  0000000140005985: 00 00              add         byte ptr [rax],al
  0000000140005987: 00 08              add         byte ptr [rax],cl
  0000000140005989: 03 00              add         eax,dword ptr [rax]
  000000014000598B: 00 00              add         byte ptr [rax],al
  000000014000598D: 00 00              add         byte ptr [rax],al
  000000014000598F: 00 08              add         byte ptr [rax],cl
  0000000140005991: 03 00              add         eax,dword ptr [rax]
  0000000140005993: 00 00              add         byte ptr [rax],al
  0000000140005995: 00 00              add         byte ptr [rax],al
  0000000140005997: 00 08              add         byte ptr [rax],cl
  0000000140005999: 03 00              add         eax,dword ptr [rax]
  000000014000599B: 00 00              add         byte ptr [rax],al
  000000014000599D: 00 00              add         byte ptr [rax],al
  000000014000599F: 00 08              add         byte ptr [rax],cl
  00000001400059A1: 03 00              add         eax,dword ptr [rax]
  00000001400059A3: 00 00              add         byte ptr [rax],al
  00000001400059A5: 00 00              add         byte ptr [rax],al
  00000001400059A7: 00 08              add         byte ptr [rax],cl
  00000001400059A9: 03 00              add         eax,dword ptr [rax]
  00000001400059AB: 00 00              add         byte ptr [rax],al
  00000001400059AD: 00 00              add         byte ptr [rax],al
  00000001400059AF: 00 08              add         byte ptr [rax],cl
  00000001400059B1: 03 00              add         eax,dword ptr [rax]
  00000001400059B3: 00 00              add         byte ptr [rax],al
  00000001400059B5: 00 00              add         byte ptr [rax],al
  00000001400059B7: 00 08              add         byte ptr [rax],cl
  00000001400059B9: 03 00              add         eax,dword ptr [rax]
  00000001400059BB: 00 00              add         byte ptr [rax],al
  00000001400059BD: 00 00              add         byte ptr [rax],al
  00000001400059BF: 00 0F              add         byte ptr [rdi],cl
  00000001400059C1: 03 00              add         eax,dword ptr [rax]
  00000001400059C3: 00 00              add         byte ptr [rax],al
  00000001400059C5: 00 00              add         byte ptr [rax],al
  00000001400059C7: 00 0F              add         byte ptr [rdi],cl
  00000001400059C9: 03 00              add         eax,dword ptr [rax]
  00000001400059CB: 00 00              add         byte ptr [rax],al
  00000001400059CD: 00 00              add         byte ptr [rax],al
  00000001400059CF: 00 0F              add         byte ptr [rdi],cl
  00000001400059D1: 03 00              add         eax,dword ptr [rax]
  00000001400059D3: 00 00              add         byte ptr [rax],al
  00000001400059D5: 00 00              add         byte ptr [rax],al
  00000001400059D7: 00 0F              add         byte ptr [rdi],cl
  00000001400059D9: 03 00              add         eax,dword ptr [rax]
  00000001400059DB: 00 00              add         byte ptr [rax],al
  00000001400059DD: 00 00              add         byte ptr [rax],al
  00000001400059DF: 00 0F              add         byte ptr [rdi],cl
  00000001400059E1: 03 00              add         eax,dword ptr [rax]
  00000001400059E3: 00 00              add         byte ptr [rax],al
  00000001400059E5: 00 00              add         byte ptr [rax],al
  00000001400059E7: 00 0F              add         byte ptr [rdi],cl
  00000001400059E9: 03 00              add         eax,dword ptr [rax]
  00000001400059EB: 00 00              add         byte ptr [rax],al
  00000001400059ED: 00 00              add         byte ptr [rax],al
  00000001400059EF: 00 0F              add         byte ptr [rdi],cl
  00000001400059F1: 03 00              add         eax,dword ptr [rax]
  00000001400059F3: 00 00              add         byte ptr [rax],al
  00000001400059F5: 00 00              add         byte ptr [rax],al
  00000001400059F7: 00 0F              add         byte ptr [rdi],cl
  00000001400059F9: 03 00              add         eax,dword ptr [rax]
  00000001400059FB: 00 00              add         byte ptr [rax],al
  00000001400059FD: 00 00              add         byte ptr [rax],al
  00000001400059FF: 00 0F              add         byte ptr [rdi],cl
  0000000140005A01: 03 00              add         eax,dword ptr [rax]
  0000000140005A03: 00 00              add         byte ptr [rax],al
  0000000140005A05: 00 00              add         byte ptr [rax],al
  0000000140005A07: 00 0F              add         byte ptr [rdi],cl
  0000000140005A09: 03 00              add         eax,dword ptr [rax]
  0000000140005A0B: 00 00              add         byte ptr [rax],al
  0000000140005A0D: 00 00              add         byte ptr [rax],al
  0000000140005A0F: 00 0F              add         byte ptr [rdi],cl
  0000000140005A11: 03 00              add         eax,dword ptr [rax]
  0000000140005A13: 00 00              add         byte ptr [rax],al
  0000000140005A15: 00 00              add         byte ptr [rax],al
  0000000140005A17: 00 0F              add         byte ptr [rdi],cl
  0000000140005A19: 03 00              add         eax,dword ptr [rax]
  0000000140005A1B: 00 00              add         byte ptr [rax],al
  0000000140005A1D: 00 00              add         byte ptr [rax],al
  0000000140005A1F: 00 0F              add         byte ptr [rdi],cl
  0000000140005A21: 03 00              add         eax,dword ptr [rax]
  0000000140005A23: 00 00              add         byte ptr [rax],al
  0000000140005A25: 00 00              add         byte ptr [rax],al
  0000000140005A27: 00 0F              add         byte ptr [rdi],cl
  0000000140005A29: 03 00              add         eax,dword ptr [rax]
  0000000140005A2B: 00 00              add         byte ptr [rax],al
  0000000140005A2D: 00 00              add         byte ptr [rax],al
  0000000140005A2F: 00 0F              add         byte ptr [rdi],cl
  0000000140005A31: 03 00              add         eax,dword ptr [rax]
  0000000140005A33: 00 00              add         byte ptr [rax],al
  0000000140005A35: 00 00              add         byte ptr [rax],al
  0000000140005A37: 00 0F              add         byte ptr [rdi],cl
  0000000140005A39: 03 00              add         eax,dword ptr [rax]
  0000000140005A3B: 00 00              add         byte ptr [rax],al
  0000000140005A3D: 00 00              add         byte ptr [rax],al
  0000000140005A3F: 00 0F              add         byte ptr [rdi],cl
  0000000140005A41: 03 00              add         eax,dword ptr [rax]
  0000000140005A43: 00 00              add         byte ptr [rax],al
  0000000140005A45: 00 00              add         byte ptr [rax],al
  0000000140005A47: 00 0F              add         byte ptr [rdi],cl
  0000000140005A49: 03 00              add         eax,dword ptr [rax]
  0000000140005A4B: 00 00              add         byte ptr [rax],al
  0000000140005A4D: 00 00              add         byte ptr [rax],al
  0000000140005A4F: 00 0F              add         byte ptr [rdi],cl
  0000000140005A51: 03 00              add         eax,dword ptr [rax]
  0000000140005A53: 00 00              add         byte ptr [rax],al
  0000000140005A55: 00 00              add         byte ptr [rax],al
  0000000140005A57: 00 0F              add         byte ptr [rdi],cl
  0000000140005A59: 03 00              add         eax,dword ptr [rax]
  0000000140005A5B: 00 00              add         byte ptr [rax],al
  0000000140005A5D: 00 00              add         byte ptr [rax],al
  0000000140005A5F: 00 0F              add         byte ptr [rdi],cl
  0000000140005A61: 03 00              add         eax,dword ptr [rax]
  0000000140005A63: 00 00              add         byte ptr [rax],al
  0000000140005A65: 00 00              add         byte ptr [rax],al
  0000000140005A67: 00 0F              add         byte ptr [rdi],cl
  0000000140005A69: 03 00              add         eax,dword ptr [rax]
  0000000140005A6B: 00 00              add         byte ptr [rax],al
  0000000140005A6D: 00 00              add         byte ptr [rax],al
  0000000140005A6F: 00 0F              add         byte ptr [rdi],cl
  0000000140005A71: 03 00              add         eax,dword ptr [rax]
  0000000140005A73: 00 00              add         byte ptr [rax],al
  0000000140005A75: 00 00              add         byte ptr [rax],al
  0000000140005A77: 00 0F              add         byte ptr [rdi],cl
  0000000140005A79: 03 00              add         eax,dword ptr [rax]
  0000000140005A7B: 00 00              add         byte ptr [rax],al
  0000000140005A7D: 00 00              add         byte ptr [rax],al
  0000000140005A7F: 00 0F              add         byte ptr [rdi],cl
  0000000140005A81: 03 00              add         eax,dword ptr [rax]
  0000000140005A83: 00 00              add         byte ptr [rax],al
  0000000140005A85: 00 00              add         byte ptr [rax],al
  0000000140005A87: 00 0F              add         byte ptr [rdi],cl
  0000000140005A89: 03 00              add         eax,dword ptr [rax]
  0000000140005A8B: 00 00              add         byte ptr [rax],al
  0000000140005A8D: 00 00              add         byte ptr [rax],al
  0000000140005A8F: 00 0F              add         byte ptr [rdi],cl
  0000000140005A91: 03 00              add         eax,dword ptr [rax]
  0000000140005A93: 00 00              add         byte ptr [rax],al
  0000000140005A95: 00 00              add         byte ptr [rax],al
  0000000140005A97: 00 0F              add         byte ptr [rdi],cl
  0000000140005A99: 03 00              add         eax,dword ptr [rax]
  0000000140005A9B: 00 00              add         byte ptr [rax],al
  0000000140005A9D: 00 00              add         byte ptr [rax],al
  0000000140005A9F: 00 0F              add         byte ptr [rdi],cl
  0000000140005AA1: 03 00              add         eax,dword ptr [rax]
  0000000140005AA3: 00 00              add         byte ptr [rax],al
  0000000140005AA5: 00 00              add         byte ptr [rax],al
  0000000140005AA7: 00 0F              add         byte ptr [rdi],cl
  0000000140005AA9: 03 00              add         eax,dword ptr [rax]
  0000000140005AAB: 00 00              add         byte ptr [rax],al
  0000000140005AAD: 00 00              add         byte ptr [rax],al
  0000000140005AAF: 00 0F              add         byte ptr [rdi],cl
  0000000140005AB1: 03 00              add         eax,dword ptr [rax]
  0000000140005AB3: 00 00              add         byte ptr [rax],al
  0000000140005AB5: 00 00              add         byte ptr [rax],al
  0000000140005AB7: 00 0F              add         byte ptr [rdi],cl
  0000000140005AB9: 03 00              add         eax,dword ptr [rax]
  0000000140005ABB: 00 00              add         byte ptr [rax],al
  0000000140005ABD: 00 00              add         byte ptr [rax],al
  0000000140005ABF: 00 0F              add         byte ptr [rdi],cl
  0000000140005AC1: 03 00              add         eax,dword ptr [rax]
  0000000140005AC3: 00 00              add         byte ptr [rax],al
  0000000140005AC5: 00 00              add         byte ptr [rax],al
  0000000140005AC7: 00 0F              add         byte ptr [rdi],cl
  0000000140005AC9: 03 00              add         eax,dword ptr [rax]
  0000000140005ACB: 00 00              add         byte ptr [rax],al
  0000000140005ACD: 00 00              add         byte ptr [rax],al
  0000000140005ACF: 00 0F              add         byte ptr [rdi],cl
  0000000140005AD1: 03 00              add         eax,dword ptr [rax]
  0000000140005AD3: 00 00              add         byte ptr [rax],al
  0000000140005AD5: 00 00              add         byte ptr [rax],al
  0000000140005AD7: 00 0F              add         byte ptr [rdi],cl
  0000000140005AD9: 03 00              add         eax,dword ptr [rax]
  0000000140005ADB: 00 00              add         byte ptr [rax],al
  0000000140005ADD: 00 00              add         byte ptr [rax],al
  0000000140005ADF: 00 0F              add         byte ptr [rdi],cl
  0000000140005AE1: 03 00              add         eax,dword ptr [rax]
  0000000140005AE3: 00 00              add         byte ptr [rax],al
  0000000140005AE5: 00 00              add         byte ptr [rax],al
  0000000140005AE7: 00 0F              add         byte ptr [rdi],cl
  0000000140005AE9: 03 00              add         eax,dword ptr [rax]
  0000000140005AEB: 00 00              add         byte ptr [rax],al
  0000000140005AED: 00 00              add         byte ptr [rax],al
  0000000140005AEF: 00 0F              add         byte ptr [rdi],cl
  0000000140005AF1: 03 00              add         eax,dword ptr [rax]
  0000000140005AF3: 00 00              add         byte ptr [rax],al
  0000000140005AF5: 00 00              add         byte ptr [rax],al
  0000000140005AF7: 00 0F              add         byte ptr [rdi],cl
  0000000140005AF9: 03 00              add         eax,dword ptr [rax]
  0000000140005AFB: 00 00              add         byte ptr [rax],al
  0000000140005AFD: 00 00              add         byte ptr [rax],al
  0000000140005AFF: 00 0F              add         byte ptr [rdi],cl
  0000000140005B01: 03 00              add         eax,dword ptr [rax]
  0000000140005B03: 00 00              add         byte ptr [rax],al
  0000000140005B05: 00 00              add         byte ptr [rax],al
  0000000140005B07: 00 0F              add         byte ptr [rdi],cl
  0000000140005B09: 03 00              add         eax,dword ptr [rax]
  0000000140005B0B: 00 00              add         byte ptr [rax],al
  0000000140005B0D: 00 00              add         byte ptr [rax],al
  0000000140005B0F: 00 0F              add         byte ptr [rdi],cl
  0000000140005B11: 03 00              add         eax,dword ptr [rax]
  0000000140005B13: 00 00              add         byte ptr [rax],al
  0000000140005B15: 00 00              add         byte ptr [rax],al
  0000000140005B17: 00 0F              add         byte ptr [rdi],cl
  0000000140005B19: 03 00              add         eax,dword ptr [rax]
  0000000140005B1B: 00 00              add         byte ptr [rax],al
  0000000140005B1D: 00 00              add         byte ptr [rax],al
  0000000140005B1F: 00 0F              add         byte ptr [rdi],cl
  0000000140005B21: 03 00              add         eax,dword ptr [rax]
  0000000140005B23: 00 00              add         byte ptr [rax],al
  0000000140005B25: 00 00              add         byte ptr [rax],al
  0000000140005B27: 00 0F              add         byte ptr [rdi],cl
  0000000140005B29: 03 00              add         eax,dword ptr [rax]
  0000000140005B2B: 00 00              add         byte ptr [rax],al
  0000000140005B2D: 00 00              add         byte ptr [rax],al
  0000000140005B2F: 00 0F              add         byte ptr [rdi],cl
  0000000140005B31: 03 00              add         eax,dword ptr [rax]
  0000000140005B33: 00 00              add         byte ptr [rax],al
  0000000140005B35: 00 00              add         byte ptr [rax],al
  0000000140005B37: 00 0F              add         byte ptr [rdi],cl
  0000000140005B39: 03 00              add         eax,dword ptr [rax]
  0000000140005B3B: 00 00              add         byte ptr [rax],al
  0000000140005B3D: 00 00              add         byte ptr [rax],al
  0000000140005B3F: 00 0F              add         byte ptr [rdi],cl
  0000000140005B41: 03 00              add         eax,dword ptr [rax]
  0000000140005B43: 00 00              add         byte ptr [rax],al
  0000000140005B45: 00 00              add         byte ptr [rax],al
  0000000140005B47: 00 0F              add         byte ptr [rdi],cl
  0000000140005B49: 03 00              add         eax,dword ptr [rax]
  0000000140005B4B: 00 00              add         byte ptr [rax],al
  0000000140005B4D: 00 00              add         byte ptr [rax],al
  0000000140005B4F: 00 0F              add         byte ptr [rdi],cl
  0000000140005B51: 03 00              add         eax,dword ptr [rax]
  0000000140005B53: 00 00              add         byte ptr [rax],al
  0000000140005B55: 00 00              add         byte ptr [rax],al
  0000000140005B57: 00 0F              add         byte ptr [rdi],cl
  0000000140005B59: 03 00              add         eax,dword ptr [rax]
  0000000140005B5B: 00 00              add         byte ptr [rax],al
  0000000140005B5D: 00 00              add         byte ptr [rax],al
  0000000140005B5F: 00 0F              add         byte ptr [rdi],cl
  0000000140005B61: 03 00              add         eax,dword ptr [rax]
  0000000140005B63: 00 00              add         byte ptr [rax],al
  0000000140005B65: 00 00              add         byte ptr [rax],al
  0000000140005B67: 00 0F              add         byte ptr [rdi],cl
  0000000140005B69: 03 00              add         eax,dword ptr [rax]
  0000000140005B6B: 00 00              add         byte ptr [rax],al
  0000000140005B6D: 00 00              add         byte ptr [rax],al
  0000000140005B6F: 00 0F              add         byte ptr [rdi],cl
  0000000140005B71: 03 00              add         eax,dword ptr [rax]
  0000000140005B73: 00 00              add         byte ptr [rax],al
  0000000140005B75: 00 00              add         byte ptr [rax],al
  0000000140005B77: 00 0F              add         byte ptr [rdi],cl
  0000000140005B79: 03 00              add         eax,dword ptr [rax]
  0000000140005B7B: 00 00              add         byte ptr [rax],al
  0000000140005B7D: 00 00              add         byte ptr [rax],al
  0000000140005B7F: 00 0F              add         byte ptr [rdi],cl
  0000000140005B81: 03 00              add         eax,dword ptr [rax]
  0000000140005B83: 00 00              add         byte ptr [rax],al
  0000000140005B85: 00 00              add         byte ptr [rax],al
  0000000140005B87: 00 0F              add         byte ptr [rdi],cl
  0000000140005B89: 03 00              add         eax,dword ptr [rax]
  0000000140005B8B: 00 00              add         byte ptr [rax],al
  0000000140005B8D: 00 00              add         byte ptr [rax],al
  0000000140005B8F: 00 0F              add         byte ptr [rdi],cl
  0000000140005B91: 03 00              add         eax,dword ptr [rax]
  0000000140005B93: 00 00              add         byte ptr [rax],al
  0000000140005B95: 00 00              add         byte ptr [rax],al
  0000000140005B97: 00 0F              add         byte ptr [rdi],cl
  0000000140005B99: 03 00              add         eax,dword ptr [rax]
  0000000140005B9B: 00 00              add         byte ptr [rax],al
  0000000140005B9D: 00 00              add         byte ptr [rax],al
  0000000140005B9F: 00 0F              add         byte ptr [rdi],cl
  0000000140005BA1: 03 00              add         eax,dword ptr [rax]
  0000000140005BA3: 00 00              add         byte ptr [rax],al
  0000000140005BA5: 00 00              add         byte ptr [rax],al
  0000000140005BA7: 00 0F              add         byte ptr [rdi],cl
  0000000140005BA9: 03 00              add         eax,dword ptr [rax]
  0000000140005BAB: 00 00              add         byte ptr [rax],al
  0000000140005BAD: 00 00              add         byte ptr [rax],al
  0000000140005BAF: 00 0F              add         byte ptr [rdi],cl
  0000000140005BB1: 03 00              add         eax,dword ptr [rax]
  0000000140005BB3: 00 00              add         byte ptr [rax],al
  0000000140005BB5: 00 00              add         byte ptr [rax],al
  0000000140005BB7: 00 0F              add         byte ptr [rdi],cl
  0000000140005BB9: 03 00              add         eax,dword ptr [rax]
  0000000140005BBB: 00 00              add         byte ptr [rax],al
  0000000140005BBD: 00 00              add         byte ptr [rax],al
  0000000140005BBF: 00 C2              add         dl,al
  0000000140005BC1: 12 00              adc         al,byte ptr [rax]
  0000000140005BC3: 00 00              add         byte ptr [rax],al
  0000000140005BC5: 00 00              add         byte ptr [rax],al
  0000000140005BC7: 00 CA              add         dl,cl
  0000000140005BC9: 12 00              adc         al,byte ptr [rax]
  0000000140005BCB: 00 00              add         byte ptr [rax],al
  0000000140005BCD: 00 00              add         byte ptr [rax],al
  0000000140005BCF: 00 BD 12 00 00 00  add         byte ptr [rbp+0000000000000012h],bh
  0000000140005BD5: 00 00              add         byte ptr [rax],al
  0000000140005BD7: 00 B4 12 00 00 00  add         byte ptr [rdx+rdx+0000000000000000h],dh
                    00
  0000000140005BDE: 00 00              add         byte ptr [rax],al
  0000000140005BE0: A7                 cmps        dword ptr [rsi],dword ptr [rdi]
  0000000140005BE1: 12 00              adc         al,byte ptr [rax]
  0000000140005BE3: 00 00              add         byte ptr [rax],al
  0000000140005BE5: 00 00              add         byte ptr [rax],al
  0000000140005BE7: 00 9F 12 00 00 00  add         byte ptr [rdi+0000000000000012h],bl
  0000000140005BED: 00 00              add         byte ptr [rax],al
  0000000140005BEF: 00 9F 12 00 00 00  add         byte ptr [rdi+0000000000000012h],bl
  0000000140005BF5: 00 00              add         byte ptr [rax],al
  0000000140005BF7: 00 9F 12 00 00 00  add         byte ptr [rdi+0000000000000012h],bl
  0000000140005BFD: 00 00              add         byte ptr [rax],al
  0000000140005BFF: 00 93 12 00 00 00  add         byte ptr [rbx+0000000000000012h],dl
  0000000140005C05: 00 00              add         byte ptr [rax],al
  0000000140005C07: 00 8B 12 00 00 00  add         byte ptr [rbx+0000000000000012h],cl
  0000000140005C0D: 00 00              add         byte ptr [rax],al
  0000000140005C0F: 00 8B 12 00 00 00  add         byte ptr [rbx+0000000000000012h],cl
  0000000140005C15: 00 00              add         byte ptr [rax],al
  0000000140005C17: 00 8B 12 00 00 00  add         byte ptr [rbx+0000000000000012h],cl
  0000000140005C1D: 00 00              add         byte ptr [rax],al
  0000000140005C1F: 00 8B 12 00 00 00  add         byte ptr [rbx+0000000000000012h],cl
  0000000140005C25: 00 00              add         byte ptr [rax],al
  0000000140005C27: 00 8B 12 00 00 00  add         byte ptr [rbx+0000000000000012h],cl
  0000000140005C2D: 00 00              add         byte ptr [rax],al
  0000000140005C2F: 00 8B 12 00 00 00  add         byte ptr [rbx+0000000000000012h],cl
  0000000140005C35: 00 00              add         byte ptr [rax],al
  0000000140005C37: 00 8B 12 00 00 00  add         byte ptr [rbx+0000000000000012h],cl
  0000000140005C3D: 00 00              add         byte ptr [rax],al
  0000000140005C3F: 00 7F 12           add         byte ptr [rdi+12h],bh
  0000000140005C42: 00 00              add         byte ptr [rax],al
  0000000140005C44: 00 00              add         byte ptr [rax],al
  0000000140005C46: 00 00              add         byte ptr [rax],al
  0000000140005C48: 75 12              jne         0000000140005C5C
  0000000140005C4A: 00 00              add         byte ptr [rax],al
  0000000140005C4C: 00 00              add         byte ptr [rax],al
  0000000140005C4E: 00 00              add         byte ptr [rax],al
  0000000140005C50: 75 12              jne         0000000140005C64
  0000000140005C52: 00 00              add         byte ptr [rax],al
  0000000140005C54: 00 00              add         byte ptr [rax],al
  0000000140005C56: 00 00              add         byte ptr [rax],al
  0000000140005C58: 75 12              jne         0000000140005C6C
  0000000140005C5A: 00 00              add         byte ptr [rax],al
  0000000140005C5C: 00 00              add         byte ptr [rax],al
  0000000140005C5E: 00 00              add         byte ptr [rax],al
  0000000140005C60: 75 12              jne         0000000140005C74
  0000000140005C62: 00 00              add         byte ptr [rax],al
  0000000140005C64: 00 00              add         byte ptr [rax],al
  0000000140005C66: 00 00              add         byte ptr [rax],al
  0000000140005C68: 75 12              jne         0000000140005C7C
  0000000140005C6A: 00 00              add         byte ptr [rax],al
  0000000140005C6C: 00 00              add         byte ptr [rax],al
  0000000140005C6E: 00 00              add         byte ptr [rax],al
  0000000140005C70: 75 12              jne         0000000140005C84
  0000000140005C72: 00 00              add         byte ptr [rax],al
  0000000140005C74: 00 00              add         byte ptr [rax],al
  0000000140005C76: 00 00              add         byte ptr [rax],al
  0000000140005C78: 75 12              jne         0000000140005C8C
  0000000140005C7A: 00 00              add         byte ptr [rax],al
  0000000140005C7C: 00 00              add         byte ptr [rax],al
  0000000140005C7E: 00 00              add         byte ptr [rax],al
  0000000140005C80: 75 12              jne         0000000140005C94
  0000000140005C82: 00 00              add         byte ptr [rax],al
  0000000140005C84: 00 00              add         byte ptr [rax],al
  0000000140005C86: 00 00              add         byte ptr [rax],al
  0000000140005C88: 75 12              jne         0000000140005C9C
  0000000140005C8A: 00 00              add         byte ptr [rax],al
  0000000140005C8C: 00 00              add         byte ptr [rax],al
  0000000140005C8E: 00 00              add         byte ptr [rax],al
  0000000140005C90: 75 12              jne         0000000140005CA4
  0000000140005C92: 00 00              add         byte ptr [rax],al
  0000000140005C94: 00 00              add         byte ptr [rax],al
  0000000140005C96: 00 00              add         byte ptr [rax],al
  0000000140005C98: 75 12              jne         0000000140005CAC
  0000000140005C9A: 00 00              add         byte ptr [rax],al
  0000000140005C9C: 00 00              add         byte ptr [rax],al
  0000000140005C9E: 00 00              add         byte ptr [rax],al
  0000000140005CA0: 75 12              jne         0000000140005CB4
  0000000140005CA2: 00 00              add         byte ptr [rax],al
  0000000140005CA4: 00 00              add         byte ptr [rax],al
  0000000140005CA6: 00 00              add         byte ptr [rax],al
  0000000140005CA8: 75 12              jne         0000000140005CBC
  0000000140005CAA: 00 00              add         byte ptr [rax],al
  0000000140005CAC: 00 00              add         byte ptr [rax],al
  0000000140005CAE: 00 00              add         byte ptr [rax],al
  0000000140005CB0: 75 12              jne         0000000140005CC4
  0000000140005CB2: 00 00              add         byte ptr [rax],al
  0000000140005CB4: 00 00              add         byte ptr [rax],al
  0000000140005CB6: 00 00              add         byte ptr [rax],al
  0000000140005CB8: 75 12              jne         0000000140005CCC
  0000000140005CBA: 00 00              add         byte ptr [rax],al
  0000000140005CBC: 00 00              add         byte ptr [rax],al
  0000000140005CBE: 00 00              add         byte ptr [rax],al
  0000000140005CC0: 66 12 00           adc         al,byte ptr [rax]
  0000000140005CC3: 00 00              add         byte ptr [rax],al
  0000000140005CC5: 00 00              add         byte ptr [rax],al
  0000000140005CC7: 00 5C 12 00        add         byte ptr [rdx+rdx],bl
  0000000140005CCB: 00 00              add         byte ptr [rax],al
  0000000140005CCD: 00 00              add         byte ptr [rax],al
  0000000140005CCF: 00 5C 12 00        add         byte ptr [rdx+rdx],bl
  0000000140005CD3: 00 00              add         byte ptr [rax],al
  0000000140005CD5: 00 00              add         byte ptr [rax],al
  0000000140005CD7: 00 5C 12 00        add         byte ptr [rdx+rdx],bl
  0000000140005CDB: 00 00              add         byte ptr [rax],al
  0000000140005CDD: 00 00              add         byte ptr [rax],al
  0000000140005CDF: 00 5C 12 00        add         byte ptr [rdx+rdx],bl
  0000000140005CE3: 00 00              add         byte ptr [rax],al
  0000000140005CE5: 00 00              add         byte ptr [rax],al
  0000000140005CE7: 00 5C 12 00        add         byte ptr [rdx+rdx],bl
  0000000140005CEB: 00 00              add         byte ptr [rax],al
  0000000140005CED: 00 00              add         byte ptr [rax],al
  0000000140005CEF: 00 5C 12 00        add         byte ptr [rdx+rdx],bl
  0000000140005CF3: 00 00              add         byte ptr [rax],al
  0000000140005CF5: 00 00              add         byte ptr [rax],al
  0000000140005CF7: 00 5C 12 00        add         byte ptr [rdx+rdx],bl
  0000000140005CFB: 00 00              add         byte ptr [rax],al
  0000000140005CFD: 00 00              add         byte ptr [rax],al
  0000000140005CFF: 00 5C 12 00        add         byte ptr [rdx+rdx],bl
  0000000140005D03: 00 00              add         byte ptr [rax],al
  0000000140005D05: 00 00              add         byte ptr [rax],al
  0000000140005D07: 00 5C 12 00        add         byte ptr [rdx+rdx],bl
  0000000140005D0B: 00 00              add         byte ptr [rax],al
  0000000140005D0D: 00 00              add         byte ptr [rax],al
  0000000140005D0F: 00 5C 12 00        add         byte ptr [rdx+rdx],bl
  0000000140005D13: 00 00              add         byte ptr [rax],al
  0000000140005D15: 00 00              add         byte ptr [rax],al
  0000000140005D17: 00 5C 12 00        add         byte ptr [rdx+rdx],bl
  0000000140005D1B: 00 00              add         byte ptr [rax],al
  0000000140005D1D: 00 00              add         byte ptr [rax],al
  0000000140005D1F: 00 5C 12 00        add         byte ptr [rdx+rdx],bl
  0000000140005D23: 00 00              add         byte ptr [rax],al
  0000000140005D25: 00 00              add         byte ptr [rax],al
  0000000140005D27: 00 5C 12 00        add         byte ptr [rdx+rdx],bl
  0000000140005D2B: 00 00              add         byte ptr [rax],al
  0000000140005D2D: 00 00              add         byte ptr [rax],al
  0000000140005D2F: 00 5C 12 00        add         byte ptr [rdx+rdx],bl
  0000000140005D33: 00 00              add         byte ptr [rax],al
  0000000140005D35: 00 00              add         byte ptr [rax],al
  0000000140005D37: 00 5C 12 00        add         byte ptr [rdx+rdx],bl
  0000000140005D3B: 00 00              add         byte ptr [rax],al
  0000000140005D3D: 00 00              add         byte ptr [rax],al
  0000000140005D3F: 00 5C 12 00        add         byte ptr [rdx+rdx],bl
  0000000140005D43: 00 00              add         byte ptr [rax],al
  0000000140005D45: 00 00              add         byte ptr [rax],al
  0000000140005D47: 00 5C 12 00        add         byte ptr [rdx+rdx],bl
  0000000140005D4B: 00 00              add         byte ptr [rax],al
  0000000140005D4D: 00 00              add         byte ptr [rax],al
  0000000140005D4F: 00 5C 12 00        add         byte ptr [rdx+rdx],bl
  0000000140005D53: 00 00              add         byte ptr [rax],al
  0000000140005D55: 00 00              add         byte ptr [rax],al
  0000000140005D57: 00 5C 12 00        add         byte ptr [rdx+rdx],bl
  0000000140005D5B: 00 00              add         byte ptr [rax],al
  0000000140005D5D: 00 00              add         byte ptr [rax],al
  0000000140005D5F: 00 5C 12 00        add         byte ptr [rdx+rdx],bl
  0000000140005D63: 00 00              add         byte ptr [rax],al
  0000000140005D65: 00 00              add         byte ptr [rax],al
  0000000140005D67: 00 5C 12 00        add         byte ptr [rdx+rdx],bl
  0000000140005D6B: 00 00              add         byte ptr [rax],al
  0000000140005D6D: 00 00              add         byte ptr [rax],al
  0000000140005D6F: 00 5C 12 00        add         byte ptr [rdx+rdx],bl
  0000000140005D73: 00 00              add         byte ptr [rax],al
  0000000140005D75: 00 00              add         byte ptr [rax],al
  0000000140005D77: 00 5C 12 00        add         byte ptr [rdx+rdx],bl
  0000000140005D7B: 00 00              add         byte ptr [rax],al
  0000000140005D7D: 00 00              add         byte ptr [rax],al
  0000000140005D7F: 00 5C 12 00        add         byte ptr [rdx+rdx],bl
  0000000140005D83: 00 00              add         byte ptr [rax],al
  0000000140005D85: 00 00              add         byte ptr [rax],al
  0000000140005D87: 00 5C 12 00        add         byte ptr [rdx+rdx],bl
  0000000140005D8B: 00 00              add         byte ptr [rax],al
  0000000140005D8D: 00 00              add         byte ptr [rax],al
  0000000140005D8F: 00 5C 12 00        add         byte ptr [rdx+rdx],bl
  0000000140005D93: 00 00              add         byte ptr [rax],al
  0000000140005D95: 00 00              add         byte ptr [rax],al
  0000000140005D97: 00 5C 12 00        add         byte ptr [rdx+rdx],bl
  0000000140005D9B: 00 00              add         byte ptr [rax],al
  0000000140005D9D: 00 00              add         byte ptr [rax],al
  0000000140005D9F: 00 5C 12 00        add         byte ptr [rdx+rdx],bl
  0000000140005DA3: 00 00              add         byte ptr [rax],al
  0000000140005DA5: 00 00              add         byte ptr [rax],al
  0000000140005DA7: 00 5C 12 00        add         byte ptr [rdx+rdx],bl
  0000000140005DAB: 00 00              add         byte ptr [rax],al
  0000000140005DAD: 00 00              add         byte ptr [rax],al
  0000000140005DAF: 00 5C 12 00        add         byte ptr [rdx+rdx],bl
  0000000140005DB3: 00 00              add         byte ptr [rax],al
  0000000140005DB5: 00 00              add         byte ptr [rax],al
  0000000140005DB7: 00 5C 12 00        add         byte ptr [rdx+rdx],bl
  0000000140005DBB: 00 00              add         byte ptr [rax],al
  0000000140005DBD: 00 00              add         byte ptr [rax],al
  0000000140005DBF: 00 4D 12           add         byte ptr [rbp+12h],cl
  0000000140005DC2: 00 00              add         byte ptr [rax],al
  0000000140005DC4: 00 00              add         byte ptr [rax],al
  0000000140005DC6: 00 00              add         byte ptr [rax],al
  0000000140005DC8: 42 12 00           adc         al,byte ptr [rax]
  0000000140005DCB: 00 00              add         byte ptr [rax],al
  0000000140005DCD: 00 00              add         byte ptr [rax],al
  0000000140005DCF: 00 42 12           add         byte ptr [rdx+12h],al
  0000000140005DD2: 00 00              add         byte ptr [rax],al
  0000000140005DD4: 00 00              add         byte ptr [rax],al
  0000000140005DD6: 00 00              add         byte ptr [rax],al
  0000000140005DD8: 42 12 00           adc         al,byte ptr [rax]
  0000000140005DDB: 00 00              add         byte ptr [rax],al
  0000000140005DDD: 00 00              add         byte ptr [rax],al
  0000000140005DDF: 00 42 12           add         byte ptr [rdx+12h],al
  0000000140005DE2: 00 00              add         byte ptr [rax],al
  0000000140005DE4: 00 00              add         byte ptr [rax],al
  0000000140005DE6: 00 00              add         byte ptr [rax],al
  0000000140005DE8: 42 12 00           adc         al,byte ptr [rax]
  0000000140005DEB: 00 00              add         byte ptr [rax],al
  0000000140005DED: 00 00              add         byte ptr [rax],al
  0000000140005DEF: 00 42 12           add         byte ptr [rdx+12h],al
  0000000140005DF2: 00 00              add         byte ptr [rax],al
  0000000140005DF4: 00 00              add         byte ptr [rax],al
  0000000140005DF6: 00 00              add         byte ptr [rax],al
  0000000140005DF8: 42 12 00           adc         al,byte ptr [rax]
  0000000140005DFB: 00 00              add         byte ptr [rax],al
  0000000140005DFD: 00 00              add         byte ptr [rax],al
  0000000140005DFF: 00 42 12           add         byte ptr [rdx+12h],al
  0000000140005E02: 00 00              add         byte ptr [rax],al
  0000000140005E04: 00 00              add         byte ptr [rax],al
  0000000140005E06: 00 00              add         byte ptr [rax],al
  0000000140005E08: 42 12 00           adc         al,byte ptr [rax]
  0000000140005E0B: 00 00              add         byte ptr [rax],al
  0000000140005E0D: 00 00              add         byte ptr [rax],al
  0000000140005E0F: 00 42 12           add         byte ptr [rdx+12h],al
  0000000140005E12: 00 00              add         byte ptr [rax],al
  0000000140005E14: 00 00              add         byte ptr [rax],al
  0000000140005E16: 00 00              add         byte ptr [rax],al
  0000000140005E18: 42 12 00           adc         al,byte ptr [rax]
  0000000140005E1B: 00 00              add         byte ptr [rax],al
  0000000140005E1D: 00 00              add         byte ptr [rax],al
  0000000140005E1F: 00 42 12           add         byte ptr [rdx+12h],al
  0000000140005E22: 00 00              add         byte ptr [rax],al
  0000000140005E24: 00 00              add         byte ptr [rax],al
  0000000140005E26: 00 00              add         byte ptr [rax],al
  0000000140005E28: 42 12 00           adc         al,byte ptr [rax]
  0000000140005E2B: 00 00              add         byte ptr [rax],al
  0000000140005E2D: 00 00              add         byte ptr [rax],al
  0000000140005E2F: 00 42 12           add         byte ptr [rdx+12h],al
  0000000140005E32: 00 00              add         byte ptr [rax],al
  0000000140005E34: 00 00              add         byte ptr [rax],al
  0000000140005E36: 00 00              add         byte ptr [rax],al
  0000000140005E38: 42 12 00           adc         al,byte ptr [rax]
  0000000140005E3B: 00 00              add         byte ptr [rax],al
  0000000140005E3D: 00 00              add         byte ptr [rax],al
  0000000140005E3F: 00 42 12           add         byte ptr [rdx+12h],al
  0000000140005E42: 00 00              add         byte ptr [rax],al
  0000000140005E44: 00 00              add         byte ptr [rax],al
  0000000140005E46: 00 00              add         byte ptr [rax],al
  0000000140005E48: 42 12 00           adc         al,byte ptr [rax]
  0000000140005E4B: 00 00              add         byte ptr [rax],al
  0000000140005E4D: 00 00              add         byte ptr [rax],al
  0000000140005E4F: 00 42 12           add         byte ptr [rdx+12h],al
  0000000140005E52: 00 00              add         byte ptr [rax],al
  0000000140005E54: 00 00              add         byte ptr [rax],al
  0000000140005E56: 00 00              add         byte ptr [rax],al
  0000000140005E58: 42 12 00           adc         al,byte ptr [rax]
  0000000140005E5B: 00 00              add         byte ptr [rax],al
  0000000140005E5D: 00 00              add         byte ptr [rax],al
  0000000140005E5F: 00 42 12           add         byte ptr [rdx+12h],al
  0000000140005E62: 00 00              add         byte ptr [rax],al
  0000000140005E64: 00 00              add         byte ptr [rax],al
  0000000140005E66: 00 00              add         byte ptr [rax],al
  0000000140005E68: 42 12 00           adc         al,byte ptr [rax]
  0000000140005E6B: 00 00              add         byte ptr [rax],al
  0000000140005E6D: 00 00              add         byte ptr [rax],al
  0000000140005E6F: 00 42 12           add         byte ptr [rdx+12h],al
  0000000140005E72: 00 00              add         byte ptr [rax],al
  0000000140005E74: 00 00              add         byte ptr [rax],al
  0000000140005E76: 00 00              add         byte ptr [rax],al
  0000000140005E78: 42 12 00           adc         al,byte ptr [rax]
  0000000140005E7B: 00 00              add         byte ptr [rax],al
  0000000140005E7D: 00 00              add         byte ptr [rax],al
  0000000140005E7F: 00 42 12           add         byte ptr [rdx+12h],al
  0000000140005E82: 00 00              add         byte ptr [rax],al
  0000000140005E84: 00 00              add         byte ptr [rax],al
  0000000140005E86: 00 00              add         byte ptr [rax],al
  0000000140005E88: 42 12 00           adc         al,byte ptr [rax]
  0000000140005E8B: 00 00              add         byte ptr [rax],al
  0000000140005E8D: 00 00              add         byte ptr [rax],al
  0000000140005E8F: 00 42 12           add         byte ptr [rdx+12h],al
  0000000140005E92: 00 00              add         byte ptr [rax],al
  0000000140005E94: 00 00              add         byte ptr [rax],al
  0000000140005E96: 00 00              add         byte ptr [rax],al
  0000000140005E98: 42 12 00           adc         al,byte ptr [rax]
  0000000140005E9B: 00 00              add         byte ptr [rax],al
  0000000140005E9D: 00 00              add         byte ptr [rax],al
  0000000140005E9F: 00 42 12           add         byte ptr [rdx+12h],al
  0000000140005EA2: 00 00              add         byte ptr [rax],al
  0000000140005EA4: 00 00              add         byte ptr [rax],al
  0000000140005EA6: 00 00              add         byte ptr [rax],al
  0000000140005EA8: 42 12 00           adc         al,byte ptr [rax]
  0000000140005EAB: 00 00              add         byte ptr [rax],al
  0000000140005EAD: 00 00              add         byte ptr [rax],al
  0000000140005EAF: 00 42 12           add         byte ptr [rdx+12h],al
  0000000140005EB2: 00 00              add         byte ptr [rax],al
  0000000140005EB4: 00 00              add         byte ptr [rax],al
  0000000140005EB6: 00 00              add         byte ptr [rax],al
  0000000140005EB8: 42 12 00           adc         al,byte ptr [rax]
  0000000140005EBB: 00 00              add         byte ptr [rax],al
  0000000140005EBD: 00 00              add         byte ptr [rax],al
  0000000140005EBF: 00 42 12           add         byte ptr [rdx+12h],al
  0000000140005EC2: 00 00              add         byte ptr [rax],al
  0000000140005EC4: 00 00              add         byte ptr [rax],al
  0000000140005EC6: 00 00              add         byte ptr [rax],al
  0000000140005EC8: 42 12 00           adc         al,byte ptr [rax]
  0000000140005ECB: 00 00              add         byte ptr [rax],al
  0000000140005ECD: 00 00              add         byte ptr [rax],al
  0000000140005ECF: 00 42 12           add         byte ptr [rdx+12h],al
  0000000140005ED2: 00 00              add         byte ptr [rax],al
  0000000140005ED4: 00 00              add         byte ptr [rax],al
  0000000140005ED6: 00 00              add         byte ptr [rax],al
  0000000140005ED8: 42 12 00           adc         al,byte ptr [rax]
  0000000140005EDB: 00 00              add         byte ptr [rax],al
  0000000140005EDD: 00 00              add         byte ptr [rax],al
  0000000140005EDF: 00 42 12           add         byte ptr [rdx+12h],al
  0000000140005EE2: 00 00              add         byte ptr [rax],al
  0000000140005EE4: 00 00              add         byte ptr [rax],al
  0000000140005EE6: 00 00              add         byte ptr [rax],al
  0000000140005EE8: 42 12 00           adc         al,byte ptr [rax]
  0000000140005EEB: 00 00              add         byte ptr [rax],al
  0000000140005EED: 00 00              add         byte ptr [rax],al
  0000000140005EEF: 00 42 12           add         byte ptr [rdx+12h],al
  0000000140005EF2: 00 00              add         byte ptr [rax],al
  0000000140005EF4: 00 00              add         byte ptr [rax],al
  0000000140005EF6: 00 00              add         byte ptr [rax],al
  0000000140005EF8: 42 12 00           adc         al,byte ptr [rax]
  0000000140005EFB: 00 00              add         byte ptr [rax],al
  0000000140005EFD: 00 00              add         byte ptr [rax],al
  0000000140005EFF: 00 42 12           add         byte ptr [rdx+12h],al
  0000000140005F02: 00 00              add         byte ptr [rax],al
  0000000140005F04: 00 00              add         byte ptr [rax],al
  0000000140005F06: 00 00              add         byte ptr [rax],al
  0000000140005F08: 42 12 00           adc         al,byte ptr [rax]
  0000000140005F0B: 00 00              add         byte ptr [rax],al
  0000000140005F0D: 00 00              add         byte ptr [rax],al
  0000000140005F0F: 00 42 12           add         byte ptr [rdx+12h],al
  0000000140005F12: 00 00              add         byte ptr [rax],al
  0000000140005F14: 00 00              add         byte ptr [rax],al
  0000000140005F16: 00 00              add         byte ptr [rax],al
  0000000140005F18: 42 12 00           adc         al,byte ptr [rax]
  0000000140005F1B: 00 00              add         byte ptr [rax],al
  0000000140005F1D: 00 00              add         byte ptr [rax],al
  0000000140005F1F: 00 42 12           add         byte ptr [rdx+12h],al
  0000000140005F22: 00 00              add         byte ptr [rax],al
  0000000140005F24: 00 00              add         byte ptr [rax],al
  0000000140005F26: 00 00              add         byte ptr [rax],al
  0000000140005F28: 42 12 00           adc         al,byte ptr [rax]
  0000000140005F2B: 00 00              add         byte ptr [rax],al
  0000000140005F2D: 00 00              add         byte ptr [rax],al
  0000000140005F2F: 00 42 12           add         byte ptr [rdx+12h],al
  0000000140005F32: 00 00              add         byte ptr [rax],al
  0000000140005F34: 00 00              add         byte ptr [rax],al
  0000000140005F36: 00 00              add         byte ptr [rax],al
  0000000140005F38: 42 12 00           adc         al,byte ptr [rax]
  0000000140005F3B: 00 00              add         byte ptr [rax],al
  0000000140005F3D: 00 00              add         byte ptr [rax],al
  0000000140005F3F: 00 42 12           add         byte ptr [rdx+12h],al
  0000000140005F42: 00 00              add         byte ptr [rax],al
  0000000140005F44: 00 00              add         byte ptr [rax],al
  0000000140005F46: 00 00              add         byte ptr [rax],al
  0000000140005F48: 42 12 00           adc         al,byte ptr [rax]
  0000000140005F4B: 00 00              add         byte ptr [rax],al
  0000000140005F4D: 00 00              add         byte ptr [rax],al
  0000000140005F4F: 00 42 12           add         byte ptr [rdx+12h],al
  0000000140005F52: 00 00              add         byte ptr [rax],al
  0000000140005F54: 00 00              add         byte ptr [rax],al
  0000000140005F56: 00 00              add         byte ptr [rax],al
  0000000140005F58: 42 12 00           adc         al,byte ptr [rax]
  0000000140005F5B: 00 00              add         byte ptr [rax],al
  0000000140005F5D: 00 00              add         byte ptr [rax],al
  0000000140005F5F: 00 42 12           add         byte ptr [rdx+12h],al
  0000000140005F62: 00 00              add         byte ptr [rax],al
  0000000140005F64: 00 00              add         byte ptr [rax],al
  0000000140005F66: 00 00              add         byte ptr [rax],al
  0000000140005F68: 42 12 00           adc         al,byte ptr [rax]
  0000000140005F6B: 00 00              add         byte ptr [rax],al
  0000000140005F6D: 00 00              add         byte ptr [rax],al
  0000000140005F6F: 00 42 12           add         byte ptr [rdx+12h],al
  0000000140005F72: 00 00              add         byte ptr [rax],al
  0000000140005F74: 00 00              add         byte ptr [rax],al
  0000000140005F76: 00 00              add         byte ptr [rax],al
  0000000140005F78: 42 12 00           adc         al,byte ptr [rax]
  0000000140005F7B: 00 00              add         byte ptr [rax],al
  0000000140005F7D: 00 00              add         byte ptr [rax],al
  0000000140005F7F: 00 42 12           add         byte ptr [rdx+12h],al
  0000000140005F82: 00 00              add         byte ptr [rax],al
  0000000140005F84: 00 00              add         byte ptr [rax],al
  0000000140005F86: 00 00              add         byte ptr [rax],al
  0000000140005F88: 42 12 00           adc         al,byte ptr [rax]
  0000000140005F8B: 00 00              add         byte ptr [rax],al
  0000000140005F8D: 00 00              add         byte ptr [rax],al
  0000000140005F8F: 00 42 12           add         byte ptr [rdx+12h],al
  0000000140005F92: 00 00              add         byte ptr [rax],al
  0000000140005F94: 00 00              add         byte ptr [rax],al
  0000000140005F96: 00 00              add         byte ptr [rax],al
  0000000140005F98: 42 12 00           adc         al,byte ptr [rax]
  0000000140005F9B: 00 00              add         byte ptr [rax],al
  0000000140005F9D: 00 00              add         byte ptr [rax],al
  0000000140005F9F: 00 42 12           add         byte ptr [rdx+12h],al
  0000000140005FA2: 00 00              add         byte ptr [rax],al
  0000000140005FA4: 00 00              add         byte ptr [rax],al
  0000000140005FA6: 00 00              add         byte ptr [rax],al
  0000000140005FA8: 42 12 00           adc         al,byte ptr [rax]
  0000000140005FAB: 00 00              add         byte ptr [rax],al
  0000000140005FAD: 00 00              add         byte ptr [rax],al
  0000000140005FAF: 00 42 12           add         byte ptr [rdx+12h],al
  0000000140005FB2: 00 00              add         byte ptr [rax],al
  0000000140005FB4: 00 00              add         byte ptr [rax],al
  0000000140005FB6: 00 00              add         byte ptr [rax],al
  0000000140005FB8: 42 12 00           adc         al,byte ptr [rax]
  0000000140005FBB: 00 00              add         byte ptr [rax],al
  0000000140005FBD: 00 00              add         byte ptr [rax],al
  0000000140005FBF: 00 48 89           add         byte ptr [rax-77h],cl
  0000000140005FC2: C8 C3 0F 1F        enter       0FC3h,1Fh
  0000000140005FC6: 44 00 00           add         byte ptr [rax],r8b
  0000000140005FC9: 0F 1F 80 00 00 00  nop         dword ptr [rax+0000000000000000h]
                    00
  0000000140005FD0: 90                 nop
  0000000140005FD1: 90                 nop
  0000000140005FD2: 90                 nop
  0000000140005FD3: 90                 nop
  0000000140005FD4: 90                 nop
  0000000140005FD5: 90                 nop
  0000000140005FD6: 90                 nop
  0000000140005FD7: 90                 nop
  0000000140005FD8: 90                 nop
  0000000140005FD9: 90                 nop
  0000000140005FDA: 90                 nop
  0000000140005FDB: 90                 nop
  0000000140005FDC: 90                 nop
  0000000140005FDD: 90                 nop
  0000000140005FDE: 90                 nop
  0000000140005FDF: 90                 nop
  0000000140005FE0: 90                 nop
  0000000140005FE1: 90                 nop
  0000000140005FE2: 90                 nop
  0000000140005FE3: 90                 nop
  0000000140005FE4: 90                 nop
  0000000140005FE5: 90                 nop
  0000000140005FE6: 90                 nop
  0000000140005FE7: 90                 nop
  0000000140005FE8: 90                 nop
  0000000140005FE9: 90                 nop
  0000000140005FEA: 90                 nop
  0000000140005FEB: 90                 nop
  0000000140005FEC: 90                 nop
  0000000140005FED: 90                 nop
  0000000140005FEE: 90                 nop
  0000000140005FEF: 90                 nop
  0000000140005FF0: 90                 nop
  0000000140005FF1: 90                 nop
  0000000140005FF2: 90                 nop
  0000000140005FF3: 90                 nop
  0000000140005FF4: 90                 nop
  0000000140005FF5: 90                 nop
  0000000140005FF6: 90                 nop
  0000000140005FF7: 90                 nop
  0000000140005FF8: 90                 nop
  0000000140005FF9: 90                 nop
  0000000140005FFA: 90                 nop
  0000000140005FFB: 90                 nop
  0000000140005FFC: 90                 nop
  0000000140005FFD: 90                 nop
  0000000140005FFE: 90                 nop
  0000000140005FFF: 90                 nop
  0000000140006000: 55                 push        rbp
  0000000140006001: 53                 push        rbx
  0000000140006002: 41 57              push        r15
  0000000140006004: 48 81 EC A0 01 00  sub         rsp,1A0h
                    00
  000000014000600B: 48 8D 6C 24 20     lea         rbp,[rsp+20h]
  0000000140006010: 45 33 DB           xor         r11d,r11d
  0000000140006013: 48 8B 05 0E 60 00  mov         rax,qword ptr [000000014000C028h]
                    00
  000000014000601A: 45 33 FF           xor         r15d,r15d
  000000014000601D: 48 33 C5           xor         rax,rbp
  0000000140006020: 45 33 C9           xor         r9d,r9d
  0000000140006023: 48 89 85 78 01 00  mov         qword ptr [rbp+0000000000000178h],rax
                    00
  000000014000602A: 83 3D 1B 76 00 00  cmp         dword ptr [000000014000D64Ch],0
                    00
  0000000140006031: 0F 84 E2 02 00 00  je          0000000140006319
  0000000140006037: 83 3D 02 76 00 00  cmp         dword ptr [000000014000D640h],0
                    00
  000000014000603E: 0F 84 0E 01 00 00  je          0000000140006152
  0000000140006044: 83 3D F9 75 00 00  cmp         dword ptr [000000014000D644h],0
                    00
  000000014000604B: 76 3A              jbe         0000000140006087
  000000014000604D: 53                 push        rbx
  000000014000604E: B8 01 00 00 00     mov         eax,1
  0000000140006053: 0F A2              cpuid
  0000000140006055: 89 5D 7C           mov         dword ptr [rbp+7Ch],ebx
  0000000140006058: 89 95 84 00 00 00  mov         dword ptr [rbp+0000000000000084h],edx
  000000014000605E: 89 85 94 00 00 00  mov         dword ptr [rbp+0000000000000094h],eax
  0000000140006064: 5B                 pop         rbx
  0000000140006065: 8B 85 84 00 00 00  mov         eax,dword ptr [rbp+0000000000000084h]
  000000014000606B: A9 00 00 00 04     test        eax,4000000h
  0000000140006070: 74 08              je          000000014000607A
  0000000140006072: 41 BF 02 00 00 00  mov         r15d,2
  0000000140006078: EB 0D              jmp         0000000140006087
  000000014000607A: A9 00 00 80 00     test        eax,800000h
  000000014000607F: 74 06              je          0000000140006087
  0000000140006081: 41 BF 01 00 00 00  mov         r15d,1
  0000000140006087: 8B 05 C3 75 00 00  mov         eax,dword ptr [000000014000D650h]
  000000014000608D: 89 C2              mov         edx,eax
  000000014000608F: 48 85 D2           test        rdx,rdx
  0000000140006092: 76 12              jbe         00000001400060A6
  0000000140006094: 44 8B 0D B9 75 00  mov         r9d,dword ptr [000000014000D654h]
                    00
  000000014000609B: 49 89 D3           mov         r11,rdx
  000000014000609E: 44 0F AF 0D B2 75  imul        r9d,dword ptr [000000014000D658h]
                    00 00
  00000001400060A6: 8B 15 B4 75 00 00  mov         edx,dword ptr [000000014000D660h]
  00000001400060AC: 49 3B D3           cmp         rdx,r11
  00000001400060AF: 76 12              jbe         00000001400060C3
  00000001400060B1: 44 8B 0D AC 75 00  mov         r9d,dword ptr [000000014000D664h]
                    00
  00000001400060B8: 49 89 D3           mov         r11,rdx
  00000001400060BB: 44 0F AF 0D A5 75  imul        r9d,dword ptr [000000014000D668h]
                    00 00
  00000001400060C3: 8B 15 A7 75 00 00  mov         edx,dword ptr [000000014000D670h]
  00000001400060C9: 49 3B D3           cmp         rdx,r11
  00000001400060CC: 76 12              jbe         00000001400060E0
  00000001400060CE: 44 8B 0D 9F 75 00  mov         r9d,dword ptr [000000014000D674h]
                    00
  00000001400060D5: 49 89 D3           mov         r11,rdx
  00000001400060D8: 44 0F AF 0D 98 75  imul        r9d,dword ptr [000000014000D678h]
                    00 00
  00000001400060E0: 85 C0              test        eax,eax
  00000001400060E2: 0F 84 DC 01 00 00  je          00000001400062C4
  00000001400060E8: C1 E0 0A           shl         eax,0Ah
  00000001400060EB: 49 C1 E3 0A        shl         r11,0Ah
  00000001400060EF: 48 89 C2           mov         rdx,rax
  00000001400060F2: 48 89 C1           mov         rcx,rax
  00000001400060F5: 48 8D 1C 40        lea         rbx,[rax+rax*2]
  00000001400060F9: 4C 89 1D 40 67 00  mov         qword ptr [000000014000C840h],r11
                    00
  0000000140006100: 48 03 DB           add         rbx,rbx
  0000000140006103: 49 D1 EB           shr         r11,1
  0000000140006106: 48 D1 EA           shr         rdx,1
  0000000140006109: 48 C1 E9 02        shr         rcx,2
  000000014000610D: 4C 89 1D 34 67 00  mov         qword ptr [000000014000C848h],r11
                    00
  0000000140006114: 48 89 05 35 67 00  mov         qword ptr [000000014000C850h],rax
                    00
  000000014000611B: 48 89 15 36 67 00  mov         qword ptr [000000014000C858h],rdx
                    00
  0000000140006122: 48 89 0D 37 67 00  mov         qword ptr [000000014000C860h],rcx
                    00
  0000000140006129: 4C 89 0D 50 75 00  mov         qword ptr [000000014000D680h],r9
                    00
  0000000140006130: 48 C7 05 2D 67 00  mov         qword ptr [000000014000C868h],2000h
                    00 00 20 00 00
  000000014000613B: 48 89 1D 2E 67 00  mov         qword ptr [000000014000C870h],rbx
                    00
  0000000140006142: 48 C7 05 2B 67 00  mov         qword ptr [000000014000C878h],800h
                    00 00 08 00 00
  000000014000614D: E9 3A 01 00 00     jmp         000000014000628C
  0000000140006152: 33 D2              xor         edx,edx
  0000000140006154: 48 B8 41 75 74 68  mov         rax,69746E6568747541h
                    65 6E 74 69
  000000014000615E: 4C 8D 4D 28        lea         r9,[rbp+28h]
  0000000140006162: 48 89 45 38        mov         qword ptr [rbp+38h],rax
  0000000140006166: C7 45 40 63 41 4D  mov         dword ptr [rbp+40h],444D4163h
                    44
  000000014000616D: 88 55 44           mov         byte ptr [rbp+44h],dl
  0000000140006170: 41 89 51 68        mov         dword ptr [r9+68h],edx
  0000000140006174: 4D 89 49 60        mov         qword ptr [r9+60h],r9
  0000000140006178: 50                 push        rax
  0000000140006179: 53                 push        rbx
  000000014000617A: 51                 push        rcx
  000000014000617B: 52                 push        rdx
  000000014000617C: 4C 8B 85 88 00 00  mov         r8,qword ptr [rbp+0000000000000088h]
                    00
  0000000140006183: 8B 85 90 00 00 00  mov         eax,dword ptr [rbp+0000000000000090h]
  0000000140006189: 0F A2              cpuid
  000000014000618B: 41 89 00           mov         dword ptr [r8],eax
  000000014000618E: 41 89 58 04        mov         dword ptr [r8+4],ebx
  0000000140006192: 41 89 48 08        mov         dword ptr [r8+8],ecx
  0000000140006196: 41 89 50 0C        mov         dword ptr [r8+0Ch],edx
  000000014000619A: 5A                 pop         rdx
  000000014000619B: 59                 pop         rcx
  000000014000619C: 5B                 pop         rbx
  000000014000619D: 58                 pop         rax
  000000014000619E: 8B 45 38           mov         eax,dword ptr [rbp+38h]
  00000001400061A1: 3B 45 2C           cmp         eax,dword ptr [rbp+2Ch]
  00000001400061A4: 0F 85 E2 00 00 00  jne         000000014000628C
  00000001400061AA: 8B 45 3C           mov         eax,dword ptr [rbp+3Ch]
  00000001400061AD: 3B 45 34           cmp         eax,dword ptr [rbp+34h]
  00000001400061B0: 0F 85 D6 00 00 00  jne         000000014000628C
  00000001400061B6: 8B 45 40           mov         eax,dword ptr [rbp+40h]
  00000001400061B9: 3B 45 30           cmp         eax,dword ptr [rbp+30h]
  00000001400061BC: 0F 85 CA 00 00 00  jne         000000014000628C
  00000001400061C2: C7 45 78 01 00 00  mov         dword ptr [rbp+78h],1
                    00
  00000001400061C9: 4C 89 4D 60        mov         qword ptr [rbp+60h],r9
  00000001400061CD: 50                 push        rax
  00000001400061CE: 53                 push        rbx
  00000001400061CF: 51                 push        rcx
  00000001400061D0: 52                 push        rdx
  00000001400061D1: 4C 8B 45 60        mov         r8,qword ptr [rbp+60h]
  00000001400061D5: 8B 45 78           mov         eax,dword ptr [rbp+78h]
  00000001400061D8: 0F A2              cpuid
  00000001400061DA: 41 89 00           mov         dword ptr [r8],eax
  00000001400061DD: 41 89 58 04        mov         dword ptr [r8+4],ebx
  00000001400061E1: 41 89 48 08        mov         dword ptr [r8+8],ecx
  00000001400061E5: 41 89 50 0C        mov         dword ptr [r8+0Ch],edx
  00000001400061E9: 5A                 pop         rdx
  00000001400061EA: 59                 pop         rcx
  00000001400061EB: 5B                 pop         rbx
  00000001400061EC: 58                 pop         rax
  00000001400061ED: F7 45 34 00 00 80  test        dword ptr [rbp+34h],800000h
                    00
  00000001400061F4: 74 06              je          00000001400061FC
  00000001400061F6: 41 BF 01 00 00 00  mov         r15d,1
  00000001400061FC: C7 85 80 00 00 00  mov         dword ptr [rbp+0000000000000080h],80000000h
                    00 00 00 80
  0000000140006206: 4C 89 4D 68        mov         qword ptr [rbp+68h],r9
  000000014000620A: 50                 push        rax
  000000014000620B: 53                 push        rbx
  000000014000620C: 51                 push        rcx
  000000014000620D: 52                 push        rdx
  000000014000620E: 4C 8B 45 68        mov         r8,qword ptr [rbp+68h]
  0000000140006212: 8B 85 80 00 00 00  mov         eax,dword ptr [rbp+0000000000000080h]
  0000000140006218: 0F A2              cpuid
  000000014000621A: 41 89 00           mov         dword ptr [r8],eax
  000000014000621D: 41 89 58 04        mov         dword ptr [r8+4],ebx
  0000000140006221: 41 89 48 08        mov         dword ptr [r8+8],ecx
  0000000140006225: 41 89 50 0C        mov         dword ptr [r8+0Ch],edx
  0000000140006229: 5A                 pop         rdx
  000000014000622A: 59                 pop         rcx
  000000014000622B: 5B                 pop         rbx
  000000014000622C: 58                 pop         rax
  000000014000622D: 81 7D 28 06 00 00  cmp         dword ptr [rbp+28h],80000006h
                    80
  0000000140006234: 72 56              jb          000000014000628C
  0000000140006236: C7 45 50 06 00 00  mov         dword ptr [rbp+50h],80000006h
                    80
  000000014000623D: 4C 89 4D 48        mov         qword ptr [rbp+48h],r9
  0000000140006241: 50                 push        rax
  0000000140006242: 53                 push        rbx
  0000000140006243: 51                 push        rcx
  0000000140006244: 52                 push        rdx
  0000000140006245: 4C 8B 45 48        mov         r8,qword ptr [rbp+48h]
  0000000140006249: 8B 45 50           mov         eax,dword ptr [rbp+50h]
  000000014000624C: 0F A2              cpuid
  000000014000624E: 41 89 00           mov         dword ptr [r8],eax
  0000000140006251: 41 89 58 04        mov         dword ptr [r8+4],ebx
  0000000140006255: 41 89 48 08        mov         dword ptr [r8+8],ecx
  0000000140006259: 41 89 50 0C        mov         dword ptr [r8+0Ch],edx
  000000014000625D: 5A                 pop         rdx
  000000014000625E: 59                 pop         rcx
  000000014000625F: 5B                 pop         rbx
  0000000140006260: 58                 pop         rax
  0000000140006261: 0F B7 45 32        movzx       eax,word ptr [rbp+32h]
  0000000140006265: 48 C1 E0 0A        shl         rax,0Ah
  0000000140006269: 48 8B 15 E0 65 00  mov         rdx,qword ptr [000000014000C850h]
                    00
  0000000140006270: 48 89 05 C9 65 00  mov         qword ptr [000000014000C840h],rax
                    00
  0000000140006277: 48 D1 E8           shr         rax,1
  000000014000627A: 48 C1 EA 02        shr         rdx,2
  000000014000627E: 48 89 05 C3 65 00  mov         qword ptr [000000014000C848h],rax
                    00
  0000000140006285: 48 89 15 D4 65 00  mov         qword ptr [000000014000C860h],rdx
                    00
  000000014000628C: 44 89 3D F9 73 00  mov         dword ptr [000000014000D68Ch],r15d
                    00
  0000000140006293: 44 89 3D EE 73 00  mov         dword ptr [000000014000D688h],r15d
                    00
  000000014000629A: 48 8B 8D 78 01 00  mov         rcx,qword ptr [rbp+0000000000000178h]
                    00
  00000001400062A1: 48 C7 85 78 01 00  mov         qword ptr [rbp+0000000000000178h],0
                    00 00 00 00 00
  00000001400062AC: 48 33 CD           xor         rcx,rbp
  00000001400062AF: 48 3B 0D 72 5D 00  cmp         rcx,qword ptr [000000014000C028h]
                    00
  00000001400062B6: 75 5C              jne         0000000140006314
  00000001400062B8: 48 8D A5 80 01 00  lea         rsp,[rbp+0000000000000180h]
                    00
  00000001400062BF: 41 5F              pop         r15
  00000001400062C1: 5B                 pop         rbx
  00000001400062C2: 5D                 pop         rbp
  00000001400062C3: C3                 ret
  00000001400062C4: 48 8D 0D D1 45 00  lea         rcx,[000000014000A89Ch]
                    00
  00000001400062CB: E8 4C 1C 00 00     call        0000000140007F1C
  00000001400062D0: 48 85 C0           test        rax,rax
  00000001400062D3: 74 B7              je          000000014000628C
  00000001400062D5: 80 38 00           cmp         byte ptr [rax],0
  00000001400062D8: 74 B2              je          000000014000628C
  00000001400062DA: 33 D2              xor         edx,edx
  00000001400062DC: B9 01 00 00 00     mov         ecx,1
  00000001400062E1: 45 33 C0           xor         r8d,r8d
  00000001400062E4: E8 B7 CF FF FF     call        00000001400032A0
  00000001400062E9: B9 01 00 00 00     mov         ecx,1
  00000001400062EE: BA 3D 00 00 00     mov         edx,3Dh
  00000001400062F3: 45 33 C0           xor         r8d,r8d
  00000001400062F6: E8 A5 CF FF FF     call        00000001400032A0
  00000001400062FB: 33 D2              xor         edx,edx
  00000001400062FD: B9 01 00 00 00     mov         ecx,1
  0000000140006302: 45 33 C0           xor         r8d,r8d
  0000000140006305: E8 96 CF FF FF     call        00000001400032A0
  000000014000630A: B9 01 00 00 00     mov         ecx,1
  000000014000630F: E8 A2 1B 00 00     call        0000000140007EB6
  0000000140006314: E8 37 1C 00 00     call        0000000140007F50
  0000000140006319: C7 45 74 00 00 00  mov         dword ptr [rbp+74h],0
                    00
  0000000140006320: 50                 push        rax
  0000000140006321: 51                 push        rcx
  0000000140006322: 9C                 pushfq
  0000000140006323: 58                 pop         rax
  0000000140006324: 89 C1              mov         ecx,eax
  0000000140006326: 35 00 00 20 00     xor         eax,200000h
  000000014000632B: 50                 push        rax
  000000014000632C: 9D                 popfq
  000000014000632D: 9C                 pushfq
  000000014000632E: 58                 pop         rax
  000000014000632F: 3B C1              cmp         eax,ecx
  0000000140006331: 74 08              je          000000014000633B
  0000000140006333: C7 45 74 01 00 00  mov         dword ptr [rbp+74h],1
                    00
  000000014000633A: 51                 push        rcx
  000000014000633B: 9D                 popfq
  000000014000633C: 59                 pop         rcx
  000000014000633D: 58                 pop         rax
  000000014000633E: 83 7D 74 00        cmp         dword ptr [rbp+74h],0
  0000000140006342: 0F 84 7D 03 00 00  je          00000001400066C5
  0000000140006348: 33 C9              xor         ecx,ecx
  000000014000634A: 48 8D 45 54        lea         rax,[rbp+54h]
  000000014000634E: 48 BA 47 65 6E 75  mov         rdx,49656E69756E6547h
                    69 6E 65 49
  0000000140006358: 48 89 45 58        mov         qword ptr [rbp+58h],rax
  000000014000635C: 48 89 95 68 01 00  mov         qword ptr [rbp+0000000000000168h],rdx
                    00
  0000000140006363: 48 C7 85 70 01 00  mov         qword ptr [rbp+0000000000000170h],6C65746Eh
                    00 6E 74 65 6C
  000000014000636E: 89 4D 70           mov         dword ptr [rbp+70h],ecx
  0000000140006371: 89 08              mov         dword ptr [rax],ecx
  0000000140006373: 50                 push        rax
  0000000140006374: 53                 push        rbx
  0000000140006375: 51                 push        rcx
  0000000140006376: 52                 push        rdx
  0000000140006377: B8 00 00 00 00     mov         eax,0
  000000014000637C: 0F A2              cpuid
  000000014000637E: 39 9D 68 01 00 00  cmp         dword ptr [rbp+0000000000000168h],ebx
  0000000140006384: 75 1D              jne         00000001400063A3
  0000000140006386: 39 95 6C 01 00 00  cmp         dword ptr [rbp+000000000000016Ch],edx
  000000014000638C: 75 15              jne         00000001400063A3
  000000014000638E: 39 8D 70 01 00 00  cmp         dword ptr [rbp+0000000000000170h],ecx
  0000000140006394: 75 0D              jne         00000001400063A3
  0000000140006396: C7 45 70 01 00 00  mov         dword ptr [rbp+70h],1
                    00
  000000014000639D: 48 8B 55 58        mov         rdx,qword ptr [rbp+58h]
  00000001400063A1: 89 02              mov         dword ptr [rdx],eax
  00000001400063A3: 5A                 pop         rdx
  00000001400063A4: 59                 pop         rcx
  00000001400063A5: 5B                 pop         rbx
  00000001400063A6: 58                 pop         rax
  00000001400063A7: 8B 45 70           mov         eax,dword ptr [rbp+70h]
  00000001400063AA: 8B 55 54           mov         edx,dword ptr [rbp+54h]
  00000001400063AD: 89 05 8D 72 00 00  mov         dword ptr [000000014000D640h],eax
  00000001400063B3: 89 15 8B 72 00 00  mov         dword ptr [000000014000D644h],edx
  00000001400063B9: 83 FA 04           cmp         edx,4
  00000001400063BC: 0F 8C 3A 01 00 00  jl          00000001400064FC
  00000001400063C2: C7 45 0C 00 00 00  mov         dword ptr [rbp+0Ch],0
                    00
  00000001400063C9: 48 8D 85 A8 00 00  lea         rax,[rbp+00000000000000A8h]
                    00
  00000001400063D0: 48 89 45 20        mov         qword ptr [rbp+20h],rax
  00000001400063D4: 48 89 7D 40        mov         qword ptr [rbp+40h],rdi
  00000001400063D8: 50                 push        rax
  00000001400063D9: 53                 push        rbx
  00000001400063DA: 51                 push        rcx
  00000001400063DB: 52                 push        rdx
  00000001400063DC: 57                 push        rdi
  00000001400063DD: 4C 8B 45 20        mov         r8,qword ptr [rbp+20h]
  00000001400063E1: BF 00 00 00 00     mov         edi,0
  00000001400063E6: 89 F9              mov         ecx,edi
  00000001400063E8: B8 04 00 00 00     mov         eax,4
  00000001400063ED: 0F A2              cpuid
  00000001400063EF: A9 1F 00 00 00     test        eax,1Fh
  00000001400063F4: 74 1D              je          0000000140006413
  00000001400063F6: 41 89 00           mov         dword ptr [r8],eax
  00000001400063F9: 41 89 58 04        mov         dword ptr [r8+4],ebx
  00000001400063FD: 41 89 48 08        mov         dword ptr [r8+8],ecx
  0000000140006401: 41 89 50 0C        mov         dword ptr [r8+0Ch],edx
  0000000140006405: 83 C7 01           add         edi,1
  0000000140006408: 83 FF 08           cmp         edi,8
  000000014000640B: 7D 06              jge         0000000140006413
  000000014000640D: 49 83 C0 10        add         r8,10h
  0000000140006411: EB D3              jmp         00000001400063E6
  0000000140006413: 89 7D 0C           mov         dword ptr [rbp+0Ch],edi
  0000000140006416: 5F                 pop         rdi
  0000000140006417: 5A                 pop         rdx
  0000000140006418: 59                 pop         rcx
  0000000140006419: 5B                 pop         rbx
  000000014000641A: 58                 pop         rax
  000000014000641B: 45 33 D2           xor         r10d,r10d
  000000014000641E: 4C 63 45 0C        movsxd      r8,dword ptr [rbp+0Ch]
  0000000140006422: 33 DB              xor         ebx,ebx
  0000000140006424: 48 8B 7D 40        mov         rdi,qword ptr [rbp+40h]
  0000000140006428: 4D 85 C0           test        r8,r8
  000000014000642B: 0F 8E CB 00 00 00  jle         00000001400064FC
  0000000140006431: 4C 89 65 28        mov         qword ptr [rbp+28h],r12
  0000000140006435: 4C 89 6D 30        mov         qword ptr [rbp+30h],r13
  0000000140006439: 4C 89 75 38        mov         qword ptr [rbp+38h],r14
  000000014000643D: 8A 94 1D A8 00 00  mov         dl,byte ptr [rbp+rbx+00000000000000A8h]
                    00
  0000000140006444: 88 D0              mov         al,dl
  0000000140006446: 24 1D              and         al,1Dh
  0000000140006448: 3C 01              cmp         al,1
  000000014000644A: 0F 85 90 00 00 00  jne         00000001400064E0
  0000000140006450: 80 E2 E0           and         dl,0E0h
  0000000140006453: 4C 8D 25 A6 9B FF  lea         r12,[0000000140000000h]
                    FF
  000000014000645A: C0 EA 05           shr         dl,5
  000000014000645D: 4D 89 E5           mov         r13,r12
  0000000140006460: 0F B6 D2           movzx       edx,dl
  0000000140006463: 4D 89 EE           mov         r14,r13
  0000000140006466: 48 C1 E2 04        shl         rdx,4
  000000014000646A: 0F B7 8C 1D AC 00  movzx       ecx,word ptr [rbp+rbx+00000000000000ACh]
                    00 00
  0000000140006472: 81 E1 FF 0F 00 00  and         ecx,0FFFh
  0000000140006478: 8B 84 1D AC 00 00  mov         eax,dword ptr [rbp+rbx+00000000000000ACh]
                    00
  000000014000647F: FF C1              inc         ecx
  0000000140006481: 25 00 F0 3F 00     and         eax,3FF000h
  0000000140006486: 41 89 8C 14 44 D6  mov         dword ptr [r12+rdx+000000000000D644h],ecx
                    00 00
  000000014000648E: 44 0F B7 A4 1D AE  movzx       r12d,word ptr [rbp+rbx+00000000000000AEh]
                    00 00 00
  0000000140006497: 41 81 E4 C0 FF 00  and         r12d,0FFC0h
                    00
  000000014000649E: C1 E8 0C           shr         eax,0Ch
  00000001400064A1: 41 C1 EC 06        shr         r12d,6
  00000001400064A5: FF C0              inc         eax
  00000001400064A7: 41 89 84 15 48 D6  mov         dword ptr [r13+rdx+000000000000D648h],eax
                    00 00
  00000001400064AF: 41 FF C4           inc         r12d
  00000001400064B2: 44 8B AC 1D B0 00  mov         r13d,dword ptr [rbp+rbx+00000000000000B0h]
                    00 00
  00000001400064BA: 41 FF C5           inc         r13d
  00000001400064BD: 41 0F AF C4        imul        eax,r12d
  00000001400064C1: 44 0F AF E9        imul        r13d,ecx
  00000001400064C5: 44 0F AF E8        imul        r13d,eax
  00000001400064C9: 4C 89 F0           mov         rax,r14
  00000001400064CC: 41 C1 ED 0A        shr         r13d,0Ah
  00000001400064D0: 45 89 A4 16 4C D6  mov         dword ptr [r14+rdx+000000000000D64Ch],r12d
                    00 00
  00000001400064D8: 44 89 AC 10 40 D6  mov         dword ptr [rax+rdx+000000000000D640h],r13d
                    00 00
  00000001400064E0: 49 FF C2           inc         r10
  00000001400064E3: 48 83 C3 10        add         rbx,10h
  00000001400064E7: 4D 3B D0           cmp         r10,r8
  00000001400064EA: 0F 8C 4D FF FF FF  jl          000000014000643D
  00000001400064F0: 4C 8B 65 28        mov         r12,qword ptr [rbp+28h]
  00000001400064F4: 4C 8B 6D 30        mov         r13,qword ptr [rbp+30h]
  00000001400064F8: 4C 8B 75 38        mov         r14,qword ptr [rbp+38h]
  00000001400064FC: 83 3D 4D 71 00 00  cmp         dword ptr [000000014000D650h],0
                    00
  0000000140006503: 0F 85 BC 01 00 00  jne         00000001400066C5
  0000000140006509: 83 7D 54 02        cmp         dword ptr [rbp+54h],2
  000000014000650D: 0F 8C B2 01 00 00  jl          00000001400066C5
  0000000140006513: 48 8D 85 28 01 00  lea         rax,[rbp+0000000000000128h]
                    00
  000000014000651A: 48 89 45 10        mov         qword ptr [rbp+10h],rax
  000000014000651E: 50                 push        rax
  000000014000651F: 53                 push        rbx
  0000000140006520: 51                 push        rcx
  0000000140006521: 52                 push        rdx
  0000000140006522: 4C 8B 45 10        mov         r8,qword ptr [rbp+10h]
  0000000140006526: B8 02 00 00 00     mov         eax,2
  000000014000652B: 0F A2              cpuid
  000000014000652D: 41 89 00           mov         dword ptr [r8],eax
  0000000140006530: 41 89 58 04        mov         dword ptr [r8+4],ebx
  0000000140006534: 41 89 48 08        mov         dword ptr [r8+8],ecx
  0000000140006538: 41 89 50 0C        mov         dword ptr [r8+0Ch],edx
  000000014000653C: 3C 01              cmp         al,1
  000000014000653E: 7E 4D              jle         000000014000658D
  0000000140006540: 3C 02              cmp         al,2
  0000000140006542: 7E 32              jle         0000000140006576
  0000000140006544: 3C 03              cmp         al,3
  0000000140006546: 7E 17              jle         000000014000655F
  0000000140006548: B8 02 00 00 00     mov         eax,2
  000000014000654D: 0F A2              cpuid
  000000014000654F: 41 89 40 30        mov         dword ptr [r8+30h],eax
  0000000140006553: 41 89 58 34        mov         dword ptr [r8+34h],ebx
  0000000140006557: 41 89 48 38        mov         dword ptr [r8+38h],ecx
  000000014000655B: 41 89 50 3C        mov         dword ptr [r8+3Ch],edx
  000000014000655F: B8 02 00 00 00     mov         eax,2
  0000000140006564: 0F A2              cpuid
  0000000140006566: 41 89 40 20        mov         dword ptr [r8+20h],eax
  000000014000656A: 41 89 58 24        mov         dword ptr [r8+24h],ebx
  000000014000656E: 41 89 48 28        mov         dword ptr [r8+28h],ecx
  0000000140006572: 41 89 50 2C        mov         dword ptr [r8+2Ch],edx
  0000000140006576: B8 02 00 00 00     mov         eax,2
  000000014000657B: 0F A2              cpuid
  000000014000657D: 41 89 40 10        mov         dword ptr [r8+10h],eax
  0000000140006581: 41 89 58 14        mov         dword ptr [r8+14h],ebx
  0000000140006585: 41 89 48 18        mov         dword ptr [r8+18h],ecx
  0000000140006589: 41 89 50 1C        mov         dword ptr [r8+1Ch],edx
  000000014000658D: 5A                 pop         rdx
  000000014000658E: 59                 pop         rcx
  000000014000658F: 5B                 pop         rbx
  0000000140006590: 58                 pop         rax
  0000000140006591: 0F B6 85 28 01 00  movzx       eax,byte ptr [rbp+0000000000000128h]
                    00
  0000000140006598: 83 F8 04           cmp         eax,4
  000000014000659B: 7E 07              jle         00000001400065A4
  000000014000659D: B8 10 00 00 00     mov         eax,10h
  00000001400065A2: EB 0D              jmp         00000001400065B1
  00000001400065A4: 48 C1 E0 02        shl         rax,2
  00000001400065A8: 48 85 C0           test        rax,rax
  00000001400065AB: 0F 8E 14 01 00 00  jle         00000001400066C5
  00000001400065B1: 48 89 75 18        mov         qword ptr [rbp+18h],rsi
  00000001400065B5: 45 33 D2           xor         r10d,r10d
  00000001400065B8: 48 89 7D 40        mov         qword ptr [rbp+40h],rdi
  00000001400065BC: 48 89 C7           mov         rdi,rax
  00000001400065BF: 4C 89 65 28        mov         qword ptr [rbp+28h],r12
  00000001400065C3: 4C 89 6D 30        mov         qword ptr [rbp+30h],r13
  00000001400065C7: 4C 89 75 38        mov         qword ptr [rbp+38h],r14
  00000001400065CB: 42 F6 84 95 2B 01  test        byte ptr [rbp+r10*4+000000000000012Bh],80h
                    00 00 80
  00000001400065D4: 0F 85 C3 00 00 00  jne         000000014000669D
  00000001400065DA: 45 33 ED           xor         r13d,r13d
  00000001400065DD: 4E 8D A4 95 28 01  lea         r12,[rbp+r10*4+0000000000000128h]
                    00 00
  00000001400065E5: 47 0F B6 74 25 00  movzx       r14d,byte ptr [r13+r12]
  00000001400065EB: 49 81 FE FF 00 00  cmp         r14,0FFh
                    00
  00000001400065F2: 0F 84 64 01 00 00  je          000000014000675C
  00000001400065F8: 48 8D 15 01 9A FF  lea         rdx,[0000000140000000h]
                    FF
  00000001400065FF: 42 8A 8C F2 40 C0  mov         cl,byte ptr [rdx+r14*8+000000000000C040h]
                    00 00
  0000000140006607: 80 E1 07           and         cl,7
  000000014000660A: 0F B6 F1           movzx       esi,cl
  000000014000660D: 48 85 F6           test        rsi,rsi
  0000000140006610: 74 7E              je          0000000140006690
  0000000140006612: 48 83 FE 02        cmp         rsi,2
  0000000140006616: 0F 84 B8 00 00 00  je          00000001400066D4
  000000014000661C: 48 8D 15 DD 99 FF  lea         rdx,[0000000140000000h]
                    FF
  0000000140006623: 48 C1 E6 04        shl         rsi,4
  0000000140006627: 48 89 D3           mov         rbx,rdx
  000000014000662A: 49 89 D0           mov         r8,rdx
  000000014000662D: 42 0F B7 8C F2 40  movzx       ecx,word ptr [rdx+r14*8+000000000000C040h]
                    C0 00 00
  0000000140006636: 81 E1 F8 7F 00 00  and         ecx,7FF8h
  000000014000663C: C1 E9 03           shr         ecx,3
  000000014000663F: 89 8C 33 44 D6 00  mov         dword ptr [rbx+rsi+000000000000D644h],ecx
                    00
  0000000140006646: 48 89 D9           mov         rcx,rbx
  0000000140006649: 43 8B 94 F0 40 C0  mov         edx,dword ptr [r8+r14*8+000000000000C040h]
                    00 00
  0000000140006651: 81 E2 00 80 3F 00  and         edx,3F8000h
  0000000140006657: C1 EA 0F           shr         edx,0Fh
  000000014000665A: 89 94 31 48 D6 00  mov         dword ptr [rcx+rsi+000000000000D648h],edx
                    00
  0000000140006661: 48 89 DA           mov         rdx,rbx
  0000000140006664: 42 0F B7 94 F2 42  movzx       edx,word ptr [rdx+r14*8+000000000000C042h]
                    C0 00 00
  000000014000666D: 81 E2 C0 FF 00 00  and         edx,0FFC0h
  0000000140006673: C1 EA 06           shr         edx,6
  0000000140006676: 89 94 31 4C D6 00  mov         dword ptr [rcx+rsi+000000000000D64Ch],edx
                    00
  000000014000667D: 48 89 DA           mov         rdx,rbx
  0000000140006680: 46 8B B4 F2 44 C0  mov         r14d,dword ptr [rdx+r14*8+000000000000C044h]
                    00 00
  0000000140006688: 44 89 B4 32 40 D6  mov         dword ptr [rdx+rsi+000000000000D640h],r14d
                    00 00
  0000000140006690: 49 FF C5           inc         r13
  0000000140006693: 49 83 FD 04        cmp         r13,4
  0000000140006697: 0F 8C 48 FF FF FF  jl          00000001400065E5
  000000014000669D: 0F 1F 84 00 00 00  nop         dword ptr [rax+rax+0000000000000000h]
                    00 00
  00000001400066A5: 49 FF C2           inc         r10
  00000001400066A8: 4C 3B D7           cmp         r10,rdi
  00000001400066AB: 0F 8C 1A FF FF FF  jl          00000001400065CB
  00000001400066B1: 48 8B 75 18        mov         rsi,qword ptr [rbp+18h]
  00000001400066B5: 48 8B 7D 40        mov         rdi,qword ptr [rbp+40h]
  00000001400066B9: 4C 8B 65 28        mov         r12,qword ptr [rbp+28h]
  00000001400066BD: 4C 8B 6D 30        mov         r13,qword ptr [rbp+30h]
  00000001400066C1: 4C 8B 75 38        mov         r14,qword ptr [rbp+38h]
  00000001400066C5: C7 05 7D 6F 00 00  mov         dword ptr [000000014000D64Ch],1
                    01 00 00 00
  00000001400066CF: E9 63 F9 FF FF     jmp         0000000140006037
  00000001400066D4: 49 83 FE 49        cmp         r14,49h
  00000001400066D8: 0F 85 3E FF FF FF  jne         000000014000661C
  00000001400066DE: C7 45 08 01 00 00  mov         dword ptr [rbp+8],1
                    00
  00000001400066E5: 48 8D 95 98 00 00  lea         rdx,[rbp+0000000000000098h]
                    00
  00000001400066EC: 48 89 55 00        mov         qword ptr [rbp],rdx
  00000001400066F0: 50                 push        rax
  00000001400066F1: 53                 push        rbx
  00000001400066F2: 51                 push        rcx
  00000001400066F3: 52                 push        rdx
  00000001400066F4: 4C 8B 45 00        mov         r8,qword ptr [rbp]
  00000001400066F8: 8B 45 08           mov         eax,dword ptr [rbp+8]
  00000001400066FB: 0F A2              cpuid
  00000001400066FD: 41 89 00           mov         dword ptr [r8],eax
  0000000140006700: 41 89 58 04        mov         dword ptr [r8+4],ebx
  0000000140006704: 41 89 48 08        mov         dword ptr [r8+8],ecx
  0000000140006708: 41 89 50 0C        mov         dword ptr [r8+0Ch],edx
  000000014000670C: 5A                 pop         rdx
  000000014000670D: 59                 pop         rcx
  000000014000670E: 5B                 pop         rbx
  000000014000670F: 58                 pop         rax
  0000000140006710: 8B 8D 98 00 00 00  mov         ecx,dword ptr [rbp+0000000000000098h]
  0000000140006716: 89 CA              mov         edx,ecx
  0000000140006718: 81 E2 00 0F 00 00  and         edx,0F00h
  000000014000671E: 81 FA 00 0F 00 00  cmp         edx,0F00h
  0000000140006724: 0F 85 F2 FE FF FF  jne         000000014000661C
  000000014000672A: F7 C1 00 00 00 0F  test        ecx,0F000000h
  0000000140006730: 0F 85 E6 FE FF FF  jne         000000014000661C
  0000000140006736: 89 CA              mov         edx,ecx
  0000000140006738: C1 EA 0C           shr         edx,0Ch
  000000014000673B: C1 E9 04           shr         ecx,4
  000000014000673E: 81 E2 F0 00 00 00  and         edx,0F0h
  0000000140006744: 83 E1 0F           and         ecx,0Fh
  0000000140006747: 0B D1              or          edx,ecx
  0000000140006749: 83 FA 06           cmp         edx,6
  000000014000674C: 0F 85 CA FE FF FF  jne         000000014000661C
  0000000140006752: BE 03 00 00 00     mov         esi,3
  0000000140006757: E9 C0 FE FF FF     jmp         000000014000661C
  000000014000675C: 48 8B 75 18        mov         rsi,qword ptr [rbp+18h]
  0000000140006760: 66 0F EF C0        pxor        xmm0,xmm0
  0000000140006764: 48 8B 7D 40        mov         rdi,qword ptr [rbp+40h]
  0000000140006768: 4C 8B 65 28        mov         r12,qword ptr [rbp+28h]
  000000014000676C: 4C 8B 6D 30        mov         r13,qword ptr [rbp+30h]
  0000000140006770: 4C 8B 75 38        mov         r14,qword ptr [rbp+38h]
  0000000140006774: F3 0F 7F 05 D4 6E  movdqu      xmmword ptr [000000014000D650h],xmm0
                    00 00
  000000014000677C: F3 0F 7F 05 DC 6E  movdqu      xmmword ptr [000000014000D660h],xmm0
                    00 00
  0000000140006784: F3 0F 7F 05 E4 6E  movdqu      xmmword ptr [000000014000D670h],xmm0
                    00 00
  000000014000678C: E9 34 FF FF FF     jmp         00000001400066C5
  0000000140006791: 0F 1F 84 00 00 00  nop         dword ptr [rax+rax+0000000000000000h]
                    00 00
  0000000140006799: 0F 1F 80 00 00 00  nop         dword ptr [rax+0000000000000000h]
                    00
  00000001400067A0: 40 53              push        rbx
  00000001400067A2: 48 83 EC 20        sub         rsp,20h
  00000001400067A6: 48 8B D9           mov         rbx,rcx
  00000001400067A9: EB 0F              jmp         00000001400067BA
  00000001400067AB: 48 8B CB           mov         rcx,rbx
  00000001400067AE: E8 C1 16 00 00     call        0000000140007E74
  00000001400067B3: 85 C0              test        eax,eax
  00000001400067B5: 74 13              je          00000001400067CA
  00000001400067B7: 48 8B CB           mov         rcx,rbx
  00000001400067BA: E8 BB 16 00 00     call        0000000140007E7A
  00000001400067BF: 48 85 C0           test        rax,rax
  00000001400067C2: 74 E7              je          00000001400067AB
  00000001400067C4: 48 83 C4 20        add         rsp,20h
  00000001400067C8: 5B                 pop         rbx
  00000001400067C9: C3                 ret
  00000001400067CA: 48 83 FB FF        cmp         rbx,0FFFFFFFFFFFFFFFFh
  00000001400067CE: 74 06              je          00000001400067D6
  00000001400067D0: E8 57 04 00 00     call        0000000140006C2C
  00000001400067D5: CC                 int         3
  00000001400067D6: E8 71 04 00 00     call        0000000140006C4C
  00000001400067DB: CC                 int         3
  00000001400067DC: E9 9F 16 00 00     jmp         0000000140007E80
  00000001400067E1: CC                 int         3
  00000001400067E2: CC                 int         3
  00000001400067E3: CC                 int         3
  00000001400067E4: E9 F3 FF FF FF     jmp         00000001400067DC
  00000001400067E9: CC                 int         3
  00000001400067EA: CC                 int         3
  00000001400067EB: CC                 int         3
  00000001400067EC: 40 53              push        rbx
  00000001400067EE: 48 83 EC 20        sub         rsp,20h
  00000001400067F2: B9 01 00 00 00     mov         ecx,1
  00000001400067F7: E8 90 16 00 00     call        0000000140007E8C
  00000001400067FC: E8 87 07 00 00     call        0000000140006F88
  0000000140006801: 8B C8              mov         ecx,eax
  0000000140006803: E8 BA 16 00 00     call        0000000140007EC2
  0000000140006808: E8 6F 07 00 00     call        0000000140006F7C
  000000014000680D: 8B D8              mov         ebx,eax
  000000014000680F: E8 DE 16 00 00     call        0000000140007EF2
  0000000140006814: B9 01 00 00 00     mov         ecx,1
  0000000140006819: 89 18              mov         dword ptr [rax],ebx
  000000014000681B: E8 E8 04 00 00     call        0000000140006D08
  0000000140006820: 84 C0              test        al,al
  0000000140006822: 74 73              je          0000000140006897
  0000000140006824: E8 DB 09 00 00     call        0000000140007204
  0000000140006829: 48 8D 0D 10 0A 00  lea         rcx,[0000000140007240h]
                    00
  0000000140006830: E8 83 06 00 00     call        0000000140006EB8
  0000000140006835: E8 46 07 00 00     call        0000000140006F80
  000000014000683A: 8B C8              mov         ecx,eax
  000000014000683C: E8 57 16 00 00     call        0000000140007E98
  0000000140006841: 85 C0              test        eax,eax
  0000000140006843: 75 52              jne         0000000140006897
  0000000140006845: E8 46 07 00 00     call        0000000140006F90
  000000014000684A: E8 7D 07 00 00     call        0000000140006FCC
  000000014000684F: 85 C0              test        eax,eax
  0000000140006851: 74 0C              je          000000014000685F
  0000000140006853: 48 8D 0D 22 07 00  lea         rcx,[0000000140006F7Ch]
                    00
  000000014000685A: E8 33 16 00 00     call        0000000140007E92
  000000014000685F: E8 40 07 00 00     call        0000000140006FA4
  0000000140006864: E8 3B 07 00 00     call        0000000140006FA4
  0000000140006869: E8 0E 07 00 00     call        0000000140006F7C
  000000014000686E: 8B C8              mov         ecx,eax
  0000000140006870: E8 71 16 00 00     call        0000000140007EE6
  0000000140006875: E8 26 07 00 00     call        0000000140006FA0
  000000014000687A: 84 C0              test        al,al
  000000014000687C: 74 05              je          0000000140006883
  000000014000687E: E8 1B 16 00 00     call        0000000140007E9E
  0000000140006883: E8 F4 06 00 00     call        0000000140006F7C
  0000000140006888: E8 AF 08 00 00     call        000000014000713C
  000000014000688D: 85 C0              test        eax,eax
  000000014000688F: 75 06              jne         0000000140006897
  0000000140006891: 48 83 C4 20        add         rsp,20h
  0000000140006895: 5B                 pop         rbx
  0000000140006896: C3                 ret
  0000000140006897: B9 07 00 00 00     mov         ecx,7
  000000014000689C: E8 4F 07 00 00     call        0000000140006FF0
  00000001400068A1: CC                 int         3
  00000001400068A2: CC                 int         3
  00000001400068A3: CC                 int         3
  00000001400068A4: 48 83 EC 28        sub         rsp,28h
  00000001400068A8: E8 03 07 00 00     call        0000000140006FB0
  00000001400068AD: 33 C0              xor         eax,eax
  00000001400068AF: 48 83 C4 28        add         rsp,28h
  00000001400068B3: C3                 ret
  00000001400068B4: 48 83 EC 28        sub         rsp,28h
  00000001400068B8: E8 DB 08 00 00     call        0000000140007198
  00000001400068BD: E8 BA 06 00 00     call        0000000140006F7C
  00000001400068C2: 8B C8              mov         ecx,eax
  00000001400068C4: 48 83 C4 28        add         rsp,28h
  00000001400068C8: E9 1F 16 00 00     jmp         0000000140007EEC
  00000001400068CD: CC                 int         3
  00000001400068CE: CC                 int         3
  00000001400068CF: CC                 int         3
  00000001400068D0: 48 89 5C 24 08     mov         qword ptr [rsp+8],rbx
  00000001400068D5: 48 89 74 24 10     mov         qword ptr [rsp+10h],rsi
  00000001400068DA: 57                 push        rdi
  00000001400068DB: 48 83 EC 30        sub         rsp,30h
  00000001400068DF: B9 01 00 00 00     mov         ecx,1
  00000001400068E4: E8 D3 03 00 00     call        0000000140006CBC
  00000001400068E9: 84 C0              test        al,al
  00000001400068EB: 0F 84 36 01 00 00  je          0000000140006A27
  00000001400068F1: 40 32 F6           xor         sil,sil
  00000001400068F4: 40 88 74 24 20     mov         byte ptr [rsp+20h],sil
  00000001400068F9: E8 82 03 00 00     call        0000000140006C80
  00000001400068FE: 8A D8              mov         bl,al
  0000000140006900: 8B 0D 42 60 00 00  mov         ecx,dword ptr [000000014000C948h]
  0000000140006906: 83 F9 01           cmp         ecx,1
  0000000140006909: 0F 84 23 01 00 00  je          0000000140006A32
  000000014000690F: 85 C9              test        ecx,ecx
  0000000140006911: 75 4A              jne         000000014000695D
  0000000140006913: C7 05 2B 60 00 00  mov         dword ptr [000000014000C948h],1
                    01 00 00 00
  000000014000691D: 48 8D 15 64 29 00  lea         rdx,[0000000140009288h]
                    00
  0000000140006924: 48 8D 0D 45 29 00  lea         rcx,[0000000140009270h]
                    00
  000000014000692B: E8 80 15 00 00     call        0000000140007EB0
  0000000140006930: 85 C0              test        eax,eax
  0000000140006932: 74 0A              je          000000014000693E
  0000000140006934: B8 FF 00 00 00     mov         eax,0FFh
  0000000140006939: E9 D9 00 00 00     jmp         0000000140006A17
  000000014000693E: 48 8D 15 23 29 00  lea         rdx,[0000000140009268h]
                    00
  0000000140006945: 48 8D 0D 04 29 00  lea         rcx,[0000000140009250h]
                    00
  000000014000694C: E8 59 15 00 00     call        0000000140007EAA
  0000000140006951: C7 05 ED 5F 00 00  mov         dword ptr [000000014000C948h],2
                    02 00 00 00
  000000014000695B: EB 08              jmp         0000000140006965
  000000014000695D: 40 B6 01           mov         sil,1
  0000000140006960: 40 88 74 24 20     mov         byte ptr [rsp+20h],sil
  0000000140006965: 8A CB              mov         cl,bl
  0000000140006967: E8 C0 04 00 00     call        0000000140006E2C
  000000014000696C: E8 67 06 00 00     call        0000000140006FD8
  0000000140006971: 48 8B D8           mov         rbx,rax
  0000000140006974: 48 83 38 00        cmp         qword ptr [rax],0
  0000000140006978: 74 1E              je          0000000140006998
  000000014000697A: 48 8B C8           mov         rcx,rax
  000000014000697D: E8 12 04 00 00     call        0000000140006D94
  0000000140006982: 84 C0              test        al,al
  0000000140006984: 74 12              je          0000000140006998
  0000000140006986: 45 33 C0           xor         r8d,r8d
  0000000140006989: 41 8D 50 02        lea         edx,[r8+2]
  000000014000698D: 33 C9              xor         ecx,ecx
  000000014000698F: 48 8B 03           mov         rax,qword ptr [rbx]
  0000000140006992: FF 15 A0 28 00 00  call        qword ptr [0000000140009238h]
  0000000140006998: E8 43 06 00 00     call        0000000140006FE0
  000000014000699D: 48 8B D8           mov         rbx,rax
  00000001400069A0: 48 83 38 00        cmp         qword ptr [rax],0
  00000001400069A4: 74 14              je          00000001400069BA
  00000001400069A6: 48 8B C8           mov         rcx,rax
  00000001400069A9: E8 E6 03 00 00     call        0000000140006D94
  00000001400069AE: 84 C0              test        al,al
  00000001400069B0: 74 08              je          00000001400069BA
  00000001400069B2: 48 8B 0B           mov         rcx,qword ptr [rbx]
  00000001400069B5: E8 26 15 00 00     call        0000000140007EE0
  00000001400069BA: E8 E5 14 00 00     call        0000000140007EA4
  00000001400069BF: 48 8B F8           mov         rdi,rax
  00000001400069C2: E8 07 15 00 00     call        0000000140007ECE
  00000001400069C7: 48 8B 18           mov         rbx,qword ptr [rax]
  00000001400069CA: E8 F9 14 00 00     call        0000000140007EC8
  00000001400069CF: 4C 8B C7           mov         r8,rdi
  00000001400069D2: 48 8B D3           mov         rdx,rbx
  00000001400069D5: 8B 08              mov         ecx,dword ptr [rax]
  00000001400069D7: E8 24 A6 FF FF     call        0000000140001000
  00000001400069DC: 8B D8              mov         ebx,eax
  00000001400069DE: E8 61 07 00 00     call        0000000140007144
  00000001400069E3: 84 C0              test        al,al
  00000001400069E5: 74 55              je          0000000140006A3C
  00000001400069E7: 40 84 F6           test        sil,sil
  00000001400069EA: 75 05              jne         00000001400069F1
  00000001400069EC: E8 E3 14 00 00     call        0000000140007ED4
  00000001400069F1: 33 D2              xor         edx,edx
  00000001400069F3: B1 01              mov         cl,1
  00000001400069F5: E8 56 04 00 00     call        0000000140006E50
  00000001400069FA: 8B C3              mov         eax,ebx
  00000001400069FC: EB 19              jmp         0000000140006A17
  00000001400069FE: 8B D8              mov         ebx,eax
  0000000140006A00: E8 3F 07 00 00     call        0000000140007144
  0000000140006A05: 84 C0              test        al,al
  0000000140006A07: 74 3B              je          0000000140006A44
  0000000140006A09: 80 7C 24 20 00     cmp         byte ptr [rsp+20h],0
  0000000140006A0E: 75 05              jne         0000000140006A15
  0000000140006A10: E8 C5 14 00 00     call        0000000140007EDA
  0000000140006A15: 8B C3              mov         eax,ebx
  0000000140006A17: 48 8B 5C 24 40     mov         rbx,qword ptr [rsp+40h]
  0000000140006A1C: 48 8B 74 24 48     mov         rsi,qword ptr [rsp+48h]
  0000000140006A21: 48 83 C4 30        add         rsp,30h
  0000000140006A25: 5F                 pop         rdi
  0000000140006A26: C3                 ret
  0000000140006A27: B9 07 00 00 00     mov         ecx,7
  0000000140006A2C: E8 BF 05 00 00     call        0000000140006FF0
  0000000140006A31: 90                 nop
  0000000140006A32: B9 07 00 00 00     mov         ecx,7
  0000000140006A37: E8 B4 05 00 00     call        0000000140006FF0
  0000000140006A3C: 8B CB              mov         ecx,ebx
  0000000140006A3E: E8 73 14 00 00     call        0000000140007EB6
  0000000140006A43: 90                 nop
  0000000140006A44: 8B CB              mov         ecx,ebx
  0000000140006A46: E8 71 14 00 00     call        0000000140007EBC
  0000000140006A4B: 90                 nop
  0000000140006A4C: 48 83 EC 28        sub         rsp,28h
  0000000140006A50: E8 7B 04 00 00     call        0000000140006ED0
  0000000140006A55: 48 83 C4 28        add         rsp,28h
  0000000140006A59: E9 72 FE FF FF     jmp         00000001400068D0
  0000000140006A5E: CC                 int         3
  0000000140006A5F: CC                 int         3
  0000000140006A60: 40 53              push        rbx
  0000000140006A62: 48 83 EC 20        sub         rsp,20h
  0000000140006A66: 48 8B D9           mov         rbx,rcx
  0000000140006A69: 48 8B C2           mov         rax,rdx
  0000000140006A6C: 48 8D 0D 65 28 00  lea         rcx,[00000001400092D8h]
                    00
  0000000140006A73: 0F 57 C0           xorps       xmm0,xmm0
  0000000140006A76: 48 89 0B           mov         qword ptr [rbx],rcx
  0000000140006A79: 48 8D 53 08        lea         rdx,[rbx+8]
  0000000140006A7D: 48 8D 48 08        lea         rcx,[rax+8]
  0000000140006A81: 0F 11 02           movups      xmmword ptr [rdx],xmm0
  0000000140006A84: E8 C7 13 00 00     call        0000000140007E50
  0000000140006A89: 48 8D 05 78 28 00  lea         rax,[0000000140009308h]
                    00
  0000000140006A90: 48 89 03           mov         qword ptr [rbx],rax
  0000000140006A93: 48 8B C3           mov         rax,rbx
  0000000140006A96: 48 83 C4 20        add         rsp,20h
  0000000140006A9A: 5B                 pop         rbx
  0000000140006A9B: C3                 ret
  0000000140006A9C: 48 83 61 10 00     and         qword ptr [rcx+10h],0
  0000000140006AA1: 48 8D 05 70 28 00  lea         rax,[0000000140009318h]
                    00
  0000000140006AA8: 48 89 41 08        mov         qword ptr [rcx+8],rax
  0000000140006AAC: 48 8D 05 55 28 00  lea         rax,[0000000140009308h]
                    00
  0000000140006AB3: 48 89 01           mov         qword ptr [rcx],rax
  0000000140006AB6: 48 8B C1           mov         rax,rcx
  0000000140006AB9: C3                 ret
  0000000140006ABA: CC                 int         3
  0000000140006ABB: CC                 int         3
  0000000140006ABC: 40 53              push        rbx
  0000000140006ABE: 48 83 EC 20        sub         rsp,20h
  0000000140006AC2: 48 8B D9           mov         rbx,rcx
  0000000140006AC5: 48 8B C2           mov         rax,rdx
  0000000140006AC8: 48 8D 0D 09 28 00  lea         rcx,[00000001400092D8h]
                    00
  0000000140006ACF: 0F 57 C0           xorps       xmm0,xmm0
  0000000140006AD2: 48 89 0B           mov         qword ptr [rbx],rcx
  0000000140006AD5: 48 8D 53 08        lea         rdx,[rbx+8]
  0000000140006AD9: 48 8D 48 08        lea         rcx,[rax+8]
  0000000140006ADD: 0F 11 02           movups      xmmword ptr [rdx],xmm0
  0000000140006AE0: E8 6B 13 00 00     call        0000000140007E50
  0000000140006AE5: 48 8D 05 44 28 00  lea         rax,[0000000140009330h]
                    00
  0000000140006AEC: 48 89 03           mov         qword ptr [rbx],rax
  0000000140006AEF: 48 8B C3           mov         rax,rbx
  0000000140006AF2: 48 83 C4 20        add         rsp,20h
  0000000140006AF6: 5B                 pop         rbx
  0000000140006AF7: C3                 ret
  0000000140006AF8: 48 83 61 10 00     and         qword ptr [rcx+10h],0
  0000000140006AFD: 48 8D 05 3C 28 00  lea         rax,[0000000140009340h]
                    00
  0000000140006B04: 48 89 41 08        mov         qword ptr [rcx+8],rax
  0000000140006B08: 48 8D 05 21 28 00  lea         rax,[0000000140009330h]
                    00
  0000000140006B0F: 48 89 01           mov         qword ptr [rcx],rax
  0000000140006B12: 48 8B C1           mov         rax,rcx
  0000000140006B15: C3                 ret
  0000000140006B16: CC                 int         3
  0000000140006B17: CC                 int         3
  0000000140006B18: 40 53              push        rbx
  0000000140006B1A: 48 83 EC 20        sub         rsp,20h
  0000000140006B1E: 48 8B D9           mov         rbx,rcx
  0000000140006B21: 48 8B C2           mov         rax,rdx
  0000000140006B24: 48 8D 0D AD 27 00  lea         rcx,[00000001400092D8h]
                    00
  0000000140006B2B: 0F 57 C0           xorps       xmm0,xmm0
  0000000140006B2E: 48 89 0B           mov         qword ptr [rbx],rcx
  0000000140006B31: 48 8D 53 08        lea         rdx,[rbx+8]
  0000000140006B35: 48 8D 48 08        lea         rcx,[rax+8]
  0000000140006B39: 0F 11 02           movups      xmmword ptr [rdx],xmm0
  0000000140006B3C: E8 0F 13 00 00     call        0000000140007E50
  0000000140006B41: 48 8B C3           mov         rax,rbx
  0000000140006B44: 48 83 C4 20        add         rsp,20h
  0000000140006B48: 5B                 pop         rbx
  0000000140006B49: C3                 ret
  0000000140006B4A: CC                 int         3
  0000000140006B4B: CC                 int         3
  0000000140006B4C: 48 8D 05 85 27 00  lea         rax,[00000001400092D8h]
                    00
  0000000140006B53: 48 89 01           mov         qword ptr [rcx],rax
  0000000140006B56: 48 83 C1 08        add         rcx,8
  0000000140006B5A: E9 F7 12 00 00     jmp         0000000140007E56
  0000000140006B5F: CC                 int         3
  0000000140006B60: 48 89 5C 24 08     mov         qword ptr [rsp+8],rbx
  0000000140006B65: 57                 push        rdi
  0000000140006B66: 48 83 EC 20        sub         rsp,20h
  0000000140006B6A: 48 8D 05 67 27 00  lea         rax,[00000001400092D8h]
                    00
  0000000140006B71: 48 8B F9           mov         rdi,rcx
  0000000140006B74: 48 89 01           mov         qword ptr [rcx],rax
  0000000140006B77: 8B DA              mov         ebx,edx
  0000000140006B79: 48 83 C1 08        add         rcx,8
  0000000140006B7D: E8 D4 12 00 00     call        0000000140007E56
  0000000140006B82: F6 C3 01           test        bl,1
  0000000140006B85: 74 0D              je          0000000140006B94
  0000000140006B87: BA 18 00 00 00     mov         edx,18h
  0000000140006B8C: 48 8B CF           mov         rcx,rdi
  0000000140006B8F: E8 50 FC FF FF     call        00000001400067E4
  0000000140006B94: 48 8B 5C 24 30     mov         rbx,qword ptr [rsp+30h]
  0000000140006B99: 48 8B C7           mov         rax,rdi
  0000000140006B9C: 48 83 C4 20        add         rsp,20h
  0000000140006BA0: 5F                 pop         rdi
  0000000140006BA1: C3                 ret
  0000000140006BA2: CC                 int         3
  0000000140006BA3: CC                 int         3
  0000000140006BA4: 48 89 5C 24 08     mov         qword ptr [rsp+8],rbx
  0000000140006BA9: 57                 push        rdi
  0000000140006BAA: 48 83 EC 20        sub         rsp,20h
  0000000140006BAE: 48 8D 05 23 27 00  lea         rax,[00000001400092D8h]
                    00
  0000000140006BB5: 48 8B F9           mov         rdi,rcx
  0000000140006BB8: 48 89 01           mov         qword ptr [rcx],rax
  0000000140006BBB: 8B DA              mov         ebx,edx
  0000000140006BBD: 48 83 C1 08        add         rcx,8
  0000000140006BC1: E8 90 12 00 00     call        0000000140007E56
  0000000140006BC6: F6 C3 01           test        bl,1
  0000000140006BC9: 74 0D              je          0000000140006BD8
  0000000140006BCB: BA 18 00 00 00     mov         edx,18h
  0000000140006BD0: 48 8B CF           mov         rcx,rdi
  0000000140006BD3: E8 0C FC FF FF     call        00000001400067E4
  0000000140006BD8: 48 8B 5C 24 30     mov         rbx,qword ptr [rsp+30h]
  0000000140006BDD: 48 8B C7           mov         rax,rdi
  0000000140006BE0: 48 83 C4 20        add         rsp,20h
  0000000140006BE4: 5F                 pop         rdi
  0000000140006BE5: C3                 ret
  0000000140006BE6: CC                 int         3
  0000000140006BE7: CC                 int         3
  0000000140006BE8: 48 89 5C 24 08     mov         qword ptr [rsp+8],rbx
  0000000140006BED: 57                 push        rdi
  0000000140006BEE: 48 83 EC 20        sub         rsp,20h
  0000000140006BF2: 48 8D 05 DF 26 00  lea         rax,[00000001400092D8h]
                    00
  0000000140006BF9: 48 8B F9           mov         rdi,rcx
  0000000140006BFC: 48 89 01           mov         qword ptr [rcx],rax
  0000000140006BFF: 8B DA              mov         ebx,edx
  0000000140006C01: 48 83 C1 08        add         rcx,8
  0000000140006C05: E8 4C 12 00 00     call        0000000140007E56
  0000000140006C0A: F6 C3 01           test        bl,1
  0000000140006C0D: 74 0D              je          0000000140006C1C
  0000000140006C0F: BA 18 00 00 00     mov         edx,18h
  0000000140006C14: 48 8B CF           mov         rcx,rdi
  0000000140006C17: E8 C8 FB FF FF     call        00000001400067E4
  0000000140006C1C: 48 8B 5C 24 30     mov         rbx,qword ptr [rsp+30h]
  0000000140006C21: 48 8B C7           mov         rax,rdi
  0000000140006C24: 48 83 C4 20        add         rsp,20h
  0000000140006C28: 5F                 pop         rdi
  0000000140006C29: C3                 ret
  0000000140006C2A: CC                 int         3
  0000000140006C2B: CC                 int         3
  0000000140006C2C: 48 83 EC 48        sub         rsp,48h
  0000000140006C30: 48 8D 4C 24 20     lea         rcx,[rsp+20h]
  0000000140006C35: E8 62 FE FF FF     call        0000000140006A9C
  0000000140006C3A: 48 8D 15 E7 49 00  lea         rdx,[000000014000B628h]
                    00
  0000000140006C41: 48 8D 4C 24 20     lea         rcx,[rsp+20h]
  0000000140006C46: E8 11 12 00 00     call        0000000140007E5C
  0000000140006C4B: CC                 int         3
  0000000140006C4C: 48 83 EC 48        sub         rsp,48h
  0000000140006C50: 48 8D 4C 24 20     lea         rcx,[rsp+20h]
  0000000140006C55: E8 9E FE FF FF     call        0000000140006AF8
  0000000140006C5A: 48 8D 15 4F 4A 00  lea         rdx,[000000014000B6B0h]
                    00
  0000000140006C61: 48 8D 4C 24 20     lea         rcx,[rsp+20h]
  0000000140006C66: E8 F1 11 00 00     call        0000000140007E5C
  0000000140006C6B: CC                 int         3
  0000000140006C6C: 48 83 79 08 00     cmp         qword ptr [rcx+8],0
  0000000140006C71: 48 8D 05 70 26 00  lea         rax,[00000001400092E8h]
                    00
  0000000140006C78: 48 0F 45 41 08     cmovne      rax,qword ptr [rcx+8]
  0000000140006C7D: C3                 ret
  0000000140006C7E: CC                 int         3
  0000000140006C7F: CC                 int         3
  0000000140006C80: 48 83 EC 28        sub         rsp,28h
  0000000140006C84: E8 C3 07 00 00     call        000000014000744C
  0000000140006C89: 85 C0              test        eax,eax
  0000000140006C8B: 74 21              je          0000000140006CAE
  0000000140006C8D: 65 48 8B 04 25 30  mov         rax,qword ptr gs:[0000000000000030h]
                    00 00 00
  0000000140006C96: 48 8B 48 08        mov         rcx,qword ptr [rax+8]
  0000000140006C9A: EB 05              jmp         0000000140006CA1
  0000000140006C9C: 48 3B C8           cmp         rcx,rax
  0000000140006C9F: 74 14              je          0000000140006CB5
  0000000140006CA1: 33 C0              xor         eax,eax
  0000000140006CA3: F0 48 0F B1 0D A4  lock cmpxchg qword ptr [000000014000C950h],rcx
                    5C 00 00
  0000000140006CAC: 75 EE              jne         0000000140006C9C
  0000000140006CAE: 32 C0              xor         al,al
  0000000140006CB0: 48 83 C4 28        add         rsp,28h
  0000000140006CB4: C3                 ret
  0000000140006CB5: B0 01              mov         al,1
  0000000140006CB7: EB F7              jmp         0000000140006CB0
  0000000140006CB9: CC                 int         3
  0000000140006CBA: CC                 int         3
  0000000140006CBB: CC                 int         3
  0000000140006CBC: 40 53              push        rbx
  0000000140006CBE: 48 83 EC 20        sub         rsp,20h
  0000000140006CC2: 0F B6 05 8F 5C 00  movzx       eax,byte ptr [000000014000C958h]
                    00
  0000000140006CC9: 85 C9              test        ecx,ecx
  0000000140006CCB: BB 01 00 00 00     mov         ebx,1
  0000000140006CD0: 0F 44 C3           cmove       eax,ebx
  0000000140006CD3: 88 05 7F 5C 00 00  mov         byte ptr [000000014000C958h],al
  0000000140006CD9: E8 CA 05 00 00     call        00000001400072A8
  0000000140006CDE: E8 BD 02 00 00     call        0000000140006FA0
  0000000140006CE3: 84 C0              test        al,al
  0000000140006CE5: 75 04              jne         0000000140006CEB
  0000000140006CE7: 32 C0              xor         al,al
  0000000140006CE9: EB 14              jmp         0000000140006CFF
  0000000140006CEB: E8 B0 02 00 00     call        0000000140006FA0
  0000000140006CF0: 84 C0              test        al,al
  0000000140006CF2: 75 09              jne         0000000140006CFD
  0000000140006CF4: 33 C9              xor         ecx,ecx
  0000000140006CF6: E8 A5 02 00 00     call        0000000140006FA0
  0000000140006CFB: EB EA              jmp         0000000140006CE7
  0000000140006CFD: 8A C3              mov         al,bl
  0000000140006CFF: 48 83 C4 20        add         rsp,20h
  0000000140006D03: 5B                 pop         rbx
  0000000140006D04: C3                 ret
  0000000140006D05: CC                 int         3
  0000000140006D06: CC                 int         3
  0000000140006D07: CC                 int         3
  0000000140006D08: 40 53              push        rbx
  0000000140006D0A: 48 83 EC 20        sub         rsp,20h
  0000000140006D0E: 80 3D 44 5C 00 00  cmp         byte ptr [000000014000C959h],0
                    00
  0000000140006D15: 8B D9              mov         ebx,ecx
  0000000140006D17: 75 67              jne         0000000140006D80
  0000000140006D19: 83 F9 01           cmp         ecx,1
  0000000140006D1C: 77 6A              ja          0000000140006D88
  0000000140006D1E: E8 29 07 00 00     call        000000014000744C
  0000000140006D23: 85 C0              test        eax,eax
  0000000140006D25: 74 28              je          0000000140006D4F
  0000000140006D27: 85 DB              test        ebx,ebx
  0000000140006D29: 75 24              jne         0000000140006D4F
  0000000140006D2B: 48 8D 0D 2E 5C 00  lea         rcx,[000000014000C960h]
                    00
  0000000140006D32: E8 C1 11 00 00     call        0000000140007EF8
  0000000140006D37: 85 C0              test        eax,eax
  0000000140006D39: 75 10              jne         0000000140006D4B
  0000000140006D3B: 48 8D 0D 36 5C 00  lea         rcx,[000000014000C978h]
                    00
  0000000140006D42: E8 B1 11 00 00     call        0000000140007EF8
  0000000140006D47: 85 C0              test        eax,eax
  0000000140006D49: 74 2E              je          0000000140006D79
  0000000140006D4B: 32 C0              xor         al,al
  0000000140006D4D: EB 33              jmp         0000000140006D82
  0000000140006D4F: 66 0F 6F 05 09 26  movdqa      xmm0,xmmword ptr [0000000140009360h]
                    00 00
  0000000140006D57: 48 83 C8 FF        or          rax,0FFFFFFFFFFFFFFFFh
  0000000140006D5B: F3 0F 7F 05 FD 5B  movdqu      xmmword ptr [000000014000C960h],xmm0
                    00 00
  0000000140006D63: 48 89 05 06 5C 00  mov         qword ptr [000000014000C970h],rax
                    00
  0000000140006D6A: F3 0F 7F 05 06 5C  movdqu      xmmword ptr [000000014000C978h],xmm0
                    00 00
  0000000140006D72: 48 89 05 0F 5C 00  mov         qword ptr [000000014000C988h],rax
                    00
  0000000140006D79: C6 05 D9 5B 00 00  mov         byte ptr [000000014000C959h],1
                    01
  0000000140006D80: B0 01              mov         al,1
  0000000140006D82: 48 83 C4 20        add         rsp,20h
  0000000140006D86: 5B                 pop         rbx
  0000000140006D87: C3                 ret
  0000000140006D88: B9 05 00 00 00     mov         ecx,5
  0000000140006D8D: E8 5E 02 00 00     call        0000000140006FF0
  0000000140006D92: CC                 int         3
  0000000140006D93: CC                 int         3
  0000000140006D94: 48 83 EC 18        sub         rsp,18h
  0000000140006D98: 4C 8B C1           mov         r8,rcx
  0000000140006D9B: B8 4D 5A 00 00     mov         eax,5A4Dh
  0000000140006DA0: 66 39 05 59 92 FF  cmp         word ptr [0000000140000000h],ax
                    FF
  0000000140006DA7: 75 78              jne         0000000140006E21
  0000000140006DA9: 48 63 0D 8C 92 FF  movsxd      rcx,dword ptr [000000014000003Ch]
                    FF
  0000000140006DB0: 48 8D 15 49 92 FF  lea         rdx,[0000000140000000h]
                    FF
  0000000140006DB7: 48 03 CA           add         rcx,rdx
  0000000140006DBA: 81 39 50 45 00 00  cmp         dword ptr [rcx],4550h
  0000000140006DC0: 75 5F              jne         0000000140006E21
  0000000140006DC2: B8 0B 02 00 00     mov         eax,20Bh
  0000000140006DC7: 66 39 41 18        cmp         word ptr [rcx+18h],ax
  0000000140006DCB: 75 54              jne         0000000140006E21
  0000000140006DCD: 4C 2B C2           sub         r8,rdx
  0000000140006DD0: 0F B7 41 14        movzx       eax,word ptr [rcx+14h]
  0000000140006DD4: 48 8D 51 18        lea         rdx,[rcx+18h]
  0000000140006DD8: 48 03 D0           add         rdx,rax
  0000000140006DDB: 0F B7 41 06        movzx       eax,word ptr [rcx+6]
  0000000140006DDF: 48 8D 0C 80        lea         rcx,[rax+rax*4]
  0000000140006DE3: 4C 8D 0C CA        lea         r9,[rdx+rcx*8]
  0000000140006DE7: 48 89 14 24        mov         qword ptr [rsp],rdx
  0000000140006DEB: 49 3B D1           cmp         rdx,r9
  0000000140006DEE: 74 18              je          0000000140006E08
  0000000140006DF0: 8B 4A 0C           mov         ecx,dword ptr [rdx+0Ch]
  0000000140006DF3: 4C 3B C1           cmp         r8,rcx
  0000000140006DF6: 72 0A              jb          0000000140006E02
  0000000140006DF8: 8B 42 08           mov         eax,dword ptr [rdx+8]
  0000000140006DFB: 03 C1              add         eax,ecx
  0000000140006DFD: 4C 3B C0           cmp         r8,rax
  0000000140006E00: 72 08              jb          0000000140006E0A
  0000000140006E02: 48 83 C2 28        add         rdx,28h
  0000000140006E06: EB DF              jmp         0000000140006DE7
  0000000140006E08: 33 D2              xor         edx,edx
  0000000140006E0A: 48 85 D2           test        rdx,rdx
  0000000140006E0D: 75 04              jne         0000000140006E13
  0000000140006E0F: 32 C0              xor         al,al
  0000000140006E11: EB 14              jmp         0000000140006E27
  0000000140006E13: 83 7A 24 00        cmp         dword ptr [rdx+24h],0
  0000000140006E17: 7D 04              jge         0000000140006E1D
  0000000140006E19: 32 C0              xor         al,al
  0000000140006E1B: EB 0A              jmp         0000000140006E27
  0000000140006E1D: B0 01              mov         al,1
  0000000140006E1F: EB 06              jmp         0000000140006E27
  0000000140006E21: 32 C0              xor         al,al
  0000000140006E23: EB 02              jmp         0000000140006E27
  0000000140006E25: 32 C0              xor         al,al
  0000000140006E27: 48 83 C4 18        add         rsp,18h
  0000000140006E2B: C3                 ret
  0000000140006E2C: 40 53              push        rbx
  0000000140006E2E: 48 83 EC 20        sub         rsp,20h
  0000000140006E32: 8A D9              mov         bl,cl
  0000000140006E34: E8 13 06 00 00     call        000000014000744C
  0000000140006E39: 33 D2              xor         edx,edx
  0000000140006E3B: 85 C0              test        eax,eax
  0000000140006E3D: 74 0B              je          0000000140006E4A
  0000000140006E3F: 84 DB              test        bl,bl
  0000000140006E41: 75 07              jne         0000000140006E4A
  0000000140006E43: 48 87 15 06 5B 00  xchg        rdx,qword ptr [000000014000C950h]
                    00
  0000000140006E4A: 48 83 C4 20        add         rsp,20h
  0000000140006E4E: 5B                 pop         rbx
  0000000140006E4F: C3                 ret
  0000000140006E50: 40 53              push        rbx
  0000000140006E52: 48 83 EC 20        sub         rsp,20h
  0000000140006E56: 80 3D FB 5A 00 00  cmp         byte ptr [000000014000C958h],0
                    00
  0000000140006E5D: 8A D9              mov         bl,cl
  0000000140006E5F: 74 04              je          0000000140006E65
  0000000140006E61: 84 D2              test        dl,dl
  0000000140006E63: 75 0C              jne         0000000140006E71
  0000000140006E65: E8 36 01 00 00     call        0000000140006FA0
  0000000140006E6A: 8A CB              mov         cl,bl
  0000000140006E6C: E8 2F 01 00 00     call        0000000140006FA0
  0000000140006E71: B0 01              mov         al,1
  0000000140006E73: 48 83 C4 20        add         rsp,20h
  0000000140006E77: 5B                 pop         rbx
  0000000140006E78: C3                 ret
  0000000140006E79: CC                 int         3
  0000000140006E7A: CC                 int         3
  0000000140006E7B: CC                 int         3
  0000000140006E7C: 40 53              push        rbx
  0000000140006E7E: 48 83 EC 20        sub         rsp,20h
  0000000140006E82: 48 83 3D D6 5A 00  cmp         qword ptr [000000014000C960h],0FFFFFFFFFFFFFFFFh
                    00 FF
  0000000140006E8A: 48 8B D9           mov         rbx,rcx
  0000000140006E8D: 75 07              jne         0000000140006E96
  0000000140006E8F: E8 70 10 00 00     call        0000000140007F04
  0000000140006E94: EB 0F              jmp         0000000140006EA5
  0000000140006E96: 48 8B D3           mov         rdx,rbx
  0000000140006E99: 48 8D 0D C0 5A 00  lea         rcx,[000000014000C960h]
                    00
  0000000140006EA0: E8 59 10 00 00     call        0000000140007EFE
  0000000140006EA5: 33 D2              xor         edx,edx
  0000000140006EA7: 85 C0              test        eax,eax
  0000000140006EA9: 48 0F 44 D3        cmove       rdx,rbx
  0000000140006EAD: 48 8B C2           mov         rax,rdx
  0000000140006EB0: 48 83 C4 20        add         rsp,20h
  0000000140006EB4: 5B                 pop         rbx
  0000000140006EB5: C3                 ret
  0000000140006EB6: CC                 int         3
  0000000140006EB7: CC                 int         3
  0000000140006EB8: 48 83 EC 28        sub         rsp,28h
  0000000140006EBC: E8 BB FF FF FF     call        0000000140006E7C
  0000000140006EC1: 48 F7 D8           neg         rax
  0000000140006EC4: 1B C0              sbb         eax,eax
  0000000140006EC6: F7 D8              neg         eax
  0000000140006EC8: FF C8              dec         eax
  0000000140006ECA: 48 83 C4 28        add         rsp,28h
  0000000140006ECE: C3                 ret
  0000000140006ECF: CC                 int         3
  0000000140006ED0: 48 89 5C 24 20     mov         qword ptr [rsp+20h],rbx
  0000000140006ED5: 55                 push        rbp
  0000000140006ED6: 48 8B EC           mov         rbp,rsp
  0000000140006ED9: 48 83 EC 20        sub         rsp,20h
  0000000140006EDD: 48 8B 05 44 51 00  mov         rax,qword ptr [000000014000C028h]
                    00
  0000000140006EE4: 48 BB 32 A2 DF 2D  mov         rbx,2B992DDFA232h
                    99 2B 00 00
  0000000140006EEE: 48 3B C3           cmp         rax,rbx
  0000000140006EF1: 75 74              jne         0000000140006F67
  0000000140006EF3: 48 83 65 18 00     and         qword ptr [rbp+18h],0
  0000000140006EF8: 48 8D 4D 18        lea         rcx,[rbp+18h]
  0000000140006EFC: FF 15 16 21 00 00  call        qword ptr [0000000140009018h]
  0000000140006F02: 48 8B 45 18        mov         rax,qword ptr [rbp+18h]
  0000000140006F06: 48 89 45 10        mov         qword ptr [rbp+10h],rax
  0000000140006F0A: FF 15 00 21 00 00  call        qword ptr [0000000140009010h]
  0000000140006F10: 8B C0              mov         eax,eax
  0000000140006F12: 48 31 45 10        xor         qword ptr [rbp+10h],rax
  0000000140006F16: FF 15 EC 20 00 00  call        qword ptr [0000000140009008h]
  0000000140006F1C: 8B C0              mov         eax,eax
  0000000140006F1E: 48 8D 4D 20        lea         rcx,[rbp+20h]
  0000000140006F22: 48 31 45 10        xor         qword ptr [rbp+10h],rax
  0000000140006F26: FF 15 5C 21 00 00  call        qword ptr [0000000140009088h]
  0000000140006F2C: 8B 45 20           mov         eax,dword ptr [rbp+20h]
  0000000140006F2F: 48 8D 4D 10        lea         rcx,[rbp+10h]
  0000000140006F33: 48 C1 E0 20        shl         rax,20h
  0000000140006F37: 48 33 45 20        xor         rax,qword ptr [rbp+20h]
  0000000140006F3B: 48 33 45 10        xor         rax,qword ptr [rbp+10h]
  0000000140006F3F: 48 33 C1           xor         rax,rcx
  0000000140006F42: 48 B9 FF FF FF FF  mov         rcx,0FFFFFFFFFFFFh
                    FF FF 00 00
  0000000140006F4C: 48 23 C1           and         rax,rcx
  0000000140006F4F: 48 B9 33 A2 DF 2D  mov         rcx,2B992DDFA233h
                    99 2B 00 00
  0000000140006F59: 48 3B C3           cmp         rax,rbx
  0000000140006F5C: 48 0F 44 C1        cmove       rax,rcx
  0000000140006F60: 48 89 05 C1 50 00  mov         qword ptr [000000014000C028h],rax
                    00
  0000000140006F67: 48 8B 5C 24 48     mov         rbx,qword ptr [rsp+48h]
  0000000140006F6C: 48 F7 D0           not         rax
  0000000140006F6F: 48 89 05 AA 50 00  mov         qword ptr [000000014000C020h],rax
                    00
  0000000140006F76: 48 83 C4 20        add         rsp,20h
  0000000140006F7A: 5D                 pop         rbp
  0000000140006F7B: C3                 ret
  0000000140006F7C: 33 C0              xor         eax,eax
  0000000140006F7E: C3                 ret
  0000000140006F7F: CC                 int         3
  0000000140006F80: B8 01 00 00 00     mov         eax,1
  0000000140006F85: C3                 ret
  0000000140006F86: CC                 int         3
  0000000140006F87: CC                 int         3
  0000000140006F88: B8 00 40 00 00     mov         eax,4000h
  0000000140006F8D: C3                 ret
  0000000140006F8E: CC                 int         3
  0000000140006F8F: CC                 int         3
  0000000140006F90: 48 8D 0D F9 59 00  lea         rcx,[000000014000C990h]
                    00
  0000000140006F97: 48 FF 25 82 20 00  jmp         qword ptr [0000000140009020h]
                    00
  0000000140006F9E: CC                 int         3
  0000000140006F9F: CC                 int         3
  0000000140006FA0: B0 01              mov         al,1
  0000000140006FA2: C3                 ret
  0000000140006FA3: CC                 int         3
  0000000140006FA4: C2 00 00           ret         0
  0000000140006FA7: CC                 int         3
  0000000140006FA8: 48 8D 05 F1 59 00  lea         rax,[000000014000C9A0h]
                    00
  0000000140006FAF: C3                 ret
  0000000140006FB0: 48 83 EC 28        sub         rsp,28h
  0000000140006FB4: E8 F7 A2 FF FF     call        00000001400012B0
  0000000140006FB9: 48 83 08 24        or          qword ptr [rax],24h
  0000000140006FBD: E8 E6 FF FF FF     call        0000000140006FA8
  0000000140006FC2: 48 83 08 02        or          qword ptr [rax],2
  0000000140006FC6: 48 83 C4 28        add         rsp,28h
  0000000140006FCA: C3                 ret
  0000000140006FCB: CC                 int         3
  0000000140006FCC: 33 C0              xor         eax,eax
  0000000140006FCE: 39 05 30 50 00 00  cmp         dword ptr [000000014000C004h],eax
  0000000140006FD4: 0F 94 C0           sete        al
  0000000140006FD7: C3                 ret
  0000000140006FD8: 48 8D 05 39 6C 00  lea         rax,[000000014000DC18h]
                    00
  0000000140006FDF: C3                 ret
  0000000140006FE0: 48 8D 05 29 6C 00  lea         rax,[000000014000DC10h]
                    00
  0000000140006FE7: C3                 ret
  0000000140006FE8: 83 25 B9 59 00 00  and         dword ptr [000000014000C9A8h],0
                    00
  0000000140006FEF: C3                 ret
  0000000140006FF0: 48 89 5C 24 08     mov         qword ptr [rsp+8],rbx
  0000000140006FF5: 55                 push        rbp
  0000000140006FF6: 48 8D AC 24 40 FB  lea         rbp,[rsp+FFFFFFFFFFFFFB40h]
                    FF FF
  0000000140006FFE: 48 81 EC C0 05 00  sub         rsp,5C0h
                    00
  0000000140007005: 8B D9              mov         ebx,ecx
  0000000140007007: B9 17 00 00 00     mov         ecx,17h
  000000014000700C: E8 23 0F 00 00     call        0000000140007F34
  0000000140007011: 85 C0              test        eax,eax
  0000000140007013: 74 04              je          0000000140007019
  0000000140007015: 8B CB              mov         ecx,ebx
  0000000140007017: CD 29              int         29h
  0000000140007019: B9 03 00 00 00     mov         ecx,3
  000000014000701E: E8 C5 FF FF FF     call        0000000140006FE8
  0000000140007023: 33 D2              xor         edx,edx
  0000000140007025: 48 8D 4D F0        lea         rcx,[rbp-10h]
  0000000140007029: 41 B8 D0 04 00 00  mov         r8d,4D0h
  000000014000702F: E8 3A 0E 00 00     call        0000000140007E6E
  0000000140007034: 48 8D 4D F0        lea         rcx,[rbp-10h]
  0000000140007038: FF 15 EA 1F 00 00  call        qword ptr [0000000140009028h]
  000000014000703E: 48 8B 9D E8 00 00  mov         rbx,qword ptr [rbp+00000000000000E8h]
                    00
  0000000140007045: 48 8D 95 D8 04 00  lea         rdx,[rbp+00000000000004D8h]
                    00
  000000014000704C: 48 8B CB           mov         rcx,rbx
  000000014000704F: 45 33 C0           xor         r8d,r8d
  0000000140007052: FF 15 D8 1F 00 00  call        qword ptr [0000000140009030h]
  0000000140007058: 48 85 C0           test        rax,rax
  000000014000705B: 74 3C              je          0000000140007099
  000000014000705D: 48 83 64 24 38 00  and         qword ptr [rsp+38h],0
  0000000140007063: 48 8D 8D E0 04 00  lea         rcx,[rbp+00000000000004E0h]
                    00
  000000014000706A: 48 8B 95 D8 04 00  mov         rdx,qword ptr [rbp+00000000000004D8h]
                    00
  0000000140007071: 4C 8B C8           mov         r9,rax
  0000000140007074: 48 89 4C 24 30     mov         qword ptr [rsp+30h],rcx
  0000000140007079: 4C 8B C3           mov         r8,rbx
  000000014000707C: 48 8D 8D E8 04 00  lea         rcx,[rbp+00000000000004E8h]
                    00
  0000000140007083: 48 89 4C 24 28     mov         qword ptr [rsp+28h],rcx
  0000000140007088: 48 8D 4D F0        lea         rcx,[rbp-10h]
  000000014000708C: 48 89 4C 24 20     mov         qword ptr [rsp+20h],rcx
  0000000140007091: 33 C9              xor         ecx,ecx
  0000000140007093: FF 15 9F 1F 00 00  call        qword ptr [0000000140009038h]
  0000000140007099: 48 8B 85 C8 04 00  mov         rax,qword ptr [rbp+00000000000004C8h]
                    00
  00000001400070A0: 48 8D 4C 24 50     lea         rcx,[rsp+50h]
  00000001400070A5: 48 89 85 E8 00 00  mov         qword ptr [rbp+00000000000000E8h],rax
                    00
  00000001400070AC: 33 D2              xor         edx,edx
  00000001400070AE: 48 8D 85 C8 04 00  lea         rax,[rbp+00000000000004C8h]
                    00
  00000001400070B5: 41 B8 98 00 00 00  mov         r8d,98h
  00000001400070BB: 48 83 C0 08        add         rax,8
  00000001400070BF: 48 89 85 88 00 00  mov         qword ptr [rbp+0000000000000088h],rax
                    00
  00000001400070C6: E8 A3 0D 00 00     call        0000000140007E6E
  00000001400070CB: 48 8B 85 C8 04 00  mov         rax,qword ptr [rbp+00000000000004C8h]
                    00
  00000001400070D2: 48 89 44 24 60     mov         qword ptr [rsp+60h],rax
  00000001400070D7: C7 44 24 50 15 00  mov         dword ptr [rsp+50h],40000015h
                    00 40
  00000001400070DF: C7 44 24 54 01 00  mov         dword ptr [rsp+54h],1
                    00 00
  00000001400070E7: FF 15 53 1F 00 00  call        qword ptr [0000000140009040h]
  00000001400070ED: 83 F8 01           cmp         eax,1
  00000001400070F0: 48 8D 44 24 50     lea         rax,[rsp+50h]
  00000001400070F5: 48 89 44 24 40     mov         qword ptr [rsp+40h],rax
  00000001400070FA: 48 8D 45 F0        lea         rax,[rbp-10h]
  00000001400070FE: 0F 94 C3           sete        bl
  0000000140007101: 48 89 44 24 48     mov         qword ptr [rsp+48h],rax
  0000000140007106: 33 C9              xor         ecx,ecx
  0000000140007108: FF 15 72 1F 00 00  call        qword ptr [0000000140009080h]
  000000014000710E: 48 8D 4C 24 40     lea         rcx,[rsp+40h]
  0000000140007113: FF 15 37 1F 00 00  call        qword ptr [0000000140009050h]
  0000000140007119: 85 C0              test        eax,eax
  000000014000711B: 75 0C              jne         0000000140007129
  000000014000711D: 84 DB              test        bl,bl
  000000014000711F: 75 08              jne         0000000140007129
  0000000140007121: 8D 48 03           lea         ecx,[rax+3]
  0000000140007124: E8 BF FE FF FF     call        0000000140006FE8
  0000000140007129: 48 8B 9C 24 D0 05  mov         rbx,qword ptr [rsp+00000000000005D0h]
                    00 00
  0000000140007131: 48 81 C4 C0 05 00  add         rsp,5C0h
                    00
  0000000140007138: 5D                 pop         rbp
  0000000140007139: C3                 ret
  000000014000713A: CC                 int         3
  000000014000713B: CC                 int         3
  000000014000713C: E9 3B FE FF FF     jmp         0000000140006F7C
  0000000140007141: CC                 int         3
  0000000140007142: CC                 int         3
  0000000140007143: CC                 int         3
  0000000140007144: 48 83 EC 28        sub         rsp,28h
  0000000140007148: 33 C9              xor         ecx,ecx
  000000014000714A: FF 15 20 1F 00 00  call        qword ptr [0000000140009070h]
  0000000140007150: 48 85 C0           test        rax,rax
  0000000140007153: 74 3A              je          000000014000718F
  0000000140007155: B9 4D 5A 00 00     mov         ecx,5A4Dh
  000000014000715A: 66 39 08           cmp         word ptr [rax],cx
  000000014000715D: 75 30              jne         000000014000718F
  000000014000715F: 48 63 48 3C        movsxd      rcx,dword ptr [rax+3Ch]
  0000000140007163: 48 03 C8           add         rcx,rax
  0000000140007166: 81 39 50 45 00 00  cmp         dword ptr [rcx],4550h
  000000014000716C: 75 21              jne         000000014000718F
  000000014000716E: B8 0B 02 00 00     mov         eax,20Bh
  0000000140007173: 66 39 41 18        cmp         word ptr [rcx+18h],ax
  0000000140007177: 75 16              jne         000000014000718F
  0000000140007179: 83 B9 84 00 00 00  cmp         dword ptr [rcx+0000000000000084h],0Eh
                    0E
  0000000140007180: 76 0D              jbe         000000014000718F
  0000000140007182: 83 B9 F8 00 00 00  cmp         dword ptr [rcx+00000000000000F8h],0
                    00
  0000000140007189: 74 04              je          000000014000718F
  000000014000718B: B0 01              mov         al,1
  000000014000718D: EB 02              jmp         0000000140007191
  000000014000718F: 32 C0              xor         al,al
  0000000140007191: 48 83 C4 28        add         rsp,28h
  0000000140007195: C3                 ret
  0000000140007196: CC                 int         3
  0000000140007197: CC                 int         3
  0000000140007198: 48 8D 0D 09 00 00  lea         rcx,[00000001400071A8h]
                    00
  000000014000719F: 48 FF 25 DA 1E 00  jmp         qword ptr [0000000140009080h]
                    00
  00000001400071A6: CC                 int         3
  00000001400071A7: CC                 int         3
  00000001400071A8: 48 89 5C 24 08     mov         qword ptr [rsp+8],rbx
  00000001400071AD: 57                 push        rdi
  00000001400071AE: 48 83 EC 20        sub         rsp,20h
  00000001400071B2: 48 8B 19           mov         rbx,qword ptr [rcx]
  00000001400071B5: 48 8B F9           mov         rdi,rcx
  00000001400071B8: 81 3B 63 73 6D E0  cmp         dword ptr [rbx],0E06D7363h
  00000001400071BE: 75 1C              jne         00000001400071DC
  00000001400071C0: 83 7B 18 04        cmp         dword ptr [rbx+18h],4
  00000001400071C4: 75 16              jne         00000001400071DC
  00000001400071C6: 8B 53 20           mov         edx,dword ptr [rbx+20h]
  00000001400071C9: 8D 82 E0 FA 6C E6  lea         eax,[rdx+FFFFFFFFE66CFAE0h]
  00000001400071CF: 83 F8 02           cmp         eax,2
  00000001400071D2: 76 15              jbe         00000001400071E9
  00000001400071D4: 81 FA 00 40 99 01  cmp         edx,1994000h
  00000001400071DA: 74 0D              je          00000001400071E9
  00000001400071DC: 48 8B 5C 24 30     mov         rbx,qword ptr [rsp+30h]
  00000001400071E1: 33 C0              xor         eax,eax
  00000001400071E3: 48 83 C4 20        add         rsp,20h
  00000001400071E7: 5F                 pop         rdi
  00000001400071E8: C3                 ret
  00000001400071E9: E8 74 0C 00 00     call        0000000140007E62
  00000001400071EE: 48 89 18           mov         qword ptr [rax],rbx
  00000001400071F1: 48 8B 5F 08        mov         rbx,qword ptr [rdi+8]
  00000001400071F5: E8 6E 0C 00 00     call        0000000140007E68
  00000001400071FA: 48 89 18           mov         qword ptr [rax],rbx
  00000001400071FD: E8 08 0D 00 00     call        0000000140007F0A
  0000000140007202: CC                 int         3
  0000000140007203: CC                 int         3
  0000000140007204: 48 89 5C 24 08     mov         qword ptr [rsp+8],rbx
  0000000140007209: 57                 push        rdi
  000000014000720A: 48 83 EC 20        sub         rsp,20h
  000000014000720E: 48 8D 1D CB 3D 00  lea         rbx,[000000014000AFE0h]
                    00
  0000000140007215: 48 8D 3D C4 3D 00  lea         rdi,[000000014000AFE0h]
                    00
  000000014000721C: EB 12              jmp         0000000140007230
  000000014000721E: 48 8B 03           mov         rax,qword ptr [rbx]
  0000000140007221: 48 85 C0           test        rax,rax
  0000000140007224: 74 06              je          000000014000722C
  0000000140007226: FF 15 0C 20 00 00  call        qword ptr [0000000140009238h]
  000000014000722C: 48 83 C3 08        add         rbx,8
  0000000140007230: 48 3B DF           cmp         rbx,rdi
  0000000140007233: 72 E9              jb          000000014000721E
  0000000140007235: 48 8B 5C 24 30     mov         rbx,qword ptr [rsp+30h]
  000000014000723A: 48 83 C4 20        add         rsp,20h
  000000014000723E: 5F                 pop         rdi
  000000014000723F: C3                 ret
  0000000140007240: 48 89 5C 24 08     mov         qword ptr [rsp+8],rbx
  0000000140007245: 57                 push        rdi
  0000000140007246: 48 83 EC 20        sub         rsp,20h
  000000014000724A: 48 8D 1D 9F 3D 00  lea         rbx,[000000014000AFF0h]
                    00
  0000000140007251: 48 8D 3D 98 3D 00  lea         rdi,[000000014000AFF0h]
                    00
  0000000140007258: EB 12              jmp         000000014000726C
  000000014000725A: 48 8B 03           mov         rax,qword ptr [rbx]
  000000014000725D: 48 85 C0           test        rax,rax
  0000000140007260: 74 06              je          0000000140007268
  0000000140007262: FF 15 D0 1F 00 00  call        qword ptr [0000000140009238h]
  0000000140007268: 48 83 C3 08        add         rbx,8
  000000014000726C: 48 3B DF           cmp         rbx,rdi
  000000014000726F: 72 E9              jb          000000014000725A
  0000000140007271: 48 8B 5C 24 30     mov         rbx,qword ptr [rsp+30h]
  0000000140007276: 48 83 C4 20        add         rsp,20h
  000000014000727A: 5F                 pop         rdi
  000000014000727B: C3                 ret
  000000014000727C: 40 53              push        rbx
  000000014000727E: 48 83 EC 20        sub         rsp,20h
  0000000140007282: 48 8D 05 EF 20 00  lea         rax,[0000000140009378h]
                    00
  0000000140007289: 48 8B D9           mov         rbx,rcx
  000000014000728C: 48 89 01           mov         qword ptr [rcx],rax
  000000014000728F: F6 C2 01           test        dl,1
  0000000140007292: 74 0A              je          000000014000729E
  0000000140007294: BA 18 00 00 00     mov         edx,18h
  0000000140007299: E8 46 F5 FF FF     call        00000001400067E4
  000000014000729E: 48 8B C3           mov         rax,rbx
  00000001400072A1: 48 83 C4 20        add         rsp,20h
  00000001400072A5: 5B                 pop         rbx
  00000001400072A6: C3                 ret
  00000001400072A7: CC                 int         3
  00000001400072A8: 48 89 5C 24 10     mov         qword ptr [rsp+10h],rbx
  00000001400072AD: 48 89 74 24 18     mov         qword ptr [rsp+18h],rsi
  00000001400072B2: 57                 push        rdi
  00000001400072B3: 48 83 EC 10        sub         rsp,10h
  00000001400072B7: 33 C0              xor         eax,eax
  00000001400072B9: 33 C9              xor         ecx,ecx
  00000001400072BB: 0F A2              cpuid
  00000001400072BD: 44 8B C1           mov         r8d,ecx
  00000001400072C0: 45 33 DB           xor         r11d,r11d
  00000001400072C3: 44 8B CB           mov         r9d,ebx
  00000001400072C6: 41 81 F0 6E 74 65  xor         r8d,6C65746Eh
                    6C
  00000001400072CD: 41 81 F1 47 65 6E  xor         r9d,756E6547h
                    75
  00000001400072D4: 44 8B D2           mov         r10d,edx
  00000001400072D7: 8B F0              mov         esi,eax
  00000001400072D9: 33 C9              xor         ecx,ecx
  00000001400072DB: 41 8D 43 01        lea         eax,[r11+1]
  00000001400072DF: 45 0B C8           or          r9d,r8d
  00000001400072E2: 0F A2              cpuid
  00000001400072E4: 41 81 F2 69 6E 65  xor         r10d,49656E69h
                    49
  00000001400072EB: 89 04 24           mov         dword ptr [rsp],eax
  00000001400072EE: 45 0B CA           or          r9d,r10d
  00000001400072F1: 89 5C 24 04        mov         dword ptr [rsp+4],ebx
  00000001400072F5: 8B F9              mov         edi,ecx
  00000001400072F7: 89 4C 24 08        mov         dword ptr [rsp+8],ecx
  00000001400072FB: 89 54 24 0C        mov         dword ptr [rsp+0Ch],edx
  00000001400072FF: 75 50              jne         0000000140007351
  0000000140007301: 48 83 0D 07 4D 00  or          qword ptr [000000014000C010h],0FFFFFFFFFFFFFFFFh
                    00 FF
  0000000140007309: 25 F0 3F FF 0F     and         eax,0FFF3FF0h
  000000014000730E: 3D C0 06 01 00     cmp         eax,106C0h
  0000000140007313: 74 28              je          000000014000733D
  0000000140007315: 3D 60 06 02 00     cmp         eax,20660h
  000000014000731A: 74 21              je          000000014000733D
  000000014000731C: 3D 70 06 02 00     cmp         eax,20670h
  0000000140007321: 74 1A              je          000000014000733D
  0000000140007323: 05 B0 F9 FC FF     add         eax,0FFFCF9B0h
  0000000140007328: 83 F8 20           cmp         eax,20h
  000000014000732B: 77 24              ja          0000000140007351
  000000014000732D: 48 B9 01 00 01 00  mov         rcx,100010001h
                    01 00 00 00
  0000000140007337: 48 0F A3 C1        bt          rcx,rax
  000000014000733B: 73 14              jae         0000000140007351
  000000014000733D: 44 8B 05 68 56 00  mov         r8d,dword ptr [000000014000C9ACh]
                    00
  0000000140007344: 41 83 C8 01        or          r8d,1
  0000000140007348: 44 89 05 5D 56 00  mov         dword ptr [000000014000C9ACh],r8d
                    00
  000000014000734F: EB 07              jmp         0000000140007358
  0000000140007351: 44 8B 05 54 56 00  mov         r8d,dword ptr [000000014000C9ACh]
                    00
  0000000140007358: B8 07 00 00 00     mov         eax,7
  000000014000735D: 44 8D 48 FB        lea         r9d,[rax-5]
  0000000140007361: 3B F0              cmp         esi,eax
  0000000140007363: 7C 26              jl          000000014000738B
  0000000140007365: 33 C9              xor         ecx,ecx
  0000000140007367: 0F A2              cpuid
  0000000140007369: 89 04 24           mov         dword ptr [rsp],eax
  000000014000736C: 44 8B DB           mov         r11d,ebx
  000000014000736F: 89 5C 24 04        mov         dword ptr [rsp+4],ebx
  0000000140007373: 89 4C 24 08        mov         dword ptr [rsp+8],ecx
  0000000140007377: 89 54 24 0C        mov         dword ptr [rsp+0Ch],edx
  000000014000737B: 0F BA E3 09        bt          ebx,9
  000000014000737F: 73 0A              jae         000000014000738B
  0000000140007381: 45 0B C1           or          r8d,r9d
  0000000140007384: 44 89 05 21 56 00  mov         dword ptr [000000014000C9ACh],r8d
                    00
  000000014000738B: C7 05 73 4C 00 00  mov         dword ptr [000000014000C008h],1
                    01 00 00 00
  0000000140007395: 44 89 0D 70 4C 00  mov         dword ptr [000000014000C00Ch],r9d
                    00
  000000014000739C: 0F BA E7 14        bt          edi,14h
  00000001400073A0: 0F 83 91 00 00 00  jae         0000000140007437
  00000001400073A6: 44 89 0D 5B 4C 00  mov         dword ptr [000000014000C008h],r9d
                    00
  00000001400073AD: BB 06 00 00 00     mov         ebx,6
  00000001400073B2: 89 1D 54 4C 00 00  mov         dword ptr [000000014000C00Ch],ebx
  00000001400073B8: 0F BA E7 1B        bt          edi,1Bh
  00000001400073BC: 73 79              jae         0000000140007437
  00000001400073BE: 0F BA E7 1C        bt          edi,1Ch
  00000001400073C2: 73 73              jae         0000000140007437
  00000001400073C4: 33 C9              xor         ecx,ecx
  00000001400073C6: 0F 01 D0           xgetbv
  00000001400073C9: 48 C1 E2 20        shl         rdx,20h
  00000001400073CD: 48 0B D0           or          rdx,rax
  00000001400073D0: 48 89 54 24 20     mov         qword ptr [rsp+20h],rdx
  00000001400073D5: 48 8B 44 24 20     mov         rax,qword ptr [rsp+20h]
  00000001400073DA: 22 C3              and         al,bl
  00000001400073DC: 3A C3              cmp         al,bl
  00000001400073DE: 75 57              jne         0000000140007437
  00000001400073E0: 8B 05 26 4C 00 00  mov         eax,dword ptr [000000014000C00Ch]
  00000001400073E6: 83 C8 08           or          eax,8
  00000001400073E9: C7 05 15 4C 00 00  mov         dword ptr [000000014000C008h],3
                    03 00 00 00
  00000001400073F3: 89 05 13 4C 00 00  mov         dword ptr [000000014000C00Ch],eax
  00000001400073F9: 41 F6 C3 20        test        r11b,20h
  00000001400073FD: 74 38              je          0000000140007437
  00000001400073FF: 83 C8 20           or          eax,20h
  0000000140007402: C7 05 FC 4B 00 00  mov         dword ptr [000000014000C008h],5
                    05 00 00 00
  000000014000740C: 89 05 FA 4B 00 00  mov         dword ptr [000000014000C00Ch],eax
  0000000140007412: B8 00 00 03 D0     mov         eax,0D0030000h
  0000000140007417: 44 23 D8           and         r11d,eax
  000000014000741A: 44 3B D8           cmp         r11d,eax
  000000014000741D: 75 18              jne         0000000140007437
  000000014000741F: 48 8B 44 24 20     mov         rax,qword ptr [rsp+20h]
  0000000140007424: 24 E0              and         al,0E0h
  0000000140007426: 3C E0              cmp         al,0E0h
  0000000140007428: 75 0D              jne         0000000140007437
  000000014000742A: 83 0D DB 4B 00 00  or          dword ptr [000000014000C00Ch],40h
                    40
  0000000140007431: 89 1D D1 4B 00 00  mov         dword ptr [000000014000C008h],ebx
  0000000140007437: 48 8B 5C 24 28     mov         rbx,qword ptr [rsp+28h]
  000000014000743C: 33 C0              xor         eax,eax
  000000014000743E: 48 8B 74 24 30     mov         rsi,qword ptr [rsp+30h]
  0000000140007443: 48 83 C4 10        add         rsp,10h
  0000000140007447: 5F                 pop         rdi
  0000000140007448: C3                 ret
  0000000140007449: CC                 int         3
  000000014000744A: CC                 int         3
  000000014000744B: CC                 int         3
  000000014000744C: 33 C0              xor         eax,eax
  000000014000744E: 39 05 2C 54 00 00  cmp         dword ptr [000000014000C880h],eax
  0000000140007454: 0F 95 C0           setne       al
  0000000140007457: C3                 ret
  0000000140007458: CC                 int         3
  0000000140007459: CC                 int         3
  000000014000745A: CC                 int         3
  000000014000745B: CC                 int         3
  000000014000745C: CC                 int         3
  000000014000745D: CC                 int         3
  000000014000745E: CC                 int         3
  000000014000745F: CC                 int         3
  0000000140007460: 49 83 F8 01        cmp         r8,1
  0000000140007464: 48 8B C1           mov         rax,rcx
  0000000140007467: 75 03              jne         000000014000746C
  0000000140007469: 88 11              mov         byte ptr [rcx],dl
  000000014000746B: C3                 ret
  000000014000746C: 49 B9 01 01 01 01  mov         r9,101010101010101h
                    01 01 01 01
  0000000140007476: 7C 2F              jl          00000001400074A7
  0000000140007478: 48 81 E2 FF 00 00  and         rdx,0FFh
                    00
  000000014000747F: 49 0F AF D1        imul        rdx,r9
  0000000140007483: 48 F7 C1 07 00 00  test        rcx,7
                    00
  000000014000748A: 75 24              jne         00000001400074B0
  000000014000748C: 4C 8D 1D AD 8B 00  lea         r11,[0000000140010040h]
                    00
  0000000140007493: 49 81 F8 80 00 00  cmp         r8,80h
                    00
  000000014000749A: 0F 8D A7 02 00 00  jge         0000000140007747
  00000001400074A0: 49 03 C8           add         rcx,r8
  00000001400074A3: 43 FF 24 C3        jmp         qword ptr [r11+r8*8]
  00000001400074A7: C3                 ret
  00000001400074A8: 0F 1F 84 00 00 00  nop         dword ptr [rax+rax+0000000000000000h]
                    00 00
  00000001400074B0: 49 83 F8 08        cmp         r8,8
  00000001400074B4: 7E D6              jle         000000014000748C
  00000001400074B6: 4C 8D 1D 43 8B 00  lea         r11,[0000000140010000h]
                    00
  00000001400074BD: 4C 8B C9           mov         r9,rcx
  00000001400074C0: 49 83 E1 07        and         r9,7
  00000001400074C4: 49 F7 D9           neg         r9
  00000001400074C7: 49 83 C1 08        add         r9,8
  00000001400074CB: 49 03 C9           add         rcx,r9
  00000001400074CE: 4D 2B C1           sub         r8,r9
  00000001400074D1: 43 FF 24 CB        jmp         qword ptr [r11+r9*8]
  00000001400074D5: 66 66 66 0F 1F 84  nop         word ptr [rax+rax+0000000000000000h]
                    00 00 00 00 00
  00000001400074E0: 89 51 FC           mov         dword ptr [rcx-4],edx
  00000001400074E3: EB A7              jmp         000000014000748C
  00000001400074E5: 89 51 FB           mov         dword ptr [rcx-5],edx
  00000001400074E8: 88 51 FF           mov         byte ptr [rcx-1],dl
  00000001400074EB: EB 9F              jmp         000000014000748C
  00000001400074ED: 89 51 FA           mov         dword ptr [rcx-6],edx
  00000001400074F0: 66 89 51 FE        mov         word ptr [rcx-2],dx
  00000001400074F4: EB 96              jmp         000000014000748C
  00000001400074F6: 89 51 F9           mov         dword ptr [rcx-7],edx
  00000001400074F9: 66 89 51 FD        mov         word ptr [rcx-3],dx
  00000001400074FD: 88 51 FF           mov         byte ptr [rcx-1],dl
  0000000140007500: EB 8A              jmp         000000014000748C
  0000000140007502: 48 89 91 7F FF FF  mov         qword ptr [rcx+FFFFFFFFFFFFFF7Fh],rdx
                    FF
  0000000140007509: 48 89 51 87        mov         qword ptr [rcx-79h],rdx
  000000014000750D: 48 89 51 8F        mov         qword ptr [rcx-71h],rdx
  0000000140007511: 48 89 51 97        mov         qword ptr [rcx-69h],rdx
  0000000140007515: 48 89 51 9F        mov         qword ptr [rcx-61h],rdx
  0000000140007519: 48 89 51 A7        mov         qword ptr [rcx-59h],rdx
  000000014000751D: 48 89 51 AF        mov         qword ptr [rcx-51h],rdx
  0000000140007521: 48 89 51 B7        mov         qword ptr [rcx-49h],rdx
  0000000140007525: 48 89 51 BF        mov         qword ptr [rcx-41h],rdx
  0000000140007529: 48 89 51 C7        mov         qword ptr [rcx-39h],rdx
  000000014000752D: 48 89 51 CF        mov         qword ptr [rcx-31h],rdx
  0000000140007531: 48 89 51 D7        mov         qword ptr [rcx-29h],rdx
  0000000140007535: 48 89 51 DF        mov         qword ptr [rcx-21h],rdx
  0000000140007539: 48 89 51 E7        mov         qword ptr [rcx-19h],rdx
  000000014000753D: 48 89 51 EF        mov         qword ptr [rcx-11h],rdx
  0000000140007541: 48 89 51 F7        mov         qword ptr [rcx-9],rdx
  0000000140007545: 88 51 FF           mov         byte ptr [rcx-1],dl
  0000000140007548: C3                 ret
  0000000140007549: 48 89 51 80        mov         qword ptr [rcx-80h],rdx
  000000014000754D: 48 89 51 88        mov         qword ptr [rcx-78h],rdx
  0000000140007551: 48 89 51 90        mov         qword ptr [rcx-70h],rdx
  0000000140007555: 48 89 51 98        mov         qword ptr [rcx-68h],rdx
  0000000140007559: 48 89 51 A0        mov         qword ptr [rcx-60h],rdx
  000000014000755D: 48 89 51 A8        mov         qword ptr [rcx-58h],rdx
  0000000140007561: 48 89 51 B0        mov         qword ptr [rcx-50h],rdx
  0000000140007565: 48 89 51 B8        mov         qword ptr [rcx-48h],rdx
  0000000140007569: 48 89 51 C0        mov         qword ptr [rcx-40h],rdx
  000000014000756D: 48 89 51 C8        mov         qword ptr [rcx-38h],rdx
  0000000140007571: 48 89 51 D0        mov         qword ptr [rcx-30h],rdx
  0000000140007575: 48 89 51 D8        mov         qword ptr [rcx-28h],rdx
  0000000140007579: 48 89 51 E0        mov         qword ptr [rcx-20h],rdx
  000000014000757D: 48 89 51 E8        mov         qword ptr [rcx-18h],rdx
  0000000140007581: 48 89 51 F0        mov         qword ptr [rcx-10h],rdx
  0000000140007585: 48 89 51 F8        mov         qword ptr [rcx-8],rdx
  0000000140007589: C3                 ret
  000000014000758A: 48 89 91 7E FF FF  mov         qword ptr [rcx+FFFFFFFFFFFFFF7Eh],rdx
                    FF
  0000000140007591: 48 89 51 86        mov         qword ptr [rcx-7Ah],rdx
  0000000140007595: 48 89 51 8E        mov         qword ptr [rcx-72h],rdx
  0000000140007599: 48 89 51 96        mov         qword ptr [rcx-6Ah],rdx
  000000014000759D: 48 89 51 9E        mov         qword ptr [rcx-62h],rdx
  00000001400075A1: 48 89 51 A6        mov         qword ptr [rcx-5Ah],rdx
  00000001400075A5: 48 89 51 AE        mov         qword ptr [rcx-52h],rdx
  00000001400075A9: 48 89 51 B6        mov         qword ptr [rcx-4Ah],rdx
  00000001400075AD: 48 89 51 BE        mov         qword ptr [rcx-42h],rdx
  00000001400075B1: 48 89 51 C6        mov         qword ptr [rcx-3Ah],rdx
  00000001400075B5: 48 89 51 CE        mov         qword ptr [rcx-32h],rdx
  00000001400075B9: 48 89 51 D6        mov         qword ptr [rcx-2Ah],rdx
  00000001400075BD: 48 89 51 DE        mov         qword ptr [rcx-22h],rdx
  00000001400075C1: 48 89 51 E6        mov         qword ptr [rcx-1Ah],rdx
  00000001400075C5: 48 89 51 EE        mov         qword ptr [rcx-12h],rdx
  00000001400075C9: 48 89 51 F6        mov         qword ptr [rcx-0Ah],rdx
  00000001400075CD: 66 89 51 FE        mov         word ptr [rcx-2],dx
  00000001400075D1: C3                 ret
  00000001400075D2: 48 89 91 7D FF FF  mov         qword ptr [rcx+FFFFFFFFFFFFFF7Dh],rdx
                    FF
  00000001400075D9: 48 89 51 85        mov         qword ptr [rcx-7Bh],rdx
  00000001400075DD: 48 89 51 8D        mov         qword ptr [rcx-73h],rdx
  00000001400075E1: 48 89 51 95        mov         qword ptr [rcx-6Bh],rdx
  00000001400075E5: 48 89 51 9D        mov         qword ptr [rcx-63h],rdx
  00000001400075E9: 48 89 51 A5        mov         qword ptr [rcx-5Bh],rdx
  00000001400075ED: 48 89 51 AD        mov         qword ptr [rcx-53h],rdx
  00000001400075F1: 48 89 51 B5        mov         qword ptr [rcx-4Bh],rdx
  00000001400075F5: 48 89 51 BD        mov         qword ptr [rcx-43h],rdx
  00000001400075F9: 48 89 51 C5        mov         qword ptr [rcx-3Bh],rdx
  00000001400075FD: 48 89 51 CD        mov         qword ptr [rcx-33h],rdx
  0000000140007601: 48 89 51 D5        mov         qword ptr [rcx-2Bh],rdx
  0000000140007605: 48 89 51 DD        mov         qword ptr [rcx-23h],rdx
  0000000140007609: 48 89 51 E5        mov         qword ptr [rcx-1Bh],rdx
  000000014000760D: 48 89 51 ED        mov         qword ptr [rcx-13h],rdx
  0000000140007611: 48 89 51 F5        mov         qword ptr [rcx-0Bh],rdx
  0000000140007615: 66 89 51 FD        mov         word ptr [rcx-3],dx
  0000000140007619: 88 51 FF           mov         byte ptr [rcx-1],dl
  000000014000761C: C3                 ret
  000000014000761D: 48 89 91 7C FF FF  mov         qword ptr [rcx+FFFFFFFFFFFFFF7Ch],rdx
                    FF
  0000000140007624: 48 89 51 84        mov         qword ptr [rcx-7Ch],rdx
  0000000140007628: 48 89 51 8C        mov         qword ptr [rcx-74h],rdx
  000000014000762C: 48 89 51 94        mov         qword ptr [rcx-6Ch],rdx
  0000000140007630: 48 89 51 9C        mov         qword ptr [rcx-64h],rdx
  0000000140007634: 48 89 51 A4        mov         qword ptr [rcx-5Ch],rdx
  0000000140007638: 48 89 51 AC        mov         qword ptr [rcx-54h],rdx
  000000014000763C: 48 89 51 B4        mov         qword ptr [rcx-4Ch],rdx
  0000000140007640: 48 89 51 BC        mov         qword ptr [rcx-44h],rdx
  0000000140007644: 48 89 51 C4        mov         qword ptr [rcx-3Ch],rdx
  0000000140007648: 48 89 51 CC        mov         qword ptr [rcx-34h],rdx
  000000014000764C: 48 89 51 D4        mov         qword ptr [rcx-2Ch],rdx
  0000000140007650: 48 89 51 DC        mov         qword ptr [rcx-24h],rdx
  0000000140007654: 48 89 51 E4        mov         qword ptr [rcx-1Ch],rdx
  0000000140007658: 48 89 51 EC        mov         qword ptr [rcx-14h],rdx
  000000014000765C: 48 89 51 F4        mov         qword ptr [rcx-0Ch],rdx
  0000000140007660: 89 51 FC           mov         dword ptr [rcx-4],edx
  0000000140007663: C3                 ret
  0000000140007664: 48 89 91 7C FF FF  mov         qword ptr [rcx+FFFFFFFFFFFFFF7Ch],rdx
                    FF
  000000014000766B: 48 89 51 83        mov         qword ptr [rcx-7Dh],rdx
  000000014000766F: 48 89 51 8B        mov         qword ptr [rcx-75h],rdx
  0000000140007673: 48 89 51 93        mov         qword ptr [rcx-6Dh],rdx
  0000000140007677: 48 89 51 9B        mov         qword ptr [rcx-65h],rdx
  000000014000767B: 48 89 51 A3        mov         qword ptr [rcx-5Dh],rdx
  000000014000767F: 48 89 51 AB        mov         qword ptr [rcx-55h],rdx
  0000000140007683: 48 89 51 B3        mov         qword ptr [rcx-4Dh],rdx
  0000000140007687: 48 89 51 BB        mov         qword ptr [rcx-45h],rdx
  000000014000768B: 48 89 51 C3        mov         qword ptr [rcx-3Dh],rdx
  000000014000768F: 48 89 51 CB        mov         qword ptr [rcx-35h],rdx
  0000000140007693: 48 89 51 D3        mov         qword ptr [rcx-2Dh],rdx
  0000000140007697: 48 89 51 DB        mov         qword ptr [rcx-25h],rdx
  000000014000769B: 48 89 51 E3        mov         qword ptr [rcx-1Dh],rdx
  000000014000769F: 48 89 51 EB        mov         qword ptr [rcx-15h],rdx
  00000001400076A3: 48 89 51 F3        mov         qword ptr [rcx-0Dh],rdx
  00000001400076A7: 89 51 FB           mov         dword ptr [rcx-5],edx
  00000001400076AA: 88 51 FF           mov         byte ptr [rcx-1],dl
  00000001400076AD: C3                 ret
  00000001400076AE: 48 89 91 7A FF FF  mov         qword ptr [rcx+FFFFFFFFFFFFFF7Ah],rdx
                    FF
  00000001400076B5: 48 89 51 82        mov         qword ptr [rcx-7Eh],rdx
  00000001400076B9: 48 89 51 8A        mov         qword ptr [rcx-76h],rdx
  00000001400076BD: 48 89 51 92        mov         qword ptr [rcx-6Eh],rdx
  00000001400076C1: 48 89 51 9A        mov         qword ptr [rcx-66h],rdx
  00000001400076C5: 48 89 51 A2        mov         qword ptr [rcx-5Eh],rdx
  00000001400076C9: 48 89 51 AA        mov         qword ptr [rcx-56h],rdx
  00000001400076CD: 48 89 51 B2        mov         qword ptr [rcx-4Eh],rdx
  00000001400076D1: 48 89 51 BA        mov         qword ptr [rcx-46h],rdx
  00000001400076D5: 48 89 51 C2        mov         qword ptr [rcx-3Eh],rdx
  00000001400076D9: 48 89 51 CA        mov         qword ptr [rcx-36h],rdx
  00000001400076DD: 48 89 51 D2        mov         qword ptr [rcx-2Eh],rdx
  00000001400076E1: 48 89 51 DA        mov         qword ptr [rcx-26h],rdx
  00000001400076E5: 48 89 51 E2        mov         qword ptr [rcx-1Eh],rdx
  00000001400076E9: 48 89 51 EA        mov         qword ptr [rcx-16h],rdx
  00000001400076ED: 48 89 51 F2        mov         qword ptr [rcx-0Eh],rdx
  00000001400076F1: 89 51 FA           mov         dword ptr [rcx-6],edx
  00000001400076F4: 66 89 51 FE        mov         word ptr [rcx-2],dx
  00000001400076F8: C3                 ret
  00000001400076F9: 48 89 91 79 FF FF  mov         qword ptr [rcx+FFFFFFFFFFFFFF79h],rdx
                    FF
  0000000140007700: 48 89 51 81        mov         qword ptr [rcx-7Fh],rdx
  0000000140007704: 48 89 51 89        mov         qword ptr [rcx-77h],rdx
  0000000140007708: 48 89 51 91        mov         qword ptr [rcx-6Fh],rdx
  000000014000770C: 48 89 51 99        mov         qword ptr [rcx-67h],rdx
  0000000140007710: 48 89 51 A1        mov         qword ptr [rcx-5Fh],rdx
  0000000140007714: 48 89 51 A9        mov         qword ptr [rcx-57h],rdx
  0000000140007718: 48 89 51 B1        mov         qword ptr [rcx-4Fh],rdx
  000000014000771C: 48 89 51 B9        mov         qword ptr [rcx-47h],rdx
  0000000140007720: 48 89 51 C1        mov         qword ptr [rcx-3Fh],rdx
  0000000140007724: 48 89 51 C9        mov         qword ptr [rcx-37h],rdx
  0000000140007728: 48 89 51 D1        mov         qword ptr [rcx-2Fh],rdx
  000000014000772C: 48 89 51 D9        mov         qword ptr [rcx-27h],rdx
  0000000140007730: 48 89 51 E1        mov         qword ptr [rcx-1Fh],rdx
  0000000140007734: 48 89 51 E9        mov         qword ptr [rcx-17h],rdx
  0000000140007738: 48 89 51 F1        mov         qword ptr [rcx-0Fh],rdx
  000000014000773C: 89 51 F9           mov         dword ptr [rcx-7],edx
  000000014000773F: 66 89 51 FD        mov         word ptr [rcx-3],dx
  0000000140007743: 88 51 FF           mov         byte ptr [rcx-1],dl
  0000000140007746: C3                 ret
  0000000140007747: 83 3D 3E 5F 00 00  cmp         dword ptr [000000014000D68Ch],2
                    02
  000000014000774E: 0F 8C 4C 06 00 00  jl          0000000140007DA0
  0000000140007754: 66 48 0F 6E C2     movq        xmm0,rdx
  0000000140007759: 66 0F 6C C0        punpcklqdq  xmm0,xmm0
  000000014000775D: 4C 8D 1D 1C 8D 00  lea         r11,[0000000140010480h]
                    00
  0000000140007764: 49 C7 C2 10 00 00  mov         r10,10h
                    00
  000000014000776B: 4C 8B C9           mov         r9,rcx
  000000014000776E: 49 83 E1 0F        and         r9,0Fh
  0000000140007772: 4D 2B D1           sub         r10,r9
  0000000140007775: 49 83 E2 0F        and         r10,0Fh
  0000000140007779: 49 03 CA           add         rcx,r10
  000000014000777C: 4D 2B C2           sub         r8,r10
  000000014000777F: 43 FF 24 D3        jmp         qword ptr [r11+r10*8]
  0000000140007783: EB 56              jmp         00000001400077DB
  0000000140007785: 48 89 51 F8        mov         qword ptr [rcx-8],rdx
  0000000140007789: EB 50              jmp         00000001400077DB
  000000014000778B: 48 89 51 F7        mov         qword ptr [rcx-9],rdx
  000000014000778F: 88 51 FF           mov         byte ptr [rcx-1],dl
  0000000140007792: EB 47              jmp         00000001400077DB
  0000000140007794: 48 89 51 F6        mov         qword ptr [rcx-0Ah],rdx
  0000000140007798: 66 89 51 FE        mov         word ptr [rcx-2],dx
  000000014000779C: EB 3D              jmp         00000001400077DB
  000000014000779E: 48 89 51 F5        mov         qword ptr [rcx-0Bh],rdx
  00000001400077A2: 66 89 51 FD        mov         word ptr [rcx-3],dx
  00000001400077A6: 88 51 FF           mov         byte ptr [rcx-1],dl
  00000001400077A9: EB 30              jmp         00000001400077DB
  00000001400077AB: 48 89 51 F4        mov         qword ptr [rcx-0Ch],rdx
  00000001400077AF: 89 51 FC           mov         dword ptr [rcx-4],edx
  00000001400077B2: EB 27              jmp         00000001400077DB
  00000001400077B4: 48 89 51 F3        mov         qword ptr [rcx-0Dh],rdx
  00000001400077B8: 89 51 FB           mov         dword ptr [rcx-5],edx
  00000001400077BB: 88 51 FF           mov         byte ptr [rcx-1],dl
  00000001400077BE: EB 1B              jmp         00000001400077DB
  00000001400077C0: 48 89 51 F2        mov         qword ptr [rcx-0Eh],rdx
  00000001400077C4: 89 51 FA           mov         dword ptr [rcx-6],edx
  00000001400077C7: 66 89 51 FE        mov         word ptr [rcx-2],dx
  00000001400077CB: EB 0E              jmp         00000001400077DB
  00000001400077CD: 48 89 51 F1        mov         qword ptr [rcx-0Fh],rdx
  00000001400077D1: 89 51 F9           mov         dword ptr [rcx-7],edx
  00000001400077D4: 66 89 51 FD        mov         word ptr [rcx-3],dx
  00000001400077D8: 88 51 FF           mov         byte ptr [rcx-1],dl
  00000001400077DB: 4C 8D 1D 2E 8D 00  lea         r11,[0000000140010510h]
                    00
  00000001400077E2: 49 81 F8 B0 00 00  cmp         r8,0B0h
                    00
  00000001400077E9: 0F 8D F4 04 00 00  jge         0000000140007CE3
  00000001400077EF: 49 03 C8           add         rcx,r8
  00000001400077F2: 43 FF 24 C3        jmp         qword ptr [r11+r8*8]
  00000001400077F6: 89 11              mov         dword ptr [rcx],edx
  00000001400077F8: 48 83 C1 04        add         rcx,4
  00000001400077FC: 49 83 E8 04        sub         r8,4
  0000000140007800: 48 F7 C1 0F 00 00  test        rcx,0Fh
                    00
  0000000140007807: 74 D2              je          00000001400077DB
  0000000140007809: 89 11              mov         dword ptr [rcx],edx
  000000014000780B: 48 83 C1 04        add         rcx,4
  000000014000780F: 49 83 E8 04        sub         r8,4
  0000000140007813: 48 F7 C1 0F 00 00  test        rcx,0Fh
                    00
  000000014000781A: 74 BF              je          00000001400077DB
  000000014000781C: 89 11              mov         dword ptr [rcx],edx
  000000014000781E: 48 83 C1 04        add         rcx,4
  0000000140007822: 49 83 E8 04        sub         r8,4
  0000000140007826: EB B3              jmp         00000001400077DB
  0000000140007828: 0F 1F 84 00 00 00  nop         dword ptr [rax+rax+0000000000000000h]
                    00 00
  0000000140007830: 66 0F 7F 81 50 FF  movdqa      xmmword ptr [rcx+FFFFFFFFFFFFFF50h],xmm0
                    FF FF
  0000000140007838: 66 0F 7F 81 60 FF  movdqa      xmmword ptr [rcx+FFFFFFFFFFFFFF60h],xmm0
                    FF FF
  0000000140007840: 66 0F 7F 81 70 FF  movdqa      xmmword ptr [rcx+FFFFFFFFFFFFFF70h],xmm0
                    FF FF
  0000000140007848: 66 0F 7F 41 80     movdqa      xmmword ptr [rcx-80h],xmm0
  000000014000784D: 66 0F 7F 41 90     movdqa      xmmword ptr [rcx-70h],xmm0
  0000000140007852: 66 0F 7F 41 A0     movdqa      xmmword ptr [rcx-60h],xmm0
  0000000140007857: 66 0F 7F 41 B0     movdqa      xmmword ptr [rcx-50h],xmm0
  000000014000785C: 66 0F 7F 41 C0     movdqa      xmmword ptr [rcx-40h],xmm0
  0000000140007861: 66 0F 7F 41 D0     movdqa      xmmword ptr [rcx-30h],xmm0
  0000000140007866: 66 0F 7F 41 E0     movdqa      xmmword ptr [rcx-20h],xmm0
  000000014000786B: 66 0F 7F 41 F0     movdqa      xmmword ptr [rcx-10h],xmm0
  0000000140007870: C3                 ret
  0000000140007871: 66 0F 7F 81 4F FF  movdqa      xmmword ptr [rcx+FFFFFFFFFFFFFF4Fh],xmm0
                    FF FF
  0000000140007879: 66 0F 7F 81 5F FF  movdqa      xmmword ptr [rcx+FFFFFFFFFFFFFF5Fh],xmm0
                    FF FF
  0000000140007881: 66 0F 7F 81 6F FF  movdqa      xmmword ptr [rcx+FFFFFFFFFFFFFF6Fh],xmm0
                    FF FF
  0000000140007889: 66 0F 7F 81 7F FF  movdqa      xmmword ptr [rcx+FFFFFFFFFFFFFF7Fh],xmm0
                    FF FF
  0000000140007891: 66 0F 7F 41 8F     movdqa      xmmword ptr [rcx-71h],xmm0
  0000000140007896: 66 0F 7F 41 9F     movdqa      xmmword ptr [rcx-61h],xmm0
  000000014000789B: 66 0F 7F 41 AF     movdqa      xmmword ptr [rcx-51h],xmm0
  00000001400078A0: 66 0F 7F 41 BF     movdqa      xmmword ptr [rcx-41h],xmm0
  00000001400078A5: 66 0F 7F 41 CF     movdqa      xmmword ptr [rcx-31h],xmm0
  00000001400078AA: 66 0F 7F 41 DF     movdqa      xmmword ptr [rcx-21h],xmm0
  00000001400078AF: 66 0F 7F 41 EF     movdqa      xmmword ptr [rcx-11h],xmm0
  00000001400078B4: 88 51 FF           mov         byte ptr [rcx-1],dl
  00000001400078B7: C3                 ret
  00000001400078B8: 66 0F 7F 81 4E FF  movdqa      xmmword ptr [rcx+FFFFFFFFFFFFFF4Eh],xmm0
                    FF FF
  00000001400078C0: 66 0F 7F 81 5E FF  movdqa      xmmword ptr [rcx+FFFFFFFFFFFFFF5Eh],xmm0
                    FF FF
  00000001400078C8: 66 0F 7F 81 6E FF  movdqa      xmmword ptr [rcx+FFFFFFFFFFFFFF6Eh],xmm0
                    FF FF
  00000001400078D0: 66 0F 7F 81 7E FF  movdqa      xmmword ptr [rcx+FFFFFFFFFFFFFF7Eh],xmm0
                    FF FF
  00000001400078D8: 66 0F 7F 41 8E     movdqa      xmmword ptr [rcx-72h],xmm0
  00000001400078DD: 66 0F 7F 41 9E     movdqa      xmmword ptr [rcx-62h],xmm0
  00000001400078E2: 66 0F 7F 41 AE     movdqa      xmmword ptr [rcx-52h],xmm0
  00000001400078E7: 66 0F 7F 41 BE     movdqa      xmmword ptr [rcx-42h],xmm0
  00000001400078EC: 66 0F 7F 41 CE     movdqa      xmmword ptr [rcx-32h],xmm0
  00000001400078F1: 66 0F 7F 41 DE     movdqa      xmmword ptr [rcx-22h],xmm0
  00000001400078F6: 66 0F 7F 41 EE     movdqa      xmmword ptr [rcx-12h],xmm0
  00000001400078FB: 66 89 51 FE        mov         word ptr [rcx-2],dx
  00000001400078FF: C3                 ret
  0000000140007900: 66 0F 7F 81 4D FF  movdqa      xmmword ptr [rcx+FFFFFFFFFFFFFF4Dh],xmm0
                    FF FF
  0000000140007908: 66 0F 7F 81 5D FF  movdqa      xmmword ptr [rcx+FFFFFFFFFFFFFF5Dh],xmm0
                    FF FF
  0000000140007910: 66 0F 7F 81 6D FF  movdqa      xmmword ptr [rcx+FFFFFFFFFFFFFF6Dh],xmm0
                    FF FF
  0000000140007918: 66 0F 7F 81 7D FF  movdqa      xmmword ptr [rcx+FFFFFFFFFFFFFF7Dh],xmm0
                    FF FF
  0000000140007920: 66 0F 7F 41 8D     movdqa      xmmword ptr [rcx-73h],xmm0
  0000000140007925: 66 0F 7F 41 9D     movdqa      xmmword ptr [rcx-63h],xmm0
  000000014000792A: 66 0F 7F 41 AD     movdqa      xmmword ptr [rcx-53h],xmm0
  000000014000792F: 66 0F 7F 41 BD     movdqa      xmmword ptr [rcx-43h],xmm0
  0000000140007934: 66 0F 7F 41 CD     movdqa      xmmword ptr [rcx-33h],xmm0
  0000000140007939: 66 0F 7F 41 DD     movdqa      xmmword ptr [rcx-23h],xmm0
  000000014000793E: 66 0F 7F 41 ED     movdqa      xmmword ptr [rcx-13h],xmm0
  0000000140007943: 66 89 51 FD        mov         word ptr [rcx-3],dx
  0000000140007947: 88 51 FF           mov         byte ptr [rcx-1],dl
  000000014000794A: C3                 ret
  000000014000794B: 66 0F 7F 81 4C FF  movdqa      xmmword ptr [rcx+FFFFFFFFFFFFFF4Ch],xmm0
                    FF FF
  0000000140007953: 66 0F 7F 81 5C FF  movdqa      xmmword ptr [rcx+FFFFFFFFFFFFFF5Ch],xmm0
                    FF FF
  000000014000795B: 66 0F 7F 81 6C FF  movdqa      xmmword ptr [rcx+FFFFFFFFFFFFFF6Ch],xmm0
                    FF FF
  0000000140007963: 66 0F 7F 81 7C FF  movdqa      xmmword ptr [rcx+FFFFFFFFFFFFFF7Ch],xmm0
                    FF FF
  000000014000796B: 66 0F 7F 41 8C     movdqa      xmmword ptr [rcx-74h],xmm0
  0000000140007970: 66 0F 7F 41 9C     movdqa      xmmword ptr [rcx-64h],xmm0
  0000000140007975: 66 0F 7F 41 AC     movdqa      xmmword ptr [rcx-54h],xmm0
  000000014000797A: 66 0F 7F 41 BC     movdqa      xmmword ptr [rcx-44h],xmm0
  000000014000797F: 66 0F 7F 41 CC     movdqa      xmmword ptr [rcx-34h],xmm0
  0000000140007984: 66 0F 7F 41 DC     movdqa      xmmword ptr [rcx-24h],xmm0
  0000000140007989: 66 0F 7F 41 EC     movdqa      xmmword ptr [rcx-14h],xmm0
  000000014000798E: 89 51 FC           mov         dword ptr [rcx-4],edx
  0000000140007991: C3                 ret
  0000000140007992: 66 0F 7F 81 4B FF  movdqa      xmmword ptr [rcx+FFFFFFFFFFFFFF4Bh],xmm0
                    FF FF
  000000014000799A: 66 0F 7F 81 5B FF  movdqa      xmmword ptr [rcx+FFFFFFFFFFFFFF5Bh],xmm0
                    FF FF
  00000001400079A2: 66 0F 7F 81 6B FF  movdqa      xmmword ptr [rcx+FFFFFFFFFFFFFF6Bh],xmm0
                    FF FF
  00000001400079AA: 66 0F 7F 81 7B FF  movdqa      xmmword ptr [rcx+FFFFFFFFFFFFFF7Bh],xmm0
                    FF FF
  00000001400079B2: 66 0F 7F 41 8B     movdqa      xmmword ptr [rcx-75h],xmm0
  00000001400079B7: 66 0F 7F 41 9B     movdqa      xmmword ptr [rcx-65h],xmm0
  00000001400079BC: 66 0F 7F 41 AB     movdqa      xmmword ptr [rcx-55h],xmm0
  00000001400079C1: 66 0F 7F 41 BB     movdqa      xmmword ptr [rcx-45h],xmm0
  00000001400079C6: 66 0F 7F 41 CB     movdqa      xmmword ptr [rcx-35h],xmm0
  00000001400079CB: 66 0F 7F 41 DB     movdqa      xmmword ptr [rcx-25h],xmm0
  00000001400079D0: 66 0F 7F 41 EB     movdqa      xmmword ptr [rcx-15h],xmm0
  00000001400079D5: 89 51 FB           mov         dword ptr [rcx-5],edx
  00000001400079D8: 88 51 FF           mov         byte ptr [rcx-1],dl
  00000001400079DB: C3                 ret
  00000001400079DC: 66 0F 7F 81 4A FF  movdqa      xmmword ptr [rcx+FFFFFFFFFFFFFF4Ah],xmm0
                    FF FF
  00000001400079E4: 66 0F 7F 81 5A FF  movdqa      xmmword ptr [rcx+FFFFFFFFFFFFFF5Ah],xmm0
                    FF FF
  00000001400079EC: 66 0F 7F 81 6A FF  movdqa      xmmword ptr [rcx+FFFFFFFFFFFFFF6Ah],xmm0
                    FF FF
  00000001400079F4: 66 0F 7F 81 7A FF  movdqa      xmmword ptr [rcx+FFFFFFFFFFFFFF7Ah],xmm0
                    FF FF
  00000001400079FC: 66 0F 7F 41 8A     movdqa      xmmword ptr [rcx-76h],xmm0
  0000000140007A01: 66 0F 7F 41 9A     movdqa      xmmword ptr [rcx-66h],xmm0
  0000000140007A06: 66 0F 7F 41 AA     movdqa      xmmword ptr [rcx-56h],xmm0
  0000000140007A0B: 66 0F 7F 41 BA     movdqa      xmmword ptr [rcx-46h],xmm0
  0000000140007A10: 66 0F 7F 41 CA     movdqa      xmmword ptr [rcx-36h],xmm0
  0000000140007A15: 66 0F 7F 41 DA     movdqa      xmmword ptr [rcx-26h],xmm0
  0000000140007A1A: 66 0F 7F 41 EA     movdqa      xmmword ptr [rcx-16h],xmm0
  0000000140007A1F: 89 51 FA           mov         dword ptr [rcx-6],edx
  0000000140007A22: 66 89 51 FE        mov         word ptr [rcx-2],dx
  0000000140007A26: C3                 ret
  0000000140007A27: 66 0F 7F 81 49 FF  movdqa      xmmword ptr [rcx+FFFFFFFFFFFFFF49h],xmm0
                    FF FF
  0000000140007A2F: 66 0F 7F 81 59 FF  movdqa      xmmword ptr [rcx+FFFFFFFFFFFFFF59h],xmm0
                    FF FF
  0000000140007A37: 66 0F 7F 81 69 FF  movdqa      xmmword ptr [rcx+FFFFFFFFFFFFFF69h],xmm0
                    FF FF
  0000000140007A3F: 66 0F 7F 81 79 FF  movdqa      xmmword ptr [rcx+FFFFFFFFFFFFFF79h],xmm0
                    FF FF
  0000000140007A47: 66 0F 7F 41 89     movdqa      xmmword ptr [rcx-77h],xmm0
  0000000140007A4C: 66 0F 7F 41 99     movdqa      xmmword ptr [rcx-67h],xmm0
  0000000140007A51: 66 0F 7F 41 A9     movdqa      xmmword ptr [rcx-57h],xmm0
  0000000140007A56: 66 0F 7F 41 B9     movdqa      xmmword ptr [rcx-47h],xmm0
  0000000140007A5B: 66 0F 7F 41 C9     movdqa      xmmword ptr [rcx-37h],xmm0
  0000000140007A60: 66 0F 7F 41 D9     movdqa      xmmword ptr [rcx-27h],xmm0
  0000000140007A65: 66 0F 7F 41 E9     movdqa      xmmword ptr [rcx-17h],xmm0
  0000000140007A6A: 89 51 F9           mov         dword ptr [rcx-7],edx
  0000000140007A6D: 66 89 51 FD        mov         word ptr [rcx-3],dx
  0000000140007A71: 88 51 FF           mov         byte ptr [rcx-1],dl
  0000000140007A74: C3                 ret
  0000000140007A75: 66 0F 7F 81 48 FF  movdqa      xmmword ptr [rcx+FFFFFFFFFFFFFF48h],xmm0
                    FF FF
  0000000140007A7D: 66 0F 7F 81 58 FF  movdqa      xmmword ptr [rcx+FFFFFFFFFFFFFF58h],xmm0
                    FF FF
  0000000140007A85: 66 0F 7F 81 68 FF  movdqa      xmmword ptr [rcx+FFFFFFFFFFFFFF68h],xmm0
                    FF FF
  0000000140007A8D: 66 0F 7F 81 78 FF  movdqa      xmmword ptr [rcx+FFFFFFFFFFFFFF78h],xmm0
                    FF FF
  0000000140007A95: 66 0F 7F 41 88     movdqa      xmmword ptr [rcx-78h],xmm0
  0000000140007A9A: 66 0F 7F 41 98     movdqa      xmmword ptr [rcx-68h],xmm0
  0000000140007A9F: 66 0F 7F 41 A8     movdqa      xmmword ptr [rcx-58h],xmm0
  0000000140007AA4: 66 0F 7F 41 B8     movdqa      xmmword ptr [rcx-48h],xmm0
  0000000140007AA9: 66 0F 7F 41 C8     movdqa      xmmword ptr [rcx-38h],xmm0
  0000000140007AAE: 66 0F 7F 41 D8     movdqa      xmmword ptr [rcx-28h],xmm0
  0000000140007AB3: 66 0F 7F 41 E8     movdqa      xmmword ptr [rcx-18h],xmm0
  0000000140007AB8: 66 0F D6 41 F8     movq        mmword ptr [rcx-8],xmm0
  0000000140007ABD: C3                 ret
  0000000140007ABE: 66 0F 7F 81 47 FF  movdqa      xmmword ptr [rcx+FFFFFFFFFFFFFF47h],xmm0
                    FF FF
  0000000140007AC6: 66 0F 7F 81 57 FF  movdqa      xmmword ptr [rcx+FFFFFFFFFFFFFF57h],xmm0
                    FF FF
  0000000140007ACE: 66 0F 7F 81 67 FF  movdqa      xmmword ptr [rcx+FFFFFFFFFFFFFF67h],xmm0
                    FF FF
  0000000140007AD6: 66 0F 7F 81 77 FF  movdqa      xmmword ptr [rcx+FFFFFFFFFFFFFF77h],xmm0
                    FF FF
  0000000140007ADE: 66 0F 7F 41 87     movdqa      xmmword ptr [rcx-79h],xmm0
  0000000140007AE3: 66 0F 7F 41 97     movdqa      xmmword ptr [rcx-69h],xmm0
  0000000140007AE8: 66 0F 7F 41 A7     movdqa      xmmword ptr [rcx-59h],xmm0
  0000000140007AED: 66 0F 7F 41 B7     movdqa      xmmword ptr [rcx-49h],xmm0
  0000000140007AF2: 66 0F 7F 41 C7     movdqa      xmmword ptr [rcx-39h],xmm0
  0000000140007AF7: 66 0F 7F 41 D7     movdqa      xmmword ptr [rcx-29h],xmm0
  0000000140007AFC: 66 0F 7F 41 E7     movdqa      xmmword ptr [rcx-19h],xmm0
  0000000140007B01: 66 0F D6 41 F7     movq        mmword ptr [rcx-9],xmm0
  0000000140007B06: 88 51 FF           mov         byte ptr [rcx-1],dl
  0000000140007B09: C3                 ret
  0000000140007B0A: 66 0F 7F 81 46 FF  movdqa      xmmword ptr [rcx+FFFFFFFFFFFFFF46h],xmm0
                    FF FF
  0000000140007B12: 66 0F 7F 81 56 FF  movdqa      xmmword ptr [rcx+FFFFFFFFFFFFFF56h],xmm0
                    FF FF
  0000000140007B1A: 66 0F 7F 81 66 FF  movdqa      xmmword ptr [rcx+FFFFFFFFFFFFFF66h],xmm0
                    FF FF
  0000000140007B22: 66 0F 7F 81 76 FF  movdqa      xmmword ptr [rcx+FFFFFFFFFFFFFF76h],xmm0
                    FF FF
  0000000140007B2A: 66 0F 7F 41 86     movdqa      xmmword ptr [rcx-7Ah],xmm0
  0000000140007B2F: 66 0F 7F 41 96     movdqa      xmmword ptr [rcx-6Ah],xmm0
  0000000140007B34: 66 0F 7F 41 A6     movdqa      xmmword ptr [rcx-5Ah],xmm0
  0000000140007B39: 66 0F 7F 41 B6     movdqa      xmmword ptr [rcx-4Ah],xmm0
  0000000140007B3E: 66 0F 7F 41 C6     movdqa      xmmword ptr [rcx-3Ah],xmm0
  0000000140007B43: 66 0F 7F 41 D6     movdqa      xmmword ptr [rcx-2Ah],xmm0
  0000000140007B48: 66 0F 7F 41 E6     movdqa      xmmword ptr [rcx-1Ah],xmm0
  0000000140007B4D: 66 0F D6 41 F6     movq        mmword ptr [rcx-0Ah],xmm0
  0000000140007B52: 66 89 51 FE        mov         word ptr [rcx-2],dx
  0000000140007B56: C3                 ret
  0000000140007B57: 66 0F 7F 81 45 FF  movdqa      xmmword ptr [rcx+FFFFFFFFFFFFFF45h],xmm0
                    FF FF
  0000000140007B5F: 66 0F 7F 81 55 FF  movdqa      xmmword ptr [rcx+FFFFFFFFFFFFFF55h],xmm0
                    FF FF
  0000000140007B67: 66 0F 7F 81 65 FF  movdqa      xmmword ptr [rcx+FFFFFFFFFFFFFF65h],xmm0
                    FF FF
  0000000140007B6F: 66 0F 7F 81 75 FF  movdqa      xmmword ptr [rcx+FFFFFFFFFFFFFF75h],xmm0
                    FF FF
  0000000140007B77: 66 0F 7F 41 85     movdqa      xmmword ptr [rcx-7Bh],xmm0
  0000000140007B7C: 66 0F 7F 41 95     movdqa      xmmword ptr [rcx-6Bh],xmm0
  0000000140007B81: 66 0F 7F 41 A5     movdqa      xmmword ptr [rcx-5Bh],xmm0
  0000000140007B86: 66 0F 7F 41 B5     movdqa      xmmword ptr [rcx-4Bh],xmm0
  0000000140007B8B: 66 0F 7F 41 C5     movdqa      xmmword ptr [rcx-3Bh],xmm0
  0000000140007B90: 66 0F 7F 41 D5     movdqa      xmmword ptr [rcx-2Bh],xmm0
  0000000140007B95: 66 0F 7F 41 E5     movdqa      xmmword ptr [rcx-1Bh],xmm0
  0000000140007B9A: 66 0F D6 41 F5     movq        mmword ptr [rcx-0Bh],xmm0
  0000000140007B9F: 66 89 51 FD        mov         word ptr [rcx-3],dx
  0000000140007BA3: 88 51 FF           mov         byte ptr [rcx-1],dl
  0000000140007BA6: C3                 ret
  0000000140007BA7: 66 0F 7F 81 44 FF  movdqa      xmmword ptr [rcx+FFFFFFFFFFFFFF44h],xmm0
                    FF FF
  0000000140007BAF: 66 0F 7F 81 54 FF  movdqa      xmmword ptr [rcx+FFFFFFFFFFFFFF54h],xmm0
                    FF FF
  0000000140007BB7: 66 0F 7F 81 64 FF  movdqa      xmmword ptr [rcx+FFFFFFFFFFFFFF64h],xmm0
                    FF FF
  0000000140007BBF: 66 0F 7F 81 74 FF  movdqa      xmmword ptr [rcx+FFFFFFFFFFFFFF74h],xmm0
                    FF FF
  0000000140007BC7: 66 0F 7F 41 84     movdqa      xmmword ptr [rcx-7Ch],xmm0
  0000000140007BCC: 66 0F 7F 41 94     movdqa      xmmword ptr [rcx-6Ch],xmm0
  0000000140007BD1: 66 0F 7F 41 A4     movdqa      xmmword ptr [rcx-5Ch],xmm0
  0000000140007BD6: 66 0F 7F 41 B4     movdqa      xmmword ptr [rcx-4Ch],xmm0
  0000000140007BDB: 66 0F 7F 41 C4     movdqa      xmmword ptr [rcx-3Ch],xmm0
  0000000140007BE0: 66 0F 7F 41 D4     movdqa      xmmword ptr [rcx-2Ch],xmm0
  0000000140007BE5: 66 0F 7F 41 E4     movdqa      xmmword ptr [rcx-1Ch],xmm0
  0000000140007BEA: 66 0F D6 41 F4     movq        mmword ptr [rcx-0Ch],xmm0
  0000000140007BEF: 89 51 FC           mov         dword ptr [rcx-4],edx
  0000000140007BF2: C3                 ret
  0000000140007BF3: 66 0F 7F 81 43 FF  movdqa      xmmword ptr [rcx+FFFFFFFFFFFFFF43h],xmm0
                    FF FF
  0000000140007BFB: 66 0F 7F 81 53 FF  movdqa      xmmword ptr [rcx+FFFFFFFFFFFFFF53h],xmm0
                    FF FF
  0000000140007C03: 66 0F 7F 81 63 FF  movdqa      xmmword ptr [rcx+FFFFFFFFFFFFFF63h],xmm0
                    FF FF
  0000000140007C0B: 66 0F 7F 81 73 FF  movdqa      xmmword ptr [rcx+FFFFFFFFFFFFFF73h],xmm0
                    FF FF
  0000000140007C13: 66 0F 7F 41 83     movdqa      xmmword ptr [rcx-7Dh],xmm0
  0000000140007C18: 66 0F 7F 41 93     movdqa      xmmword ptr [rcx-6Dh],xmm0
  0000000140007C1D: 66 0F 7F 41 A3     movdqa      xmmword ptr [rcx-5Dh],xmm0
  0000000140007C22: 66 0F 7F 41 B3     movdqa      xmmword ptr [rcx-4Dh],xmm0
  0000000140007C27: 66 0F 7F 41 C3     movdqa      xmmword ptr [rcx-3Dh],xmm0
  0000000140007C2C: 66 0F 7F 41 D3     movdqa      xmmword ptr [rcx-2Dh],xmm0
  0000000140007C31: 66 0F 7F 41 E3     movdqa      xmmword ptr [rcx-1Dh],xmm0
  0000000140007C36: 66 0F D6 41 F3     movq        mmword ptr [rcx-0Dh],xmm0
  0000000140007C3B: 89 51 FB           mov         dword ptr [rcx-5],edx
  0000000140007C3E: 88 51 FF           mov         byte ptr [rcx-1],dl
  0000000140007C41: C3                 ret
  0000000140007C42: 66 0F 7F 81 42 FF  movdqa      xmmword ptr [rcx+FFFFFFFFFFFFFF42h],xmm0
                    FF FF
  0000000140007C4A: 66 0F 7F 81 52 FF  movdqa      xmmword ptr [rcx+FFFFFFFFFFFFFF52h],xmm0
                    FF FF
  0000000140007C52: 66 0F 7F 81 62 FF  movdqa      xmmword ptr [rcx+FFFFFFFFFFFFFF62h],xmm0
                    FF FF
  0000000140007C5A: 66 0F 7F 81 72 FF  movdqa      xmmword ptr [rcx+FFFFFFFFFFFFFF72h],xmm0
                    FF FF
  0000000140007C62: 66 0F 7F 41 82     movdqa      xmmword ptr [rcx-7Eh],xmm0
  0000000140007C67: 66 0F 7F 41 92     movdqa      xmmword ptr [rcx-6Eh],xmm0
  0000000140007C6C: 66 0F 7F 41 A2     movdqa      xmmword ptr [rcx-5Eh],xmm0
  0000000140007C71: 66 0F 7F 41 B2     movdqa      xmmword ptr [rcx-4Eh],xmm0
  0000000140007C76: 66 0F 7F 41 C2     movdqa      xmmword ptr [rcx-3Eh],xmm0
  0000000140007C7B: 66 0F 7F 41 D2     movdqa      xmmword ptr [rcx-2Eh],xmm0
  0000000140007C80: 66 0F 7F 41 E2     movdqa      xmmword ptr [rcx-1Eh],xmm0
  0000000140007C85: 48 89 51 F2        mov         qword ptr [rcx-0Eh],rdx
  0000000140007C89: 89 51 FA           mov         dword ptr [rcx-6],edx
  0000000140007C8C: 66 89 51 FE        mov         word ptr [rcx-2],dx
  0000000140007C90: C3                 ret
  0000000140007C91: 66 0F 7F 81 41 FF  movdqa      xmmword ptr [rcx+FFFFFFFFFFFFFF41h],xmm0
                    FF FF
  0000000140007C99: 66 0F 7F 81 51 FF  movdqa      xmmword ptr [rcx+FFFFFFFFFFFFFF51h],xmm0
                    FF FF
  0000000140007CA1: 66 0F 7F 81 61 FF  movdqa      xmmword ptr [rcx+FFFFFFFFFFFFFF61h],xmm0
                    FF FF
  0000000140007CA9: 66 0F 7F 81 71 FF  movdqa      xmmword ptr [rcx+FFFFFFFFFFFFFF71h],xmm0
                    FF FF
  0000000140007CB1: 66 0F 7F 41 81     movdqa      xmmword ptr [rcx-7Fh],xmm0
  0000000140007CB6: 66 0F 7F 41 91     movdqa      xmmword ptr [rcx-6Fh],xmm0
  0000000140007CBB: 66 0F 7F 41 A1     movdqa      xmmword ptr [rcx-5Fh],xmm0
  0000000140007CC0: 66 0F 7F 41 B1     movdqa      xmmword ptr [rcx-4Fh],xmm0
  0000000140007CC5: 66 0F 7F 41 C1     movdqa      xmmword ptr [rcx-3Fh],xmm0
  0000000140007CCA: 66 0F 7F 41 D1     movdqa      xmmword ptr [rcx-2Fh],xmm0
  0000000140007CCF: 66 0F 7F 41 E1     movdqa      xmmword ptr [rcx-1Fh],xmm0
  0000000140007CD4: 48 89 51 F1        mov         qword ptr [rcx-0Fh],rdx
  0000000140007CD8: 89 51 F9           mov         dword ptr [rcx-7],edx
  0000000140007CDB: 66 89 51 FD        mov         word ptr [rcx-3],dx
  0000000140007CDF: 88 51 FF           mov         byte ptr [rcx-1],dl
  0000000140007CE2: C3                 ret
  0000000140007CE3: 4C 3B 05 56 4B 00  cmp         r8,qword ptr [000000014000C840h]
                    00
  0000000140007CEA: 7F 4D              jg          0000000140007D39
  0000000140007CEC: EB 02              jmp         0000000140007CF0
  0000000140007CEE: 66 90              xchg        ax,ax
  0000000140007CF0: 4D 8D 40 80        lea         r8,[r8-80h]
  0000000140007CF4: 66 0F 7F 01        movdqa      xmmword ptr [rcx],xmm0
  0000000140007CF8: 66 0F 7F 41 10     movdqa      xmmword ptr [rcx+10h],xmm0
  0000000140007CFD: 66 0F 7F 41 20     movdqa      xmmword ptr [rcx+20h],xmm0
  0000000140007D02: 66 0F 7F 41 30     movdqa      xmmword ptr [rcx+30h],xmm0
  0000000140007D07: 49 81 F8 80 00 00  cmp         r8,80h
                    00
  0000000140007D0E: 66 0F 7F 41 40     movdqa      xmmword ptr [rcx+40h],xmm0
  0000000140007D13: 66 0F 7F 41 50     movdqa      xmmword ptr [rcx+50h],xmm0
  0000000140007D18: 66 0F 7F 41 60     movdqa      xmmword ptr [rcx+60h],xmm0
  0000000140007D1D: 66 0F 7F 41 70     movdqa      xmmword ptr [rcx+70h],xmm0
  0000000140007D22: 48 8D 89 80 00 00  lea         rcx,[rcx+0000000000000080h]
                    00
  0000000140007D29: 7D C5              jge         0000000140007CF0
  0000000140007D2B: 4C 8D 1D DE 87 00  lea         r11,[0000000140010510h]
                    00
  0000000140007D32: 49 03 C8           add         rcx,r8
  0000000140007D35: 43 FF 24 C3        jmp         qword ptr [r11+r8*8]
  0000000140007D39: 49 83 F9 00        cmp         r9,0
  0000000140007D3D: 74 B1              je          0000000140007CF0
  0000000140007D3F: EB 0F              jmp         0000000140007D50
  0000000140007D41: 66 66 66 66 66 66  nop         word ptr [rax+rax+0000000000000000h]
                    66 0F 1F 84 00 00
                    00 00 00
  0000000140007D50: 49 81 E8 80 00 00  sub         r8,80h
                    00
  0000000140007D57: 66 0F E7 01        movntdq     xmmword ptr [rcx],xmm0
  0000000140007D5B: 66 0F E7 41 10     movntdq     xmmword ptr [rcx+10h],xmm0
  0000000140007D60: 66 0F E7 41 20     movntdq     xmmword ptr [rcx+20h],xmm0
  0000000140007D65: 66 0F E7 41 30     movntdq     xmmword ptr [rcx+30h],xmm0
  0000000140007D6A: 66 0F E7 41 40     movntdq     xmmword ptr [rcx+40h],xmm0
  0000000140007D6F: 66 0F E7 41 50     movntdq     xmmword ptr [rcx+50h],xmm0
  0000000140007D74: 66 0F E7 41 60     movntdq     xmmword ptr [rcx+60h],xmm0
  0000000140007D79: 66 0F E7 41 70     movntdq     xmmword ptr [rcx+70h],xmm0
  0000000140007D7E: 48 81 C1 80 00 00  add         rcx,80h
                    00
  0000000140007D85: 49 81 F8 80 00 00  cmp         r8,80h
                    00
  0000000140007D8C: 7D C2              jge         0000000140007D50
  0000000140007D8E: 0F AE F8           sfence
  0000000140007D91: 4C 8D 1D 78 87 00  lea         r11,[0000000140010510h]
                    00
  0000000140007D98: 49 03 C8           add         rcx,r8
  0000000140007D9B: 43 FF 24 C3        jmp         qword ptr [r11+r8*8]
  0000000140007D9F: 90                 nop
  0000000140007DA0: 4C 3B 05 99 4A 00  cmp         r8,qword ptr [000000014000C840h]
                    00
  0000000140007DA7: 7F 47              jg          0000000140007DF0
  0000000140007DA9: EB 05              jmp         0000000140007DB0
  0000000140007DAB: 0F 1F 44 00 00     nop         dword ptr [rax+rax]
  0000000140007DB0: 48 89 11           mov         qword ptr [rcx],rdx
  0000000140007DB3: 48 89 51 08        mov         qword ptr [rcx+8],rdx
  0000000140007DB7: 4D 8D 40 C0        lea         r8,[r8-40h]
  0000000140007DBB: 48 89 51 10        mov         qword ptr [rcx+10h],rdx
  0000000140007DBF: 48 89 51 18        mov         qword ptr [rcx+18h],rdx
  0000000140007DC3: 49 83 F8 40        cmp         r8,40h
  0000000140007DC7: 48 89 51 20        mov         qword ptr [rcx+20h],rdx
  0000000140007DCB: 48 89 51 28        mov         qword ptr [rcx+28h],rdx
  0000000140007DCF: 48 89 51 30        mov         qword ptr [rcx+30h],rdx
  0000000140007DD3: 48 89 51 38        mov         qword ptr [rcx+38h],rdx
  0000000140007DD7: 48 8D 49 40        lea         rcx,[rcx+40h]
  0000000140007DDB: 7F D3              jg          0000000140007DB0
  0000000140007DDD: 4C 8D 1D 5C 82 00  lea         r11,[0000000140010040h]
                    00
  0000000140007DE4: 4A 8D 0C 01        lea         rcx,[rcx+r8]
  0000000140007DE8: 43 FF 24 C3        jmp         qword ptr [r11+r8*8]
  0000000140007DEC: 0F 1F 40 00        nop         dword ptr [rax]
  0000000140007DF0: 49 83 F9 00        cmp         r9,0
  0000000140007DF4: 74 BA              je          0000000140007DB0
  0000000140007DF6: EB 08              jmp         0000000140007E00
  0000000140007DF8: 0F 1F 84 00 00 00  nop         dword ptr [rax+rax+0000000000000000h]
                    00 00
  0000000140007E00: 48 0F C3 11        movnti      qword ptr [rcx],rdx
  0000000140007E04: 48 0F C3 51 08     movnti      qword ptr [rcx+8],rdx
  0000000140007E09: 4D 8D 40 C0        lea         r8,[r8-40h]
  0000000140007E0D: 48 0F C3 51 10     movnti      qword ptr [rcx+10h],rdx
  0000000140007E12: 48 0F C3 51 18     movnti      qword ptr [rcx+18h],rdx
  0000000140007E17: 48 0F C3 51 20     movnti      qword ptr [rcx+20h],rdx
  0000000140007E1C: 49 83 F8 40        cmp         r8,40h
  0000000140007E20: 48 0F C3 51 28     movnti      qword ptr [rcx+28h],rdx
  0000000140007E25: 48 0F C3 51 30     movnti      qword ptr [rcx+30h],rdx
  0000000140007E2A: 48 0F C3 51 38     movnti      qword ptr [rcx+38h],rdx
  0000000140007E2F: 48 8D 49 40        lea         rcx,[rcx+40h]
  0000000140007E33: 7D CB              jge         0000000140007E00
  0000000140007E35: 4C 8D 1D 04 82 00  lea         r11,[0000000140010040h]
                    00
  0000000140007E3C: 4A 8D 0C 01        lea         rcx,[rcx+r8]
  0000000140007E40: 43 FF 24 C3        jmp         qword ptr [r11+r8*8]
  0000000140007E44: FF 25 86 12 00 00  jmp         qword ptr [00000001400090D0h]
  0000000140007E4A: FF 25 68 12 00 00  jmp         qword ptr [00000001400090B8h]
  0000000140007E50: FF 25 5A 12 00 00  jmp         qword ptr [00000001400090B0h]
  0000000140007E56: FF 25 4C 12 00 00  jmp         qword ptr [00000001400090A8h]
  0000000140007E5C: FF 25 5E 12 00 00  jmp         qword ptr [00000001400090C0h]
  0000000140007E62: FF 25 30 12 00 00  jmp         qword ptr [0000000140009098h]
  0000000140007E68: FF 25 5A 12 00 00  jmp         qword ptr [00000001400090C8h]
  0000000140007E6E: FF 25 2C 12 00 00  jmp         qword ptr [00000001400090A0h]
  0000000140007E74: FF 25 8E 12 00 00  jmp         qword ptr [0000000140009108h]
  0000000140007E7A: FF 25 80 12 00 00  jmp         qword ptr [0000000140009100h]
  0000000140007E80: FF 25 72 12 00 00  jmp         qword ptr [00000001400090F8h]
  0000000140007E86: FF 25 CC 12 00 00  jmp         qword ptr [0000000140009158h]
  0000000140007E8C: FF 25 CE 12 00 00  jmp         qword ptr [0000000140009160h]
  0000000140007E92: FF 25 90 12 00 00  jmp         qword ptr [0000000140009128h]
  0000000140007E98: FF 25 E2 12 00 00  jmp         qword ptr [0000000140009180h]
  0000000140007E9E: FF 25 FC 12 00 00  jmp         qword ptr [00000001400091A0h]
  0000000140007EA4: FF 25 1E 13 00 00  jmp         qword ptr [00000001400091C8h]
  0000000140007EAA: FF 25 10 13 00 00  jmp         qword ptr [00000001400091C0h]
  0000000140007EB0: FF 25 02 13 00 00  jmp         qword ptr [00000001400091B8h]
  0000000140007EB6: FF 25 F4 12 00 00  jmp         qword ptr [00000001400091B0h]
  0000000140007EBC: FF 25 E6 12 00 00  jmp         qword ptr [00000001400091A8h]
  0000000140007EC2: FF 25 30 13 00 00  jmp         qword ptr [00000001400091F8h]
  0000000140007EC8: FF 25 CA 12 00 00  jmp         qword ptr [0000000140009198h]
  0000000140007ECE: FF 25 BC 12 00 00  jmp         qword ptr [0000000140009190h]
  0000000140007ED4: FF 25 8E 12 00 00  jmp         qword ptr [0000000140009168h]
  0000000140007EDA: FF 25 98 12 00 00  jmp         qword ptr [0000000140009178h]
  0000000140007EE0: FF 25 6A 12 00 00  jmp         qword ptr [0000000140009150h]
  0000000140007EE6: FF 25 2C 12 00 00  jmp         qword ptr [0000000140009118h]
  0000000140007EEC: FF 25 FE 11 00 00  jmp         qword ptr [00000001400090F0h]
  0000000140007EF2: FF 25 E0 12 00 00  jmp         qword ptr [00000001400091D8h]
  0000000140007EF8: FF 25 3A 12 00 00  jmp         qword ptr [0000000140009138h]
  0000000140007EFE: FF 25 84 12 00 00  jmp         qword ptr [0000000140009188h]
  0000000140007F04: FF 25 36 12 00 00  jmp         qword ptr [0000000140009140h]
  0000000140007F0A: FF 25 38 12 00 00  jmp         qword ptr [0000000140009148h]
  0000000140007F10: FF 25 02 13 00 00  jmp         qword ptr [0000000140009218h]
  0000000140007F16: FF 25 F4 12 00 00  jmp         qword ptr [0000000140009210h]
  0000000140007F1C: FF 25 BE 11 00 00  jmp         qword ptr [00000001400090E0h]
  0000000140007F22: FF 25 48 12 00 00  jmp         qword ptr [0000000140009170h]
  0000000140007F28: FF 25 C2 12 00 00  jmp         qword ptr [00000001400091F0h]
  0000000140007F2E: FF 25 D4 12 00 00  jmp         qword ptr [0000000140009208h]
  0000000140007F34: FF 25 3E 11 00 00  jmp         qword ptr [0000000140009078h]
  0000000140007F3A: CC                 int         3
  0000000140007F3B: CC                 int         3
  0000000140007F3C: CC                 int         3
  0000000140007F3D: CC                 int         3
  0000000140007F3E: CC                 int         3
  0000000140007F3F: CC                 int         3
  0000000140007F40: CC                 int         3
  0000000140007F41: CC                 int         3
  0000000140007F42: CC                 int         3
  0000000140007F43: CC                 int         3
  0000000140007F44: CC                 int         3
  0000000140007F45: CC                 int         3
  0000000140007F46: 66 66 0F 1F 84 00  nop         word ptr [rax+rax+0000000000000000h]
                    00 00 00 00
  0000000140007F50: 48 3B 0D D1 40 00  cmp         rcx,qword ptr [000000014000C028h]
                    00
  0000000140007F57: F2 75 12           bnd jne     0000000140007F6C
  0000000140007F5A: 48 C1 C1 10        rol         rcx,10h
  0000000140007F5E: 66 F7 C1 FF FF     test        cx,0FFFFh
  0000000140007F63: F2 75 02           bnd jne     0000000140007F68
  0000000140007F66: F2 C3              bnd ret
  0000000140007F68: 48 C1 C9 10        ror         rcx,10h
  0000000140007F6C: E9 B3 00 00 00     jmp         0000000140008024
  0000000140007F71: CC                 int         3
  0000000140007F72: CC                 int         3
  0000000140007F73: CC                 int         3
  0000000140007F74: 48 83 EC 28        sub         rsp,28h
  0000000140007F78: 4D 8B 41 38        mov         r8,qword ptr [r9+38h]
  0000000140007F7C: 48 8B CA           mov         rcx,rdx
  0000000140007F7F: 49 8B D1           mov         rdx,r9
  0000000140007F82: E8 0D 00 00 00     call        0000000140007F94
  0000000140007F87: B8 01 00 00 00     mov         eax,1
  0000000140007F8C: 48 83 C4 28        add         rsp,28h
  0000000140007F90: C3                 ret
  0000000140007F91: CC                 int         3
  0000000140007F92: CC                 int         3
  0000000140007F93: CC                 int         3
  0000000140007F94: 40 53              push        rbx
  0000000140007F96: 45 8B 18           mov         r11d,dword ptr [r8]
  0000000140007F99: 48 8B DA           mov         rbx,rdx
  0000000140007F9C: 41 83 E3 F8        and         r11d,0FFFFFFF8h
  0000000140007FA0: 4C 8B C9           mov         r9,rcx
  0000000140007FA3: 41 F6 00 04        test        byte ptr [r8],4
  0000000140007FA7: 4C 8B D1           mov         r10,rcx
  0000000140007FAA: 74 13              je          0000000140007FBF
  0000000140007FAC: 41 8B 40 08        mov         eax,dword ptr [r8+8]
  0000000140007FB0: 4D 63 50 04        movsxd      r10,dword ptr [r8+4]
  0000000140007FB4: F7 D8              neg         eax
  0000000140007FB6: 4C 03 D1           add         r10,rcx
  0000000140007FB9: 48 63 C8           movsxd      rcx,eax
  0000000140007FBC: 4C 23 D1           and         r10,rcx
  0000000140007FBF: 49 63 C3           movsxd      rax,r11d
  0000000140007FC2: 4A 8B 14 10        mov         rdx,qword ptr [rax+r10]
  0000000140007FC6: 48 8B 43 10        mov         rax,qword ptr [rbx+10h]
  0000000140007FCA: 8B 48 08           mov         ecx,dword ptr [rax+8]
  0000000140007FCD: 48 8B 43 08        mov         rax,qword ptr [rbx+8]
  0000000140007FD1: F6 44 01 03 0F     test        byte ptr [rcx+rax+3],0Fh
  0000000140007FD6: 74 0B              je          0000000140007FE3
  0000000140007FD8: 0F B6 44 01 03     movzx       eax,byte ptr [rcx+rax+3]
  0000000140007FDD: 83 E0 F0           and         eax,0FFFFFFF0h
  0000000140007FE0: 4C 03 C8           add         r9,rax
  0000000140007FE3: 4C 33 CA           xor         r9,rdx
  0000000140007FE6: 49 8B C9           mov         rcx,r9
  0000000140007FE9: 5B                 pop         rbx
  0000000140007FEA: E9 61 FF FF FF     jmp         0000000140007F50
  0000000140007FEF: CC                 int         3
  0000000140007FF0: 40 53              push        rbx
  0000000140007FF2: 48 83 EC 20        sub         rsp,20h
  0000000140007FF6: 48 8B D9           mov         rbx,rcx
  0000000140007FF9: 33 C9              xor         ecx,ecx
  0000000140007FFB: FF 15 7F 10 00 00  call        qword ptr [0000000140009080h]
  0000000140008001: 48 8B CB           mov         rcx,rbx
  0000000140008004: FF 15 46 10 00 00  call        qword ptr [0000000140009050h]
  000000014000800A: FF 15 38 10 00 00  call        qword ptr [0000000140009048h]
  0000000140008010: 48 8B C8           mov         rcx,rax
  0000000140008013: BA 09 04 00 C0     mov         edx,0C0000409h
  0000000140008018: 48 83 C4 20        add         rsp,20h
  000000014000801C: 5B                 pop         rbx
  000000014000801D: 48 FF 25 DC 0F 00  jmp         qword ptr [0000000140009000h]
                    00
  0000000140008024: 48 89 4C 24 08     mov         qword ptr [rsp+8],rcx
  0000000140008029: 48 83 EC 38        sub         rsp,38h
  000000014000802D: B9 17 00 00 00     mov         ecx,17h
  0000000140008032: E8 FD FE FF FF     call        0000000140007F34
  0000000140008037: 85 C0              test        eax,eax
  0000000140008039: 74 07              je          0000000140008042
  000000014000803B: B9 02 00 00 00     mov         ecx,2
  0000000140008040: CD 29              int         29h
  0000000140008042: 48 8D 0D F7 56 00  lea         rcx,[000000014000D740h]
                    00
  0000000140008049: E8 AA 00 00 00     call        00000001400080F8
  000000014000804E: 48 8B 44 24 38     mov         rax,qword ptr [rsp+38h]
  0000000140008053: 48 89 05 DE 57 00  mov         qword ptr [000000014000D838h],rax
                    00
  000000014000805A: 48 8D 44 24 38     lea         rax,[rsp+38h]
  000000014000805F: 48 83 C0 08        add         rax,8
  0000000140008063: 48 89 05 6E 57 00  mov         qword ptr [000000014000D7D8h],rax
                    00
  000000014000806A: 48 8B 05 C7 57 00  mov         rax,qword ptr [000000014000D838h]
                    00
  0000000140008071: 48 89 05 38 56 00  mov         qword ptr [000000014000D6B0h],rax
                    00
  0000000140008078: 48 8B 44 24 40     mov         rax,qword ptr [rsp+40h]
  000000014000807D: 48 89 05 3C 57 00  mov         qword ptr [000000014000D7C0h],rax
                    00
  0000000140008084: C7 05 12 56 00 00  mov         dword ptr [000000014000D6A0h],0C0000409h
                    09 04 00 C0
  000000014000808E: C7 05 0C 56 00 00  mov         dword ptr [000000014000D6A4h],1
                    01 00 00 00
  0000000140008098: C7 05 16 56 00 00  mov         dword ptr [000000014000D6B8h],1
                    01 00 00 00
  00000001400080A2: B8 08 00 00 00     mov         eax,8
  00000001400080A7: 48 6B C0 00        imul        rax,rax,0
  00000001400080AB: 48 8D 0D 0E 56 00  lea         rcx,[000000014000D6C0h]
                    00
  00000001400080B2: 48 C7 04 01 02 00  mov         qword ptr [rcx+rax],2
                    00 00
  00000001400080BA: B8 08 00 00 00     mov         eax,8
  00000001400080BF: 48 6B C0 00        imul        rax,rax,0
  00000001400080C3: 48 8B 0D 5E 3F 00  mov         rcx,qword ptr [000000014000C028h]
                    00
  00000001400080CA: 48 89 4C 04 20     mov         qword ptr [rsp+rax+20h],rcx
  00000001400080CF: B8 08 00 00 00     mov         eax,8
  00000001400080D4: 48 6B C0 01        imul        rax,rax,1
  00000001400080D8: 48 8B 0D 41 3F 00  mov         rcx,qword ptr [000000014000C020h]
                    00
  00000001400080DF: 48 89 4C 04 20     mov         qword ptr [rsp+rax+20h],rcx
  00000001400080E4: 48 8D 0D CD 27 00  lea         rcx,[000000014000A8B8h]
                    00
  00000001400080EB: E8 00 FF FF FF     call        0000000140007FF0
  00000001400080F0: 48 83 C4 38        add         rsp,38h
  00000001400080F4: C3                 ret
  00000001400080F5: CC                 int         3
  00000001400080F6: CC                 int         3
  00000001400080F7: CC                 int         3
  00000001400080F8: 40 53              push        rbx
  00000001400080FA: 56                 push        rsi
  00000001400080FB: 57                 push        rdi
  00000001400080FC: 48 83 EC 40        sub         rsp,40h
  0000000140008100: 48 8B D9           mov         rbx,rcx
  0000000140008103: FF 15 1F 0F 00 00  call        qword ptr [0000000140009028h]
  0000000140008109: 48 8B B3 F8 00 00  mov         rsi,qword ptr [rbx+00000000000000F8h]
                    00
  0000000140008110: 33 FF              xor         edi,edi
  0000000140008112: 45 33 C0           xor         r8d,r8d
  0000000140008115: 48 8D 54 24 60     lea         rdx,[rsp+60h]
  000000014000811A: 48 8B CE           mov         rcx,rsi
  000000014000811D: FF 15 0D 0F 00 00  call        qword ptr [0000000140009030h]
  0000000140008123: 48 85 C0           test        rax,rax
  0000000140008126: 74 39              je          0000000140008161
  0000000140008128: 48 83 64 24 38 00  and         qword ptr [rsp+38h],0
  000000014000812E: 48 8D 4C 24 68     lea         rcx,[rsp+68h]
  0000000140008133: 48 8B 54 24 60     mov         rdx,qword ptr [rsp+60h]
  0000000140008138: 4C 8B C8           mov         r9,rax
  000000014000813B: 48 89 4C 24 30     mov         qword ptr [rsp+30h],rcx
  0000000140008140: 4C 8B C6           mov         r8,rsi
  0000000140008143: 48 8D 4C 24 70     lea         rcx,[rsp+70h]
  0000000140008148: 48 89 4C 24 28     mov         qword ptr [rsp+28h],rcx
  000000014000814D: 33 C9              xor         ecx,ecx
  000000014000814F: 48 89 5C 24 20     mov         qword ptr [rsp+20h],rbx
  0000000140008154: FF 15 DE 0E 00 00  call        qword ptr [0000000140009038h]
  000000014000815A: FF C7              inc         edi
  000000014000815C: 83 FF 02           cmp         edi,2
  000000014000815F: 7C B1              jl          0000000140008112
  0000000140008161: 48 83 C4 40        add         rsp,40h
  0000000140008165: 5F                 pop         rdi
  0000000140008166: 5E                 pop         rsi
  0000000140008167: 5B                 pop         rbx
  0000000140008168: C3                 ret
  0000000140008169: CC                 int         3
  000000014000816A: CC                 int         3
  000000014000816B: CC                 int         3
  000000014000816C: CC                 int         3
  000000014000816D: CC                 int         3
  000000014000816E: CC                 int         3
  000000014000816F: CC                 int         3
  0000000140008170: CC                 int         3
  0000000140008171: CC                 int         3
  0000000140008172: CC                 int         3
  0000000140008173: CC                 int         3
  0000000140008174: CC                 int         3
  0000000140008175: CC                 int         3
  0000000140008176: 66 66 0F 1F 84 00  nop         word ptr [rax+rax+0000000000000000h]
                    00 00 00 00
  0000000140008180: FF E0              jmp         rax
  0000000140008182: CC                 int         3
  0000000140008183: CC                 int         3
  0000000140008184: CC                 int         3
  0000000140008185: CC                 int         3
  0000000140008186: CC                 int         3
  0000000140008187: CC                 int         3
  0000000140008188: CC                 int         3
  0000000140008189: CC                 int         3
  000000014000818A: CC                 int         3
  000000014000818B: CC                 int         3
  000000014000818C: CC                 int         3
  000000014000818D: CC                 int         3
  000000014000818E: CC                 int         3
  000000014000818F: CC                 int         3
  0000000140008190: CC                 int         3
  0000000140008191: CC                 int         3
  0000000140008192: CC                 int         3
  0000000140008193: CC                 int         3
  0000000140008194: CC                 int         3
  0000000140008195: CC                 int         3
  0000000140008196: 66 66 0F 1F 84 00  nop         word ptr [rax+rax+0000000000000000h]
                    00 00 00 00
  00000001400081A0: FF 25 92 10 00 00  jmp         qword ptr [0000000140009238h]
  00000001400081A6: 40 55              push        rbp
  00000001400081A8: 48 83 EC 20        sub         rsp,20h
  00000001400081AC: 48 8B EA           mov         rbp,rdx
  00000001400081AF: 48 8B 01           mov         rax,qword ptr [rcx]
  00000001400081B2: 48 8B D1           mov         rdx,rcx
  00000001400081B5: 8B 08              mov         ecx,dword ptr [rax]
  00000001400081B7: E8 CA FC FF FF     call        0000000140007E86
  00000001400081BC: 90                 nop
  00000001400081BD: 48 83 C4 20        add         rsp,20h
  00000001400081C1: 5D                 pop         rbp
  00000001400081C2: C3                 ret
  00000001400081C3: CC                 int         3
  00000001400081C4: 40 55              push        rbp
  00000001400081C6: 48 8B EA           mov         rbp,rdx
  00000001400081C9: 48 8B 01           mov         rax,qword ptr [rcx]
  00000001400081CC: 33 C9              xor         ecx,ecx
  00000001400081CE: 81 38 05 00 00 C0  cmp         dword ptr [rax],0C0000005h
  00000001400081D4: 0F 94 C1           sete        cl
  00000001400081D7: 8B C1              mov         eax,ecx
  00000001400081D9: 5D                 pop         rbp
  00000001400081DA: C3                 ret
  00000001400081DB: CC                 int         3

  Summary

        2000 .data
        1000 .data1
        1000 .debug_o
        1000 .pdata
        3000 .rdata
        1000 .reloc
        1000 .rsrc
        8000 .text
        1000 _RDATA
